
Merging program properties


As-needed library included to satisfy reference by file (symbol)

libSDL2-2.0.so.0              build/port/realgui_port/sdl_driver.o (SDL_Init)
libstdc++.so.6                /home/wh/.HoneyGUI-SDK/realgui/3rd/nanovg/agge/stroke.o (operator new[](unsigned long)@@GLIBCXX_3.4)
libm.so.6                     /home/wh/.HoneyGUI-SDK/realgui/widget/gui_menu_cellular/gui_menu_cellular.o (exp@@GLIBC_2.29)
libgcc_s.so.1                 /home/wh/.HoneyGUI-SDK/realgui/3rd/nanovg/agge/stroke.o (_Unwind_Resume@@GCC_3.0)
libc.so.6                     build/port/realgui_port/gui_port_os.o (pthread_setname_np@@GLIBC_2.34)

Discarded input sections

 .note.GNU-stack
                0x0000000000000000        0x0 /usr/lib/gcc/x86_64-linux-gnu/11/../../../x86_64-linux-gnu/Scrt1.o
 .note.gnu.property
                0x0000000000000000       0x20 /usr/lib/gcc/x86_64-linux-gnu/11/../../../x86_64-linux-gnu/crti.o
 .note.GNU-stack
                0x0000000000000000        0x0 /usr/lib/gcc/x86_64-linux-gnu/11/../../../x86_64-linux-gnu/crti.o
 .note.GNU-stack
                0x0000000000000000        0x0 /usr/lib/gcc/x86_64-linux-gnu/11/crtbeginS.o
 .note.gnu.property
                0x0000000000000000       0x20 /usr/lib/gcc/x86_64-linux-gnu/11/crtbeginS.o
 .note.GNU-stack
                0x0000000000000000        0x0 build/main.o
 .note.gnu.property
                0x0000000000000000       0x20 build/main.o
 .note.GNU-stack
                0x0000000000000000        0x0 build/port/realgui_port/gui_port_acc.o
 .note.gnu.property
                0x0000000000000000       0x20 build/port/realgui_port/gui_port_acc.o
 .note.GNU-stack
                0x0000000000000000        0x0 build/port/realgui_port/gui_port_dc.o
 .note.gnu.property
                0x0000000000000000       0x20 build/port/realgui_port/gui_port_dc.o
 .note.GNU-stack
                0x0000000000000000        0x0 build/port/realgui_port/gui_port_filesystem.o
 .note.gnu.property
                0x0000000000000000       0x20 build/port/realgui_port/gui_port_filesystem.o
 .note.GNU-stack
                0x0000000000000000        0x0 build/port/realgui_port/gui_port_ftl.o
 .note.gnu.property
                0x0000000000000000       0x20 build/port/realgui_port/gui_port_ftl.o
 .note.GNU-stack
                0x0000000000000000        0x0 build/port/realgui_port/gui_port_indev.o
 .note.gnu.property
                0x0000000000000000       0x20 build/port/realgui_port/gui_port_indev.o
 .note.GNU-stack
                0x0000000000000000        0x0 build/port/realgui_port/gui_port_os.o
 .note.gnu.property
                0x0000000000000000       0x20 build/port/realgui_port/gui_port_os.o
 .note.GNU-stack
                0x0000000000000000        0x0 build/port/realgui_port/gui_queue.o
 .note.gnu.property
                0x0000000000000000       0x20 build/port/realgui_port/gui_queue.o
 .note.GNU-stack
                0x0000000000000000        0x0 build/port/realgui_port/sdl_driver.o
 .note.gnu.property
                0x0000000000000000       0x20 build/port/realgui_port/sdl_driver.o
 .note.GNU-stack
                0x0000000000000000        0x0 /home/wh/.HoneyGUI-SDK/realgui/input/kb_algo.o
 .note.gnu.property
                0x0000000000000000       0x20 /home/wh/.HoneyGUI-SDK/realgui/input/kb_algo.o
 .note.GNU-stack
                0x0000000000000000        0x0 /home/wh/.HoneyGUI-SDK/realgui/input/tp_algo.o
 .note.gnu.property
                0x0000000000000000       0x20 /home/wh/.HoneyGUI-SDK/realgui/input/tp_algo.o
 .note.GNU-stack
                0x0000000000000000        0x0 /home/wh/.HoneyGUI-SDK/realgui/input/wheel_algo.o
 .note.gnu.property
                0x0000000000000000       0x20 /home/wh/.HoneyGUI-SDK/realgui/input/wheel_algo.o
 .note.GNU-stack
                0x0000000000000000        0x0 /home/wh/.HoneyGUI-SDK/realgui/server/gui_api_acc.o
 .note.gnu.property
                0x0000000000000000       0x20 /home/wh/.HoneyGUI-SDK/realgui/server/gui_api_acc.o
 .note.GNU-stack
                0x0000000000000000        0x0 /home/wh/.HoneyGUI-SDK/realgui/server/gui_api_color.o
 .note.gnu.property
                0x0000000000000000       0x20 /home/wh/.HoneyGUI-SDK/realgui/server/gui_api_color.o
 .note.GNU-stack
                0x0000000000000000        0x0 /home/wh/.HoneyGUI-SDK/realgui/server/gui_api_dc.o
 .note.gnu.property
                0x0000000000000000       0x20 /home/wh/.HoneyGUI-SDK/realgui/server/gui_api_dc.o
 .note.GNU-stack
                0x0000000000000000        0x0 /home/wh/.HoneyGUI-SDK/realgui/server/gui_api_fs.o
 .note.gnu.property
                0x0000000000000000       0x20 /home/wh/.HoneyGUI-SDK/realgui/server/gui_api_fs.o
 .note.GNU-stack
                0x0000000000000000        0x0 /home/wh/.HoneyGUI-SDK/realgui/server/gui_api_ftl.o
 .note.gnu.property
                0x0000000000000000       0x20 /home/wh/.HoneyGUI-SDK/realgui/server/gui_api_ftl.o
 .note.GNU-stack
                0x0000000000000000        0x0 /home/wh/.HoneyGUI-SDK/realgui/server/gui_api_indev.o
 .note.gnu.property
                0x0000000000000000       0x20 /home/wh/.HoneyGUI-SDK/realgui/server/gui_api_indev.o
 .note.GNU-stack
                0x0000000000000000        0x0 /home/wh/.HoneyGUI-SDK/realgui/server/gui_api_os.o
 .note.gnu.property
                0x0000000000000000       0x20 /home/wh/.HoneyGUI-SDK/realgui/server/gui_api_os.o
 .note.GNU-stack
                0x0000000000000000        0x0 /home/wh/.HoneyGUI-SDK/realgui/server/gui_components_init.o
 .note.gnu.property
                0x0000000000000000       0x20 /home/wh/.HoneyGUI-SDK/realgui/server/gui_components_init.o
 .note.GNU-stack
                0x0000000000000000        0x0 /home/wh/.HoneyGUI-SDK/realgui/server/gui_message.o
 .note.gnu.property
                0x0000000000000000       0x20 /home/wh/.HoneyGUI-SDK/realgui/server/gui_message.o
 .note.GNU-stack
                0x0000000000000000        0x0 /home/wh/.HoneyGUI-SDK/realgui/server/gui_pm.o
 .note.gnu.property
                0x0000000000000000       0x20 /home/wh/.HoneyGUI-SDK/realgui/server/gui_pm.o
 .note.GNU-stack
                0x0000000000000000        0x0 /home/wh/.HoneyGUI-SDK/realgui/server/gui_server.o
 .note.gnu.property
                0x0000000000000000       0x20 /home/wh/.HoneyGUI-SDK/realgui/server/gui_server.o
 .note.GNU-stack
                0x0000000000000000        0x0 /home/wh/.HoneyGUI-SDK/realgui/3rd/cJSON/cJSON.o
 .note.gnu.property
                0x0000000000000000       0x20 /home/wh/.HoneyGUI-SDK/realgui/3rd/cJSON/cJSON.o
 .note.GNU-stack
                0x0000000000000000        0x0 /home/wh/.HoneyGUI-SDK/realgui/3rd/nanovg/base/nanovg_port.o
 .note.gnu.property
                0x0000000000000000       0x20 /home/wh/.HoneyGUI-SDK/realgui/3rd/nanovg/base/nanovg_port.o
 .note.GNU-stack
                0x0000000000000000        0x0 /home/wh/.HoneyGUI-SDK/realgui/3rd/nanovg/base/nanovg.o
 .note.gnu.property
                0x0000000000000000       0x20 /home/wh/.HoneyGUI-SDK/realgui/3rd/nanovg/base/nanovg.o
 .group         0x0000000000000000        0xc /home/wh/.HoneyGUI-SDK/realgui/3rd/nanovg/agge/math.o
 .note.GNU-stack
                0x0000000000000000        0x0 /home/wh/.HoneyGUI-SDK/realgui/3rd/nanovg/agge/math.o
 .note.gnu.property
                0x0000000000000000       0x20 /home/wh/.HoneyGUI-SDK/realgui/3rd/nanovg/agge/math.o
 .group         0x0000000000000000        0x8 /home/wh/.HoneyGUI-SDK/realgui/3rd/nanovg/agge/stroke.o
 .group         0x0000000000000000        0xc /home/wh/.HoneyGUI-SDK/realgui/3rd/nanovg/agge/stroke.o
 .group         0x0000000000000000        0xc /home/wh/.HoneyGUI-SDK/realgui/3rd/nanovg/agge/stroke.o
 .group         0x0000000000000000        0xc /home/wh/.HoneyGUI-SDK/realgui/3rd/nanovg/agge/stroke.o
 .group         0x0000000000000000        0xc /home/wh/.HoneyGUI-SDK/realgui/3rd/nanovg/agge/stroke.o
 .group         0x0000000000000000        0xc /home/wh/.HoneyGUI-SDK/realgui/3rd/nanovg/agge/stroke.o
 .group         0x0000000000000000        0xc /home/wh/.HoneyGUI-SDK/realgui/3rd/nanovg/agge/stroke.o
 .group         0x0000000000000000        0x8 /home/wh/.HoneyGUI-SDK/realgui/3rd/nanovg/agge/stroke.o
 .group         0x0000000000000000        0xc /home/wh/.HoneyGUI-SDK/realgui/3rd/nanovg/agge/stroke.o
 .group         0x0000000000000000        0xc /home/wh/.HoneyGUI-SDK/realgui/3rd/nanovg/agge/stroke.o
 .group         0x0000000000000000        0xc /home/wh/.HoneyGUI-SDK/realgui/3rd/nanovg/agge/stroke.o
 .group         0x0000000000000000        0x8 /home/wh/.HoneyGUI-SDK/realgui/3rd/nanovg/agge/stroke.o
 .group         0x0000000000000000        0x8 /home/wh/.HoneyGUI-SDK/realgui/3rd/nanovg/agge/stroke.o
 .group         0x0000000000000000        0x8 /home/wh/.HoneyGUI-SDK/realgui/3rd/nanovg/agge/stroke.o
 .group         0x0000000000000000        0x8 /home/wh/.HoneyGUI-SDK/realgui/3rd/nanovg/agge/stroke.o
 .group         0x0000000000000000        0x8 /home/wh/.HoneyGUI-SDK/realgui/3rd/nanovg/agge/stroke.o
 .group         0x0000000000000000        0xc /home/wh/.HoneyGUI-SDK/realgui/3rd/nanovg/agge/stroke.o
 .group         0x0000000000000000        0xc /home/wh/.HoneyGUI-SDK/realgui/3rd/nanovg/agge/stroke.o
 .group         0x0000000000000000        0xc /home/wh/.HoneyGUI-SDK/realgui/3rd/nanovg/agge/stroke.o
 .group         0x0000000000000000        0xc /home/wh/.HoneyGUI-SDK/realgui/3rd/nanovg/agge/stroke.o
 .group         0x0000000000000000        0x8 /home/wh/.HoneyGUI-SDK/realgui/3rd/nanovg/agge/stroke.o
 .group         0x0000000000000000        0xc /home/wh/.HoneyGUI-SDK/realgui/3rd/nanovg/agge/stroke.o
 .group         0x0000000000000000        0x8 /home/wh/.HoneyGUI-SDK/realgui/3rd/nanovg/agge/stroke.o
 .group         0x0000000000000000        0x8 /home/wh/.HoneyGUI-SDK/realgui/3rd/nanovg/agge/stroke.o
 .group         0x0000000000000000        0x8 /home/wh/.HoneyGUI-SDK/realgui/3rd/nanovg/agge/stroke.o
 .group         0x0000000000000000        0xc /home/wh/.HoneyGUI-SDK/realgui/3rd/nanovg/agge/stroke.o
 .group         0x0000000000000000        0xc /home/wh/.HoneyGUI-SDK/realgui/3rd/nanovg/agge/stroke.o
 .group         0x0000000000000000        0xc /home/wh/.HoneyGUI-SDK/realgui/3rd/nanovg/agge/stroke.o
 .group         0x0000000000000000        0x8 /home/wh/.HoneyGUI-SDK/realgui/3rd/nanovg/agge/stroke.o
 .group         0x0000000000000000        0x8 /home/wh/.HoneyGUI-SDK/realgui/3rd/nanovg/agge/stroke.o
 .group         0x0000000000000000        0x8 /home/wh/.HoneyGUI-SDK/realgui/3rd/nanovg/agge/stroke.o
 .group         0x0000000000000000        0xc /home/wh/.HoneyGUI-SDK/realgui/3rd/nanovg/agge/stroke.o
 .group         0x0000000000000000        0x8 /home/wh/.HoneyGUI-SDK/realgui/3rd/nanovg/agge/stroke.o
 .group         0x0000000000000000        0xc /home/wh/.HoneyGUI-SDK/realgui/3rd/nanovg/agge/stroke.o
 .note.GNU-stack
                0x0000000000000000        0x0 /home/wh/.HoneyGUI-SDK/realgui/3rd/nanovg/agge/stroke.o
 .note.gnu.property
                0x0000000000000000       0x20 /home/wh/.HoneyGUI-SDK/realgui/3rd/nanovg/agge/stroke.o
 .group         0x0000000000000000       0x14 /home/wh/.HoneyGUI-SDK/realgui/3rd/nanovg/agge/stroke_features.o
 .group         0x0000000000000000       0x14 /home/wh/.HoneyGUI-SDK/realgui/3rd/nanovg/agge/stroke_features.o
 .group         0x0000000000000000        0xc /home/wh/.HoneyGUI-SDK/realgui/3rd/nanovg/agge/stroke_features.o
 .group         0x0000000000000000        0xc /home/wh/.HoneyGUI-SDK/realgui/3rd/nanovg/agge/stroke_features.o
 .group         0x0000000000000000        0xc /home/wh/.HoneyGUI-SDK/realgui/3rd/nanovg/agge/stroke_features.o
 .group         0x0000000000000000        0xc /home/wh/.HoneyGUI-SDK/realgui/3rd/nanovg/agge/stroke_features.o
 .group         0x0000000000000000        0xc /home/wh/.HoneyGUI-SDK/realgui/3rd/nanovg/agge/stroke_features.o
 .group         0x0000000000000000        0xc /home/wh/.HoneyGUI-SDK/realgui/3rd/nanovg/agge/stroke_features.o
 .group         0x0000000000000000        0x8 /home/wh/.HoneyGUI-SDK/realgui/3rd/nanovg/agge/stroke_features.o
 .group         0x0000000000000000        0x8 /home/wh/.HoneyGUI-SDK/realgui/3rd/nanovg/agge/stroke_features.o
 .group         0x0000000000000000        0x8 /home/wh/.HoneyGUI-SDK/realgui/3rd/nanovg/agge/stroke_features.o
 .group         0x0000000000000000        0xc /home/wh/.HoneyGUI-SDK/realgui/3rd/nanovg/agge/stroke_features.o
 .group         0x0000000000000000       0x14 /home/wh/.HoneyGUI-SDK/realgui/3rd/nanovg/agge/stroke_features.o
 .group         0x0000000000000000        0xc /home/wh/.HoneyGUI-SDK/realgui/3rd/nanovg/agge/stroke_features.o
 .group         0x0000000000000000       0x14 /home/wh/.HoneyGUI-SDK/realgui/3rd/nanovg/agge/stroke_features.o
 .group         0x0000000000000000        0xc /home/wh/.HoneyGUI-SDK/realgui/3rd/nanovg/agge/stroke_features.o
 .group         0x0000000000000000       0x14 /home/wh/.HoneyGUI-SDK/realgui/3rd/nanovg/agge/stroke_features.o
 .group         0x0000000000000000        0xc /home/wh/.HoneyGUI-SDK/realgui/3rd/nanovg/agge/stroke_features.o
 .group         0x0000000000000000       0x14 /home/wh/.HoneyGUI-SDK/realgui/3rd/nanovg/agge/stroke_features.o
 .group         0x0000000000000000        0xc /home/wh/.HoneyGUI-SDK/realgui/3rd/nanovg/agge/stroke_features.o
 .group         0x0000000000000000       0x14 /home/wh/.HoneyGUI-SDK/realgui/3rd/nanovg/agge/stroke_features.o
 .group         0x0000000000000000        0xc /home/wh/.HoneyGUI-SDK/realgui/3rd/nanovg/agge/stroke_features.o
 .group         0x0000000000000000       0x14 /home/wh/.HoneyGUI-SDK/realgui/3rd/nanovg/agge/stroke_features.o
 .group         0x0000000000000000        0xc /home/wh/.HoneyGUI-SDK/realgui/3rd/nanovg/agge/stroke_features.o
 .group         0x0000000000000000       0x14 /home/wh/.HoneyGUI-SDK/realgui/3rd/nanovg/agge/stroke_features.o
 .group         0x0000000000000000        0xc /home/wh/.HoneyGUI-SDK/realgui/3rd/nanovg/agge/stroke_features.o
 .group         0x0000000000000000        0xc /home/wh/.HoneyGUI-SDK/realgui/3rd/nanovg/agge/stroke_features.o
 .group         0x0000000000000000        0xc /home/wh/.HoneyGUI-SDK/realgui/3rd/nanovg/agge/stroke_features.o
 .group         0x0000000000000000        0x8 /home/wh/.HoneyGUI-SDK/realgui/3rd/nanovg/agge/stroke_features.o
 .group         0x0000000000000000        0xc /home/wh/.HoneyGUI-SDK/realgui/3rd/nanovg/agge/stroke_features.o
 .group         0x0000000000000000        0x8 /home/wh/.HoneyGUI-SDK/realgui/3rd/nanovg/agge/stroke_features.o
 .group         0x0000000000000000        0xc /home/wh/.HoneyGUI-SDK/realgui/3rd/nanovg/agge/stroke_features.o
 .group         0x0000000000000000        0x8 /home/wh/.HoneyGUI-SDK/realgui/3rd/nanovg/agge/stroke_features.o
 .group         0x0000000000000000        0xc /home/wh/.HoneyGUI-SDK/realgui/3rd/nanovg/agge/stroke_features.o
 .group         0x0000000000000000        0x8 /home/wh/.HoneyGUI-SDK/realgui/3rd/nanovg/agge/stroke_features.o
 .group         0x0000000000000000        0xc /home/wh/.HoneyGUI-SDK/realgui/3rd/nanovg/agge/stroke_features.o
 .group         0x0000000000000000        0x8 /home/wh/.HoneyGUI-SDK/realgui/3rd/nanovg/agge/stroke_features.o
 .group         0x0000000000000000        0xc /home/wh/.HoneyGUI-SDK/realgui/3rd/nanovg/agge/stroke_features.o
 .group         0x0000000000000000        0x8 /home/wh/.HoneyGUI-SDK/realgui/3rd/nanovg/agge/stroke_features.o
 .group         0x0000000000000000        0xc /home/wh/.HoneyGUI-SDK/realgui/3rd/nanovg/agge/stroke_features.o
 .group         0x0000000000000000        0x8 /home/wh/.HoneyGUI-SDK/realgui/3rd/nanovg/agge/stroke_features.o
 .group         0x0000000000000000        0xc /home/wh/.HoneyGUI-SDK/realgui/3rd/nanovg/agge/stroke_features.o
 .group         0x0000000000000000        0x8 /home/wh/.HoneyGUI-SDK/realgui/3rd/nanovg/agge/stroke_features.o
 .group         0x0000000000000000        0xc /home/wh/.HoneyGUI-SDK/realgui/3rd/nanovg/agge/stroke_features.o
 .group         0x0000000000000000        0x8 /home/wh/.HoneyGUI-SDK/realgui/3rd/nanovg/agge/stroke_features.o
 .text._ZN4agge10pod_vectorINS_5pointIfEEE4growEj
                0x0000000000000000      0x14b /home/wh/.HoneyGUI-SDK/realgui/3rd/nanovg/agge/stroke_features.o
 .text._ZN4agge8agge_maxIjEET_RKS1_S3_
                0x0000000000000000       0x30 /home/wh/.HoneyGUI-SDK/realgui/3rd/nanovg/agge/stroke_features.o
 .text._ZNK4agge10pod_vectorINS_5pointIfEEE4sizeEv
                0x0000000000000000       0x27 /home/wh/.HoneyGUI-SDK/realgui/3rd/nanovg/agge/stroke_features.o
 .text._ZNK4agge10pod_vectorINS_5pointIfEEE8capacityEv
                0x0000000000000000       0x27 /home/wh/.HoneyGUI-SDK/realgui/3rd/nanovg/agge/stroke_features.o
 .note.GNU-stack
                0x0000000000000000        0x0 /home/wh/.HoneyGUI-SDK/realgui/3rd/nanovg/agge/stroke_features.o
 .note.gnu.property
                0x0000000000000000       0x20 /home/wh/.HoneyGUI-SDK/realgui/3rd/nanovg/agge/stroke_features.o
 .group         0x0000000000000000        0x8 /home/wh/.HoneyGUI-SDK/realgui/3rd/nanovg/agge/vector_rasterizer.o
 .group         0x0000000000000000        0xc /home/wh/.HoneyGUI-SDK/realgui/3rd/nanovg/agge/vector_rasterizer.o
 .group         0x0000000000000000        0xc /home/wh/.HoneyGUI-SDK/realgui/3rd/nanovg/agge/vector_rasterizer.o
 .group         0x0000000000000000        0x8 /home/wh/.HoneyGUI-SDK/realgui/3rd/nanovg/agge/vector_rasterizer.o
 .group         0x0000000000000000        0x8 /home/wh/.HoneyGUI-SDK/realgui/3rd/nanovg/agge/vector_rasterizer.o
 .group         0x0000000000000000        0x8 /home/wh/.HoneyGUI-SDK/realgui/3rd/nanovg/agge/vector_rasterizer.o
 .group         0x0000000000000000        0xc /home/wh/.HoneyGUI-SDK/realgui/3rd/nanovg/agge/vector_rasterizer.o
 .group         0x0000000000000000        0xc /home/wh/.HoneyGUI-SDK/realgui/3rd/nanovg/agge/vector_rasterizer.o
 .group         0x0000000000000000        0xc /home/wh/.HoneyGUI-SDK/realgui/3rd/nanovg/agge/vector_rasterizer.o
 .group         0x0000000000000000        0xc /home/wh/.HoneyGUI-SDK/realgui/3rd/nanovg/agge/vector_rasterizer.o
 .group         0x0000000000000000        0xc /home/wh/.HoneyGUI-SDK/realgui/3rd/nanovg/agge/vector_rasterizer.o
 .group         0x0000000000000000        0x8 /home/wh/.HoneyGUI-SDK/realgui/3rd/nanovg/agge/vector_rasterizer.o
 .group         0x0000000000000000        0x8 /home/wh/.HoneyGUI-SDK/realgui/3rd/nanovg/agge/vector_rasterizer.o
 .group         0x0000000000000000        0x8 /home/wh/.HoneyGUI-SDK/realgui/3rd/nanovg/agge/vector_rasterizer.o
 .group         0x0000000000000000        0x8 /home/wh/.HoneyGUI-SDK/realgui/3rd/nanovg/agge/vector_rasterizer.o
 .group         0x0000000000000000        0x8 /home/wh/.HoneyGUI-SDK/realgui/3rd/nanovg/agge/vector_rasterizer.o
 .group         0x0000000000000000        0xc /home/wh/.HoneyGUI-SDK/realgui/3rd/nanovg/agge/vector_rasterizer.o
 .group         0x0000000000000000        0xc /home/wh/.HoneyGUI-SDK/realgui/3rd/nanovg/agge/vector_rasterizer.o
 .group         0x0000000000000000        0x8 /home/wh/.HoneyGUI-SDK/realgui/3rd/nanovg/agge/vector_rasterizer.o
 .group         0x0000000000000000        0x8 /home/wh/.HoneyGUI-SDK/realgui/3rd/nanovg/agge/vector_rasterizer.o
 .group         0x0000000000000000        0x8 /home/wh/.HoneyGUI-SDK/realgui/3rd/nanovg/agge/vector_rasterizer.o
 .group         0x0000000000000000        0x8 /home/wh/.HoneyGUI-SDK/realgui/3rd/nanovg/agge/vector_rasterizer.o
 .group         0x0000000000000000        0x8 /home/wh/.HoneyGUI-SDK/realgui/3rd/nanovg/agge/vector_rasterizer.o
 .group         0x0000000000000000        0xc /home/wh/.HoneyGUI-SDK/realgui/3rd/nanovg/agge/vector_rasterizer.o
 .group         0x0000000000000000        0x8 /home/wh/.HoneyGUI-SDK/realgui/3rd/nanovg/agge/vector_rasterizer.o
 .group         0x0000000000000000        0xc /home/wh/.HoneyGUI-SDK/realgui/3rd/nanovg/agge/vector_rasterizer.o
 .group         0x0000000000000000        0x8 /home/wh/.HoneyGUI-SDK/realgui/3rd/nanovg/agge/vector_rasterizer.o
 .group         0x0000000000000000        0xc /home/wh/.HoneyGUI-SDK/realgui/3rd/nanovg/agge/vector_rasterizer.o
 .group         0x0000000000000000        0x8 /home/wh/.HoneyGUI-SDK/realgui/3rd/nanovg/agge/vector_rasterizer.o
 .group         0x0000000000000000        0x8 /home/wh/.HoneyGUI-SDK/realgui/3rd/nanovg/agge/vector_rasterizer.o
 .group         0x0000000000000000        0xc /home/wh/.HoneyGUI-SDK/realgui/3rd/nanovg/agge/vector_rasterizer.o
 .text._ZN4agge8agge_maxIjEET_RKS1_S3_
                0x0000000000000000       0x30 /home/wh/.HoneyGUI-SDK/realgui/3rd/nanovg/agge/vector_rasterizer.o
 .data.rel.local.DW.ref.__gxx_personality_v0
                0x0000000000000000        0x8 /home/wh/.HoneyGUI-SDK/realgui/3rd/nanovg/agge/vector_rasterizer.o
 .note.GNU-stack
                0x0000000000000000        0x0 /home/wh/.HoneyGUI-SDK/realgui/3rd/nanovg/agge/vector_rasterizer.o
 .note.gnu.property
                0x0000000000000000       0x20 /home/wh/.HoneyGUI-SDK/realgui/3rd/nanovg/agge/vector_rasterizer.o
 .group         0x0000000000000000        0xc /home/wh/.HoneyGUI-SDK/realgui/3rd/nanovg/agge/nanovg_agge.o
 .group         0x0000000000000000        0xc /home/wh/.HoneyGUI-SDK/realgui/3rd/nanovg/agge/nanovg_agge.o
 .group         0x0000000000000000        0x8 /home/wh/.HoneyGUI-SDK/realgui/3rd/nanovg/agge/nanovg_agge.o
 .group         0x0000000000000000        0x8 /home/wh/.HoneyGUI-SDK/realgui/3rd/nanovg/agge/nanovg_agge.o
 .group         0x0000000000000000        0xc /home/wh/.HoneyGUI-SDK/realgui/3rd/nanovg/agge/nanovg_agge.o
 .group         0x0000000000000000        0x8 /home/wh/.HoneyGUI-SDK/realgui/3rd/nanovg/agge/nanovg_agge.o
 .group         0x0000000000000000       0x14 /home/wh/.HoneyGUI-SDK/realgui/3rd/nanovg/agge/nanovg_agge.o
 .group         0x0000000000000000       0x14 /home/wh/.HoneyGUI-SDK/realgui/3rd/nanovg/agge/nanovg_agge.o
 .group         0x0000000000000000        0x8 /home/wh/.HoneyGUI-SDK/realgui/3rd/nanovg/agge/nanovg_agge.o
 .group         0x0000000000000000        0x8 /home/wh/.HoneyGUI-SDK/realgui/3rd/nanovg/agge/nanovg_agge.o
 .group         0x0000000000000000        0x8 /home/wh/.HoneyGUI-SDK/realgui/3rd/nanovg/agge/nanovg_agge.o
 .group         0x0000000000000000        0x8 /home/wh/.HoneyGUI-SDK/realgui/3rd/nanovg/agge/nanovg_agge.o
 .group         0x0000000000000000        0x8 /home/wh/.HoneyGUI-SDK/realgui/3rd/nanovg/agge/nanovg_agge.o
 .group         0x0000000000000000        0x8 /home/wh/.HoneyGUI-SDK/realgui/3rd/nanovg/agge/nanovg_agge.o
 .group         0x0000000000000000        0x8 /home/wh/.HoneyGUI-SDK/realgui/3rd/nanovg/agge/nanovg_agge.o
 .group         0x0000000000000000        0x8 /home/wh/.HoneyGUI-SDK/realgui/3rd/nanovg/agge/nanovg_agge.o
 .group         0x0000000000000000        0xc /home/wh/.HoneyGUI-SDK/realgui/3rd/nanovg/agge/nanovg_agge.o
 .group         0x0000000000000000        0xc /home/wh/.HoneyGUI-SDK/realgui/3rd/nanovg/agge/nanovg_agge.o
 .group         0x0000000000000000        0x8 /home/wh/.HoneyGUI-SDK/realgui/3rd/nanovg/agge/nanovg_agge.o
 .group         0x0000000000000000        0xc /home/wh/.HoneyGUI-SDK/realgui/3rd/nanovg/agge/nanovg_agge.o
 .group         0x0000000000000000        0xc /home/wh/.HoneyGUI-SDK/realgui/3rd/nanovg/agge/nanovg_agge.o
 .group         0x0000000000000000        0x8 /home/wh/.HoneyGUI-SDK/realgui/3rd/nanovg/agge/nanovg_agge.o
 .group         0x0000000000000000        0xc /home/wh/.HoneyGUI-SDK/realgui/3rd/nanovg/agge/nanovg_agge.o
 .group         0x0000000000000000        0xc /home/wh/.HoneyGUI-SDK/realgui/3rd/nanovg/agge/nanovg_agge.o
 .group         0x0000000000000000        0x8 /home/wh/.HoneyGUI-SDK/realgui/3rd/nanovg/agge/nanovg_agge.o
 .group         0x0000000000000000        0x8 /home/wh/.HoneyGUI-SDK/realgui/3rd/nanovg/agge/nanovg_agge.o
 .group         0x0000000000000000        0xc /home/wh/.HoneyGUI-SDK/realgui/3rd/nanovg/agge/nanovg_agge.o
 .group         0x0000000000000000        0x8 /home/wh/.HoneyGUI-SDK/realgui/3rd/nanovg/agge/nanovg_agge.o
 .group         0x0000000000000000        0x8 /home/wh/.HoneyGUI-SDK/realgui/3rd/nanovg/agge/nanovg_agge.o
 .group         0x0000000000000000        0x8 /home/wh/.HoneyGUI-SDK/realgui/3rd/nanovg/agge/nanovg_agge.o
 .group         0x0000000000000000        0xc /home/wh/.HoneyGUI-SDK/realgui/3rd/nanovg/agge/nanovg_agge.o
 .group         0x0000000000000000        0xc /home/wh/.HoneyGUI-SDK/realgui/3rd/nanovg/agge/nanovg_agge.o
 .group         0x0000000000000000        0xc /home/wh/.HoneyGUI-SDK/realgui/3rd/nanovg/agge/nanovg_agge.o
 .group         0x0000000000000000        0xc /home/wh/.HoneyGUI-SDK/realgui/3rd/nanovg/agge/nanovg_agge.o
 .group         0x0000000000000000        0xc /home/wh/.HoneyGUI-SDK/realgui/3rd/nanovg/agge/nanovg_agge.o
 .group         0x0000000000000000        0xc /home/wh/.HoneyGUI-SDK/realgui/3rd/nanovg/agge/nanovg_agge.o
 .group         0x0000000000000000        0xc /home/wh/.HoneyGUI-SDK/realgui/3rd/nanovg/agge/nanovg_agge.o
 .group         0x0000000000000000        0xc /home/wh/.HoneyGUI-SDK/realgui/3rd/nanovg/agge/nanovg_agge.o
 .group         0x0000000000000000        0xc /home/wh/.HoneyGUI-SDK/realgui/3rd/nanovg/agge/nanovg_agge.o
 .group         0x0000000000000000       0x10 /home/wh/.HoneyGUI-SDK/realgui/3rd/nanovg/agge/nanovg_agge.o
 .group         0x0000000000000000       0x10 /home/wh/.HoneyGUI-SDK/realgui/3rd/nanovg/agge/nanovg_agge.o
 .group         0x0000000000000000        0xc /home/wh/.HoneyGUI-SDK/realgui/3rd/nanovg/agge/nanovg_agge.o
 .group         0x0000000000000000        0xc /home/wh/.HoneyGUI-SDK/realgui/3rd/nanovg/agge/nanovg_agge.o
 .group         0x0000000000000000        0x8 /home/wh/.HoneyGUI-SDK/realgui/3rd/nanovg/agge/nanovg_agge.o
 .group         0x0000000000000000        0x8 /home/wh/.HoneyGUI-SDK/realgui/3rd/nanovg/agge/nanovg_agge.o
 .group         0x0000000000000000        0xc /home/wh/.HoneyGUI-SDK/realgui/3rd/nanovg/agge/nanovg_agge.o
 .group         0x0000000000000000        0xc /home/wh/.HoneyGUI-SDK/realgui/3rd/nanovg/agge/nanovg_agge.o
 .group         0x0000000000000000        0x8 /home/wh/.HoneyGUI-SDK/realgui/3rd/nanovg/agge/nanovg_agge.o
 .group         0x0000000000000000        0xc /home/wh/.HoneyGUI-SDK/realgui/3rd/nanovg/agge/nanovg_agge.o
 .group         0x0000000000000000        0xc /home/wh/.HoneyGUI-SDK/realgui/3rd/nanovg/agge/nanovg_agge.o
 .group         0x0000000000000000        0xc /home/wh/.HoneyGUI-SDK/realgui/3rd/nanovg/agge/nanovg_agge.o
 .group         0x0000000000000000        0xc /home/wh/.HoneyGUI-SDK/realgui/3rd/nanovg/agge/nanovg_agge.o
 .group         0x0000000000000000        0xc /home/wh/.HoneyGUI-SDK/realgui/3rd/nanovg/agge/nanovg_agge.o
 .group         0x0000000000000000        0xc /home/wh/.HoneyGUI-SDK/realgui/3rd/nanovg/agge/nanovg_agge.o
 .group         0x0000000000000000        0xc /home/wh/.HoneyGUI-SDK/realgui/3rd/nanovg/agge/nanovg_agge.o
 .group         0x0000000000000000        0xc /home/wh/.HoneyGUI-SDK/realgui/3rd/nanovg/agge/nanovg_agge.o
 .group         0x0000000000000000        0xc /home/wh/.HoneyGUI-SDK/realgui/3rd/nanovg/agge/nanovg_agge.o
 .group         0x0000000000000000        0xc /home/wh/.HoneyGUI-SDK/realgui/3rd/nanovg/agge/nanovg_agge.o
 .group         0x0000000000000000        0xc /home/wh/.HoneyGUI-SDK/realgui/3rd/nanovg/agge/nanovg_agge.o
 .group         0x0000000000000000        0xc /home/wh/.HoneyGUI-SDK/realgui/3rd/nanovg/agge/nanovg_agge.o
 .group         0x0000000000000000        0xc /home/wh/.HoneyGUI-SDK/realgui/3rd/nanovg/agge/nanovg_agge.o
 .group         0x0000000000000000        0xc /home/wh/.HoneyGUI-SDK/realgui/3rd/nanovg/agge/nanovg_agge.o
 .group         0x0000000000000000        0xc /home/wh/.HoneyGUI-SDK/realgui/3rd/nanovg/agge/nanovg_agge.o
 .group         0x0000000000000000        0xc /home/wh/.HoneyGUI-SDK/realgui/3rd/nanovg/agge/nanovg_agge.o
 .group         0x0000000000000000        0xc /home/wh/.HoneyGUI-SDK/realgui/3rd/nanovg/agge/nanovg_agge.o
 .group         0x0000000000000000        0xc /home/wh/.HoneyGUI-SDK/realgui/3rd/nanovg/agge/nanovg_agge.o
 .group         0x0000000000000000        0xc /home/wh/.HoneyGUI-SDK/realgui/3rd/nanovg/agge/nanovg_agge.o
 .group         0x0000000000000000        0xc /home/wh/.HoneyGUI-SDK/realgui/3rd/nanovg/agge/nanovg_agge.o
 .group         0x0000000000000000        0xc /home/wh/.HoneyGUI-SDK/realgui/3rd/nanovg/agge/nanovg_agge.o
 .group         0x0000000000000000        0xc /home/wh/.HoneyGUI-SDK/realgui/3rd/nanovg/agge/nanovg_agge.o
 .group         0x0000000000000000        0xc /home/wh/.HoneyGUI-SDK/realgui/3rd/nanovg/agge/nanovg_agge.o
 .group         0x0000000000000000        0x8 /home/wh/.HoneyGUI-SDK/realgui/3rd/nanovg/agge/nanovg_agge.o
 .group         0x0000000000000000        0x8 /home/wh/.HoneyGUI-SDK/realgui/3rd/nanovg/agge/nanovg_agge.o
 .group         0x0000000000000000        0xc /home/wh/.HoneyGUI-SDK/realgui/3rd/nanovg/agge/nanovg_agge.o
 .group         0x0000000000000000        0xc /home/wh/.HoneyGUI-SDK/realgui/3rd/nanovg/agge/nanovg_agge.o
 .group         0x0000000000000000        0xc /home/wh/.HoneyGUI-SDK/realgui/3rd/nanovg/agge/nanovg_agge.o
 .group         0x0000000000000000        0xc /home/wh/.HoneyGUI-SDK/realgui/3rd/nanovg/agge/nanovg_agge.o
 .group         0x0000000000000000        0xc /home/wh/.HoneyGUI-SDK/realgui/3rd/nanovg/agge/nanovg_agge.o
 .group         0x0000000000000000        0xc /home/wh/.HoneyGUI-SDK/realgui/3rd/nanovg/agge/nanovg_agge.o
 .group         0x0000000000000000        0xc /home/wh/.HoneyGUI-SDK/realgui/3rd/nanovg/agge/nanovg_agge.o
 .group         0x0000000000000000        0xc /home/wh/.HoneyGUI-SDK/realgui/3rd/nanovg/agge/nanovg_agge.o
 .group         0x0000000000000000        0xc /home/wh/.HoneyGUI-SDK/realgui/3rd/nanovg/agge/nanovg_agge.o
 .group         0x0000000000000000        0xc /home/wh/.HoneyGUI-SDK/realgui/3rd/nanovg/agge/nanovg_agge.o
 .group         0x0000000000000000        0xc /home/wh/.HoneyGUI-SDK/realgui/3rd/nanovg/agge/nanovg_agge.o
 .group         0x0000000000000000        0xc /home/wh/.HoneyGUI-SDK/realgui/3rd/nanovg/agge/nanovg_agge.o
 .group         0x0000000000000000        0xc /home/wh/.HoneyGUI-SDK/realgui/3rd/nanovg/agge/nanovg_agge.o
 .group         0x0000000000000000        0xc /home/wh/.HoneyGUI-SDK/realgui/3rd/nanovg/agge/nanovg_agge.o
 .group         0x0000000000000000        0xc /home/wh/.HoneyGUI-SDK/realgui/3rd/nanovg/agge/nanovg_agge.o
 .group         0x0000000000000000        0x8 /home/wh/.HoneyGUI-SDK/realgui/3rd/nanovg/agge/nanovg_agge.o
 .group         0x0000000000000000        0xc /home/wh/.HoneyGUI-SDK/realgui/3rd/nanovg/agge/nanovg_agge.o
 .group         0x0000000000000000        0xc /home/wh/.HoneyGUI-SDK/realgui/3rd/nanovg/agge/nanovg_agge.o
 .group         0x0000000000000000        0xc /home/wh/.HoneyGUI-SDK/realgui/3rd/nanovg/agge/nanovg_agge.o
 .group         0x0000000000000000        0xc /home/wh/.HoneyGUI-SDK/realgui/3rd/nanovg/agge/nanovg_agge.o
 .group         0x0000000000000000        0xc /home/wh/.HoneyGUI-SDK/realgui/3rd/nanovg/agge/nanovg_agge.o
 .group         0x0000000000000000        0xc /home/wh/.HoneyGUI-SDK/realgui/3rd/nanovg/agge/nanovg_agge.o
 .group         0x0000000000000000        0xc /home/wh/.HoneyGUI-SDK/realgui/3rd/nanovg/agge/nanovg_agge.o
 .group         0x0000000000000000        0xc /home/wh/.HoneyGUI-SDK/realgui/3rd/nanovg/agge/nanovg_agge.o
 .group         0x0000000000000000        0xc /home/wh/.HoneyGUI-SDK/realgui/3rd/nanovg/agge/nanovg_agge.o
 .group         0x0000000000000000        0xc /home/wh/.HoneyGUI-SDK/realgui/3rd/nanovg/agge/nanovg_agge.o
 .group         0x0000000000000000        0xc /home/wh/.HoneyGUI-SDK/realgui/3rd/nanovg/agge/nanovg_agge.o
 .group         0x0000000000000000        0xc /home/wh/.HoneyGUI-SDK/realgui/3rd/nanovg/agge/nanovg_agge.o
 .group         0x0000000000000000        0xc /home/wh/.HoneyGUI-SDK/realgui/3rd/nanovg/agge/nanovg_agge.o
 .group         0x0000000000000000        0xc /home/wh/.HoneyGUI-SDK/realgui/3rd/nanovg/agge/nanovg_agge.o
 .group         0x0000000000000000        0x8 /home/wh/.HoneyGUI-SDK/realgui/3rd/nanovg/agge/nanovg_agge.o
 .group         0x0000000000000000        0xc /home/wh/.HoneyGUI-SDK/realgui/3rd/nanovg/agge/nanovg_agge.o
 .group         0x0000000000000000        0xc /home/wh/.HoneyGUI-SDK/realgui/3rd/nanovg/agge/nanovg_agge.o
 .group         0x0000000000000000        0xc /home/wh/.HoneyGUI-SDK/realgui/3rd/nanovg/agge/nanovg_agge.o
 .group         0x0000000000000000        0x8 /home/wh/.HoneyGUI-SDK/realgui/3rd/nanovg/agge/nanovg_agge.o
 .group         0x0000000000000000        0xc /home/wh/.HoneyGUI-SDK/realgui/3rd/nanovg/agge/nanovg_agge.o
 .group         0x0000000000000000        0xc /home/wh/.HoneyGUI-SDK/realgui/3rd/nanovg/agge/nanovg_agge.o
 .group         0x0000000000000000       0x14 /home/wh/.HoneyGUI-SDK/realgui/3rd/nanovg/agge/nanovg_agge.o
 .group         0x0000000000000000        0xc /home/wh/.HoneyGUI-SDK/realgui/3rd/nanovg/agge/nanovg_agge.o
 .group         0x0000000000000000        0xc /home/wh/.HoneyGUI-SDK/realgui/3rd/nanovg/agge/nanovg_agge.o
 .group         0x0000000000000000        0xc /home/wh/.HoneyGUI-SDK/realgui/3rd/nanovg/agge/nanovg_agge.o
 .group         0x0000000000000000        0xc /home/wh/.HoneyGUI-SDK/realgui/3rd/nanovg/agge/nanovg_agge.o
 .group         0x0000000000000000        0xc /home/wh/.HoneyGUI-SDK/realgui/3rd/nanovg/agge/nanovg_agge.o
 .group         0x0000000000000000        0xc /home/wh/.HoneyGUI-SDK/realgui/3rd/nanovg/agge/nanovg_agge.o
 .group         0x0000000000000000        0xc /home/wh/.HoneyGUI-SDK/realgui/3rd/nanovg/agge/nanovg_agge.o
 .group         0x0000000000000000        0xc /home/wh/.HoneyGUI-SDK/realgui/3rd/nanovg/agge/nanovg_agge.o
 .group         0x0000000000000000        0x8 /home/wh/.HoneyGUI-SDK/realgui/3rd/nanovg/agge/nanovg_agge.o
 .group         0x0000000000000000        0xc /home/wh/.HoneyGUI-SDK/realgui/3rd/nanovg/agge/nanovg_agge.o
 .group         0x0000000000000000        0xc /home/wh/.HoneyGUI-SDK/realgui/3rd/nanovg/agge/nanovg_agge.o
 .group         0x0000000000000000        0xc /home/wh/.HoneyGUI-SDK/realgui/3rd/nanovg/agge/nanovg_agge.o
 .group         0x0000000000000000        0x8 /home/wh/.HoneyGUI-SDK/realgui/3rd/nanovg/agge/nanovg_agge.o
 .group         0x0000000000000000        0xc /home/wh/.HoneyGUI-SDK/realgui/3rd/nanovg/agge/nanovg_agge.o
 .group         0x0000000000000000        0xc /home/wh/.HoneyGUI-SDK/realgui/3rd/nanovg/agge/nanovg_agge.o
 .group         0x0000000000000000        0xc /home/wh/.HoneyGUI-SDK/realgui/3rd/nanovg/agge/nanovg_agge.o
 .group         0x0000000000000000        0xc /home/wh/.HoneyGUI-SDK/realgui/3rd/nanovg/agge/nanovg_agge.o
 .group         0x0000000000000000        0xc /home/wh/.HoneyGUI-SDK/realgui/3rd/nanovg/agge/nanovg_agge.o
 .group         0x0000000000000000        0xc /home/wh/.HoneyGUI-SDK/realgui/3rd/nanovg/agge/nanovg_agge.o
 .group         0x0000000000000000        0xc /home/wh/.HoneyGUI-SDK/realgui/3rd/nanovg/agge/nanovg_agge.o
 .group         0x0000000000000000        0xc /home/wh/.HoneyGUI-SDK/realgui/3rd/nanovg/agge/nanovg_agge.o
 .group         0x0000000000000000        0xc /home/wh/.HoneyGUI-SDK/realgui/3rd/nanovg/agge/nanovg_agge.o
 .group         0x0000000000000000        0x8 /home/wh/.HoneyGUI-SDK/realgui/3rd/nanovg/agge/nanovg_agge.o
 .group         0x0000000000000000        0xc /home/wh/.HoneyGUI-SDK/realgui/3rd/nanovg/agge/nanovg_agge.o
 .group         0x0000000000000000        0xc /home/wh/.HoneyGUI-SDK/realgui/3rd/nanovg/agge/nanovg_agge.o
 .group         0x0000000000000000        0xc /home/wh/.HoneyGUI-SDK/realgui/3rd/nanovg/agge/nanovg_agge.o
 .group         0x0000000000000000        0x8 /home/wh/.HoneyGUI-SDK/realgui/3rd/nanovg/agge/nanovg_agge.o
 .group         0x0000000000000000        0xc /home/wh/.HoneyGUI-SDK/realgui/3rd/nanovg/agge/nanovg_agge.o
 .group         0x0000000000000000        0xc /home/wh/.HoneyGUI-SDK/realgui/3rd/nanovg/agge/nanovg_agge.o
 .group         0x0000000000000000        0xc /home/wh/.HoneyGUI-SDK/realgui/3rd/nanovg/agge/nanovg_agge.o
 .group         0x0000000000000000        0xc /home/wh/.HoneyGUI-SDK/realgui/3rd/nanovg/agge/nanovg_agge.o
 .group         0x0000000000000000        0xc /home/wh/.HoneyGUI-SDK/realgui/3rd/nanovg/agge/nanovg_agge.o
 .group         0x0000000000000000        0xc /home/wh/.HoneyGUI-SDK/realgui/3rd/nanovg/agge/nanovg_agge.o
 .group         0x0000000000000000        0xc /home/wh/.HoneyGUI-SDK/realgui/3rd/nanovg/agge/nanovg_agge.o
 .group         0x0000000000000000        0xc /home/wh/.HoneyGUI-SDK/realgui/3rd/nanovg/agge/nanovg_agge.o
 .group         0x0000000000000000        0xc /home/wh/.HoneyGUI-SDK/realgui/3rd/nanovg/agge/nanovg_agge.o
 .group         0x0000000000000000        0xc /home/wh/.HoneyGUI-SDK/realgui/3rd/nanovg/agge/nanovg_agge.o
 .group         0x0000000000000000        0x8 /home/wh/.HoneyGUI-SDK/realgui/3rd/nanovg/agge/nanovg_agge.o
 .group         0x0000000000000000        0xc /home/wh/.HoneyGUI-SDK/realgui/3rd/nanovg/agge/nanovg_agge.o
 .group         0x0000000000000000        0xc /home/wh/.HoneyGUI-SDK/realgui/3rd/nanovg/agge/nanovg_agge.o
 .group         0x0000000000000000        0xc /home/wh/.HoneyGUI-SDK/realgui/3rd/nanovg/agge/nanovg_agge.o
 .group         0x0000000000000000        0x8 /home/wh/.HoneyGUI-SDK/realgui/3rd/nanovg/agge/nanovg_agge.o
 .group         0x0000000000000000        0xc /home/wh/.HoneyGUI-SDK/realgui/3rd/nanovg/agge/nanovg_agge.o
 .group         0x0000000000000000        0xc /home/wh/.HoneyGUI-SDK/realgui/3rd/nanovg/agge/nanovg_agge.o
 .group         0x0000000000000000        0xc /home/wh/.HoneyGUI-SDK/realgui/3rd/nanovg/agge/nanovg_agge.o
 .group         0x0000000000000000        0xc /home/wh/.HoneyGUI-SDK/realgui/3rd/nanovg/agge/nanovg_agge.o
 .group         0x0000000000000000        0xc /home/wh/.HoneyGUI-SDK/realgui/3rd/nanovg/agge/nanovg_agge.o
 .group         0x0000000000000000        0xc /home/wh/.HoneyGUI-SDK/realgui/3rd/nanovg/agge/nanovg_agge.o
 .group         0x0000000000000000        0xc /home/wh/.HoneyGUI-SDK/realgui/3rd/nanovg/agge/nanovg_agge.o
 .group         0x0000000000000000        0xc /home/wh/.HoneyGUI-SDK/realgui/3rd/nanovg/agge/nanovg_agge.o
 .group         0x0000000000000000        0xc /home/wh/.HoneyGUI-SDK/realgui/3rd/nanovg/agge/nanovg_agge.o
 .group         0x0000000000000000        0x8 /home/wh/.HoneyGUI-SDK/realgui/3rd/nanovg/agge/nanovg_agge.o
 .group         0x0000000000000000        0xc /home/wh/.HoneyGUI-SDK/realgui/3rd/nanovg/agge/nanovg_agge.o
 .group         0x0000000000000000        0xc /home/wh/.HoneyGUI-SDK/realgui/3rd/nanovg/agge/nanovg_agge.o
 .group         0x0000000000000000        0xc /home/wh/.HoneyGUI-SDK/realgui/3rd/nanovg/agge/nanovg_agge.o
 .group         0x0000000000000000        0x8 /home/wh/.HoneyGUI-SDK/realgui/3rd/nanovg/agge/nanovg_agge.o
 .group         0x0000000000000000        0xc /home/wh/.HoneyGUI-SDK/realgui/3rd/nanovg/agge/nanovg_agge.o
 .group         0x0000000000000000        0x8 /home/wh/.HoneyGUI-SDK/realgui/3rd/nanovg/agge/nanovg_agge.o
 .group         0x0000000000000000        0x8 /home/wh/.HoneyGUI-SDK/realgui/3rd/nanovg/agge/nanovg_agge.o
 .group         0x0000000000000000        0xc /home/wh/.HoneyGUI-SDK/realgui/3rd/nanovg/agge/nanovg_agge.o
 .group         0x0000000000000000        0xc /home/wh/.HoneyGUI-SDK/realgui/3rd/nanovg/agge/nanovg_agge.o
 .group         0x0000000000000000        0xc /home/wh/.HoneyGUI-SDK/realgui/3rd/nanovg/agge/nanovg_agge.o
 .group         0x0000000000000000        0xc /home/wh/.HoneyGUI-SDK/realgui/3rd/nanovg/agge/nanovg_agge.o
 .group         0x0000000000000000        0xc /home/wh/.HoneyGUI-SDK/realgui/3rd/nanovg/agge/nanovg_agge.o
 .group         0x0000000000000000        0xc /home/wh/.HoneyGUI-SDK/realgui/3rd/nanovg/agge/nanovg_agge.o
 .group         0x0000000000000000        0xc /home/wh/.HoneyGUI-SDK/realgui/3rd/nanovg/agge/nanovg_agge.o
 .group         0x0000000000000000        0xc /home/wh/.HoneyGUI-SDK/realgui/3rd/nanovg/agge/nanovg_agge.o
 .group         0x0000000000000000        0xc /home/wh/.HoneyGUI-SDK/realgui/3rd/nanovg/agge/nanovg_agge.o
 .group         0x0000000000000000        0xc /home/wh/.HoneyGUI-SDK/realgui/3rd/nanovg/agge/nanovg_agge.o
 .group         0x0000000000000000        0xc /home/wh/.HoneyGUI-SDK/realgui/3rd/nanovg/agge/nanovg_agge.o
 .group         0x0000000000000000        0xc /home/wh/.HoneyGUI-SDK/realgui/3rd/nanovg/agge/nanovg_agge.o
 .group         0x0000000000000000        0xc /home/wh/.HoneyGUI-SDK/realgui/3rd/nanovg/agge/nanovg_agge.o
 .group         0x0000000000000000        0xc /home/wh/.HoneyGUI-SDK/realgui/3rd/nanovg/agge/nanovg_agge.o
 .group         0x0000000000000000        0xc /home/wh/.HoneyGUI-SDK/realgui/3rd/nanovg/agge/nanovg_agge.o
 .group         0x0000000000000000        0xc /home/wh/.HoneyGUI-SDK/realgui/3rd/nanovg/agge/nanovg_agge.o
 .group         0x0000000000000000        0xc /home/wh/.HoneyGUI-SDK/realgui/3rd/nanovg/agge/nanovg_agge.o
 .group         0x0000000000000000        0xc /home/wh/.HoneyGUI-SDK/realgui/3rd/nanovg/agge/nanovg_agge.o
 .group         0x0000000000000000        0xc /home/wh/.HoneyGUI-SDK/realgui/3rd/nanovg/agge/nanovg_agge.o
 .group         0x0000000000000000        0xc /home/wh/.HoneyGUI-SDK/realgui/3rd/nanovg/agge/nanovg_agge.o
 .group         0x0000000000000000        0xc /home/wh/.HoneyGUI-SDK/realgui/3rd/nanovg/agge/nanovg_agge.o
 .group         0x0000000000000000        0xc /home/wh/.HoneyGUI-SDK/realgui/3rd/nanovg/agge/nanovg_agge.o
 .group         0x0000000000000000        0xc /home/wh/.HoneyGUI-SDK/realgui/3rd/nanovg/agge/nanovg_agge.o
 .group         0x0000000000000000        0xc /home/wh/.HoneyGUI-SDK/realgui/3rd/nanovg/agge/nanovg_agge.o
 .group         0x0000000000000000        0xc /home/wh/.HoneyGUI-SDK/realgui/3rd/nanovg/agge/nanovg_agge.o
 .group         0x0000000000000000        0xc /home/wh/.HoneyGUI-SDK/realgui/3rd/nanovg/agge/nanovg_agge.o
 .group         0x0000000000000000        0xc /home/wh/.HoneyGUI-SDK/realgui/3rd/nanovg/agge/nanovg_agge.o
 .group         0x0000000000000000        0xc /home/wh/.HoneyGUI-SDK/realgui/3rd/nanovg/agge/nanovg_agge.o
 .group         0x0000000000000000        0xc /home/wh/.HoneyGUI-SDK/realgui/3rd/nanovg/agge/nanovg_agge.o
 .group         0x0000000000000000        0xc /home/wh/.HoneyGUI-SDK/realgui/3rd/nanovg/agge/nanovg_agge.o
 .group         0x0000000000000000        0xc /home/wh/.HoneyGUI-SDK/realgui/3rd/nanovg/agge/nanovg_agge.o
 .group         0x0000000000000000        0xc /home/wh/.HoneyGUI-SDK/realgui/3rd/nanovg/agge/nanovg_agge.o
 .group         0x0000000000000000        0xc /home/wh/.HoneyGUI-SDK/realgui/3rd/nanovg/agge/nanovg_agge.o
 .group         0x0000000000000000        0xc /home/wh/.HoneyGUI-SDK/realgui/3rd/nanovg/agge/nanovg_agge.o
 .group         0x0000000000000000        0xc /home/wh/.HoneyGUI-SDK/realgui/3rd/nanovg/agge/nanovg_agge.o
 .group         0x0000000000000000        0xc /home/wh/.HoneyGUI-SDK/realgui/3rd/nanovg/agge/nanovg_agge.o
 .group         0x0000000000000000        0xc /home/wh/.HoneyGUI-SDK/realgui/3rd/nanovg/agge/nanovg_agge.o
 .group         0x0000000000000000        0xc /home/wh/.HoneyGUI-SDK/realgui/3rd/nanovg/agge/nanovg_agge.o
 .group         0x0000000000000000        0xc /home/wh/.HoneyGUI-SDK/realgui/3rd/nanovg/agge/nanovg_agge.o
 .group         0x0000000000000000        0xc /home/wh/.HoneyGUI-SDK/realgui/3rd/nanovg/agge/nanovg_agge.o
 .group         0x0000000000000000        0xc /home/wh/.HoneyGUI-SDK/realgui/3rd/nanovg/agge/nanovg_agge.o
 .group         0x0000000000000000        0xc /home/wh/.HoneyGUI-SDK/realgui/3rd/nanovg/agge/nanovg_agge.o
 .group         0x0000000000000000        0xc /home/wh/.HoneyGUI-SDK/realgui/3rd/nanovg/agge/nanovg_agge.o
 .group         0x0000000000000000        0xc /home/wh/.HoneyGUI-SDK/realgui/3rd/nanovg/agge/nanovg_agge.o
 .group         0x0000000000000000        0xc /home/wh/.HoneyGUI-SDK/realgui/3rd/nanovg/agge/nanovg_agge.o
 .group         0x0000000000000000        0xc /home/wh/.HoneyGUI-SDK/realgui/3rd/nanovg/agge/nanovg_agge.o
 .group         0x0000000000000000        0xc /home/wh/.HoneyGUI-SDK/realgui/3rd/nanovg/agge/nanovg_agge.o
 .group         0x0000000000000000        0xc /home/wh/.HoneyGUI-SDK/realgui/3rd/nanovg/agge/nanovg_agge.o
 .group         0x0000000000000000        0xc /home/wh/.HoneyGUI-SDK/realgui/3rd/nanovg/agge/nanovg_agge.o
 .group         0x0000000000000000        0xc /home/wh/.HoneyGUI-SDK/realgui/3rd/nanovg/agge/nanovg_agge.o
 .group         0x0000000000000000        0xc /home/wh/.HoneyGUI-SDK/realgui/3rd/nanovg/agge/nanovg_agge.o
 .group         0x0000000000000000        0xc /home/wh/.HoneyGUI-SDK/realgui/3rd/nanovg/agge/nanovg_agge.o
 .group         0x0000000000000000        0xc /home/wh/.HoneyGUI-SDK/realgui/3rd/nanovg/agge/nanovg_agge.o
 .group         0x0000000000000000        0xc /home/wh/.HoneyGUI-SDK/realgui/3rd/nanovg/agge/nanovg_agge.o
 .group         0x0000000000000000        0xc /home/wh/.HoneyGUI-SDK/realgui/3rd/nanovg/agge/nanovg_agge.o
 .group         0x0000000000000000        0xc /home/wh/.HoneyGUI-SDK/realgui/3rd/nanovg/agge/nanovg_agge.o
 .group         0x0000000000000000        0xc /home/wh/.HoneyGUI-SDK/realgui/3rd/nanovg/agge/nanovg_agge.o
 .group         0x0000000000000000        0xc /home/wh/.HoneyGUI-SDK/realgui/3rd/nanovg/agge/nanovg_agge.o
 .group         0x0000000000000000        0xc /home/wh/.HoneyGUI-SDK/realgui/3rd/nanovg/agge/nanovg_agge.o
 .group         0x0000000000000000        0xc /home/wh/.HoneyGUI-SDK/realgui/3rd/nanovg/agge/nanovg_agge.o
 .group         0x0000000000000000        0xc /home/wh/.HoneyGUI-SDK/realgui/3rd/nanovg/agge/nanovg_agge.o
 .group         0x0000000000000000        0xc /home/wh/.HoneyGUI-SDK/realgui/3rd/nanovg/agge/nanovg_agge.o
 .group         0x0000000000000000        0xc /home/wh/.HoneyGUI-SDK/realgui/3rd/nanovg/agge/nanovg_agge.o
 .group         0x0000000000000000        0xc /home/wh/.HoneyGUI-SDK/realgui/3rd/nanovg/agge/nanovg_agge.o
 .group         0x0000000000000000        0xc /home/wh/.HoneyGUI-SDK/realgui/3rd/nanovg/agge/nanovg_agge.o
 .group         0x0000000000000000        0xc /home/wh/.HoneyGUI-SDK/realgui/3rd/nanovg/agge/nanovg_agge.o
 .group         0x0000000000000000        0xc /home/wh/.HoneyGUI-SDK/realgui/3rd/nanovg/agge/nanovg_agge.o
 .group         0x0000000000000000        0xc /home/wh/.HoneyGUI-SDK/realgui/3rd/nanovg/agge/nanovg_agge.o
 .group         0x0000000000000000        0xc /home/wh/.HoneyGUI-SDK/realgui/3rd/nanovg/agge/nanovg_agge.o
 .group         0x0000000000000000        0xc /home/wh/.HoneyGUI-SDK/realgui/3rd/nanovg/agge/nanovg_agge.o
 .group         0x0000000000000000        0xc /home/wh/.HoneyGUI-SDK/realgui/3rd/nanovg/agge/nanovg_agge.o
 .group         0x0000000000000000        0xc /home/wh/.HoneyGUI-SDK/realgui/3rd/nanovg/agge/nanovg_agge.o
 .group         0x0000000000000000        0x8 /home/wh/.HoneyGUI-SDK/realgui/3rd/nanovg/agge/nanovg_agge.o
 .group         0x0000000000000000        0x8 /home/wh/.HoneyGUI-SDK/realgui/3rd/nanovg/agge/nanovg_agge.o
 .group         0x0000000000000000        0xc /home/wh/.HoneyGUI-SDK/realgui/3rd/nanovg/agge/nanovg_agge.o
 .group         0x0000000000000000        0xc /home/wh/.HoneyGUI-SDK/realgui/3rd/nanovg/agge/nanovg_agge.o
 .group         0x0000000000000000        0xc /home/wh/.HoneyGUI-SDK/realgui/3rd/nanovg/agge/nanovg_agge.o
 .group         0x0000000000000000        0xc /home/wh/.HoneyGUI-SDK/realgui/3rd/nanovg/agge/nanovg_agge.o
 .group         0x0000000000000000        0xc /home/wh/.HoneyGUI-SDK/realgui/3rd/nanovg/agge/nanovg_agge.o
 .group         0x0000000000000000        0xc /home/wh/.HoneyGUI-SDK/realgui/3rd/nanovg/agge/nanovg_agge.o
 .group         0x0000000000000000        0xc /home/wh/.HoneyGUI-SDK/realgui/3rd/nanovg/agge/nanovg_agge.o
 .group         0x0000000000000000        0xc /home/wh/.HoneyGUI-SDK/realgui/3rd/nanovg/agge/nanovg_agge.o
 .group         0x0000000000000000        0xc /home/wh/.HoneyGUI-SDK/realgui/3rd/nanovg/agge/nanovg_agge.o
 .group         0x0000000000000000        0xc /home/wh/.HoneyGUI-SDK/realgui/3rd/nanovg/agge/nanovg_agge.o
 .group         0x0000000000000000        0xc /home/wh/.HoneyGUI-SDK/realgui/3rd/nanovg/agge/nanovg_agge.o
 .group         0x0000000000000000        0xc /home/wh/.HoneyGUI-SDK/realgui/3rd/nanovg/agge/nanovg_agge.o
 .group         0x0000000000000000        0xc /home/wh/.HoneyGUI-SDK/realgui/3rd/nanovg/agge/nanovg_agge.o
 .group         0x0000000000000000        0xc /home/wh/.HoneyGUI-SDK/realgui/3rd/nanovg/agge/nanovg_agge.o
 .group         0x0000000000000000        0xc /home/wh/.HoneyGUI-SDK/realgui/3rd/nanovg/agge/nanovg_agge.o
 .group         0x0000000000000000        0xc /home/wh/.HoneyGUI-SDK/realgui/3rd/nanovg/agge/nanovg_agge.o
 .group         0x0000000000000000        0xc /home/wh/.HoneyGUI-SDK/realgui/3rd/nanovg/agge/nanovg_agge.o
 .group         0x0000000000000000        0xc /home/wh/.HoneyGUI-SDK/realgui/3rd/nanovg/agge/nanovg_agge.o
 .group         0x0000000000000000        0xc /home/wh/.HoneyGUI-SDK/realgui/3rd/nanovg/agge/nanovg_agge.o
 .group         0x0000000000000000        0xc /home/wh/.HoneyGUI-SDK/realgui/3rd/nanovg/agge/nanovg_agge.o
 .group         0x0000000000000000        0xc /home/wh/.HoneyGUI-SDK/realgui/3rd/nanovg/agge/nanovg_agge.o
 .group         0x0000000000000000        0xc /home/wh/.HoneyGUI-SDK/realgui/3rd/nanovg/agge/nanovg_agge.o
 .group         0x0000000000000000        0xc /home/wh/.HoneyGUI-SDK/realgui/3rd/nanovg/agge/nanovg_agge.o
 .group         0x0000000000000000        0xc /home/wh/.HoneyGUI-SDK/realgui/3rd/nanovg/agge/nanovg_agge.o
 .group         0x0000000000000000        0xc /home/wh/.HoneyGUI-SDK/realgui/3rd/nanovg/agge/nanovg_agge.o
 .group         0x0000000000000000        0xc /home/wh/.HoneyGUI-SDK/realgui/3rd/nanovg/agge/nanovg_agge.o
 .group         0x0000000000000000        0xc /home/wh/.HoneyGUI-SDK/realgui/3rd/nanovg/agge/nanovg_agge.o
 .group         0x0000000000000000        0xc /home/wh/.HoneyGUI-SDK/realgui/3rd/nanovg/agge/nanovg_agge.o
 .group         0x0000000000000000        0xc /home/wh/.HoneyGUI-SDK/realgui/3rd/nanovg/agge/nanovg_agge.o
 .group         0x0000000000000000        0xc /home/wh/.HoneyGUI-SDK/realgui/3rd/nanovg/agge/nanovg_agge.o
 .group         0x0000000000000000        0xc /home/wh/.HoneyGUI-SDK/realgui/3rd/nanovg/agge/nanovg_agge.o
 .group         0x0000000000000000        0xc /home/wh/.HoneyGUI-SDK/realgui/3rd/nanovg/agge/nanovg_agge.o
 .group         0x0000000000000000        0xc /home/wh/.HoneyGUI-SDK/realgui/3rd/nanovg/agge/nanovg_agge.o
 .group         0x0000000000000000        0xc /home/wh/.HoneyGUI-SDK/realgui/3rd/nanovg/agge/nanovg_agge.o
 .group         0x0000000000000000        0xc /home/wh/.HoneyGUI-SDK/realgui/3rd/nanovg/agge/nanovg_agge.o
 .group         0x0000000000000000        0xc /home/wh/.HoneyGUI-SDK/realgui/3rd/nanovg/agge/nanovg_agge.o
 .group         0x0000000000000000        0x8 /home/wh/.HoneyGUI-SDK/realgui/3rd/nanovg/agge/nanovg_agge.o
 .group         0x0000000000000000        0xc /home/wh/.HoneyGUI-SDK/realgui/3rd/nanovg/agge/nanovg_agge.o
 .group         0x0000000000000000        0x8 /home/wh/.HoneyGUI-SDK/realgui/3rd/nanovg/agge/nanovg_agge.o
 .group         0x0000000000000000        0xc /home/wh/.HoneyGUI-SDK/realgui/3rd/nanovg/agge/nanovg_agge.o
 .group         0x0000000000000000        0xc /home/wh/.HoneyGUI-SDK/realgui/3rd/nanovg/agge/nanovg_agge.o
 .group         0x0000000000000000        0xc /home/wh/.HoneyGUI-SDK/realgui/3rd/nanovg/agge/nanovg_agge.o
 .group         0x0000000000000000        0xc /home/wh/.HoneyGUI-SDK/realgui/3rd/nanovg/agge/nanovg_agge.o
 .group         0x0000000000000000        0xc /home/wh/.HoneyGUI-SDK/realgui/3rd/nanovg/agge/nanovg_agge.o
 .group         0x0000000000000000        0xc /home/wh/.HoneyGUI-SDK/realgui/3rd/nanovg/agge/nanovg_agge.o
 .group         0x0000000000000000        0xc /home/wh/.HoneyGUI-SDK/realgui/3rd/nanovg/agge/nanovg_agge.o
 .group         0x0000000000000000        0xc /home/wh/.HoneyGUI-SDK/realgui/3rd/nanovg/agge/nanovg_agge.o
 .group         0x0000000000000000        0xc /home/wh/.HoneyGUI-SDK/realgui/3rd/nanovg/agge/nanovg_agge.o
 .group         0x0000000000000000        0xc /home/wh/.HoneyGUI-SDK/realgui/3rd/nanovg/agge/nanovg_agge.o
 .group         0x0000000000000000        0xc /home/wh/.HoneyGUI-SDK/realgui/3rd/nanovg/agge/nanovg_agge.o
 .group         0x0000000000000000        0xc /home/wh/.HoneyGUI-SDK/realgui/3rd/nanovg/agge/nanovg_agge.o
 .group         0x0000000000000000        0xc /home/wh/.HoneyGUI-SDK/realgui/3rd/nanovg/agge/nanovg_agge.o
 .group         0x0000000000000000        0xc /home/wh/.HoneyGUI-SDK/realgui/3rd/nanovg/agge/nanovg_agge.o
 .group         0x0000000000000000        0xc /home/wh/.HoneyGUI-SDK/realgui/3rd/nanovg/agge/nanovg_agge.o
 .group         0x0000000000000000        0xc /home/wh/.HoneyGUI-SDK/realgui/3rd/nanovg/agge/nanovg_agge.o
 .group         0x0000000000000000        0xc /home/wh/.HoneyGUI-SDK/realgui/3rd/nanovg/agge/nanovg_agge.o
 .group         0x0000000000000000        0xc /home/wh/.HoneyGUI-SDK/realgui/3rd/nanovg/agge/nanovg_agge.o
 .group         0x0000000000000000        0xc /home/wh/.HoneyGUI-SDK/realgui/3rd/nanovg/agge/nanovg_agge.o
 .group         0x0000000000000000        0xc /home/wh/.HoneyGUI-SDK/realgui/3rd/nanovg/agge/nanovg_agge.o
 .group         0x0000000000000000        0xc /home/wh/.HoneyGUI-SDK/realgui/3rd/nanovg/agge/nanovg_agge.o
 .group         0x0000000000000000        0xc /home/wh/.HoneyGUI-SDK/realgui/3rd/nanovg/agge/nanovg_agge.o
 .group         0x0000000000000000        0xc /home/wh/.HoneyGUI-SDK/realgui/3rd/nanovg/agge/nanovg_agge.o
 .group         0x0000000000000000        0xc /home/wh/.HoneyGUI-SDK/realgui/3rd/nanovg/agge/nanovg_agge.o
 .group         0x0000000000000000        0xc /home/wh/.HoneyGUI-SDK/realgui/3rd/nanovg/agge/nanovg_agge.o
 .group         0x0000000000000000        0xc /home/wh/.HoneyGUI-SDK/realgui/3rd/nanovg/agge/nanovg_agge.o
 .group         0x0000000000000000        0xc /home/wh/.HoneyGUI-SDK/realgui/3rd/nanovg/agge/nanovg_agge.o
 .group         0x0000000000000000        0xc /home/wh/.HoneyGUI-SDK/realgui/3rd/nanovg/agge/nanovg_agge.o
 .group         0x0000000000000000        0xc /home/wh/.HoneyGUI-SDK/realgui/3rd/nanovg/agge/nanovg_agge.o
 .group         0x0000000000000000        0xc /home/wh/.HoneyGUI-SDK/realgui/3rd/nanovg/agge/nanovg_agge.o
 .group         0x0000000000000000        0xc /home/wh/.HoneyGUI-SDK/realgui/3rd/nanovg/agge/nanovg_agge.o
 .group         0x0000000000000000        0xc /home/wh/.HoneyGUI-SDK/realgui/3rd/nanovg/agge/nanovg_agge.o
 .group         0x0000000000000000        0xc /home/wh/.HoneyGUI-SDK/realgui/3rd/nanovg/agge/nanovg_agge.o
 .group         0x0000000000000000        0xc /home/wh/.HoneyGUI-SDK/realgui/3rd/nanovg/agge/nanovg_agge.o
 .group         0x0000000000000000        0xc /home/wh/.HoneyGUI-SDK/realgui/3rd/nanovg/agge/nanovg_agge.o
 .group         0x0000000000000000        0xc /home/wh/.HoneyGUI-SDK/realgui/3rd/nanovg/agge/nanovg_agge.o
 .group         0x0000000000000000        0xc /home/wh/.HoneyGUI-SDK/realgui/3rd/nanovg/agge/nanovg_agge.o
 .group         0x0000000000000000        0xc /home/wh/.HoneyGUI-SDK/realgui/3rd/nanovg/agge/nanovg_agge.o
 .group         0x0000000000000000        0xc /home/wh/.HoneyGUI-SDK/realgui/3rd/nanovg/agge/nanovg_agge.o
 .group         0x0000000000000000        0xc /home/wh/.HoneyGUI-SDK/realgui/3rd/nanovg/agge/nanovg_agge.o
 .group         0x0000000000000000        0xc /home/wh/.HoneyGUI-SDK/realgui/3rd/nanovg/agge/nanovg_agge.o
 .group         0x0000000000000000        0xc /home/wh/.HoneyGUI-SDK/realgui/3rd/nanovg/agge/nanovg_agge.o
 .group         0x0000000000000000        0xc /home/wh/.HoneyGUI-SDK/realgui/3rd/nanovg/agge/nanovg_agge.o
 .group         0x0000000000000000        0xc /home/wh/.HoneyGUI-SDK/realgui/3rd/nanovg/agge/nanovg_agge.o
 .group         0x0000000000000000        0xc /home/wh/.HoneyGUI-SDK/realgui/3rd/nanovg/agge/nanovg_agge.o
 .group         0x0000000000000000        0xc /home/wh/.HoneyGUI-SDK/realgui/3rd/nanovg/agge/nanovg_agge.o
 .group         0x0000000000000000        0xc /home/wh/.HoneyGUI-SDK/realgui/3rd/nanovg/agge/nanovg_agge.o
 .group         0x0000000000000000        0xc /home/wh/.HoneyGUI-SDK/realgui/3rd/nanovg/agge/nanovg_agge.o
 .group         0x0000000000000000        0xc /home/wh/.HoneyGUI-SDK/realgui/3rd/nanovg/agge/nanovg_agge.o
 .group         0x0000000000000000        0xc /home/wh/.HoneyGUI-SDK/realgui/3rd/nanovg/agge/nanovg_agge.o
 .group         0x0000000000000000        0xc /home/wh/.HoneyGUI-SDK/realgui/3rd/nanovg/agge/nanovg_agge.o
 .group         0x0000000000000000        0xc /home/wh/.HoneyGUI-SDK/realgui/3rd/nanovg/agge/nanovg_agge.o
 .group         0x0000000000000000        0xc /home/wh/.HoneyGUI-SDK/realgui/3rd/nanovg/agge/nanovg_agge.o
 .group         0x0000000000000000        0xc /home/wh/.HoneyGUI-SDK/realgui/3rd/nanovg/agge/nanovg_agge.o
 .group         0x0000000000000000        0xc /home/wh/.HoneyGUI-SDK/realgui/3rd/nanovg/agge/nanovg_agge.o
 .group         0x0000000000000000        0xc /home/wh/.HoneyGUI-SDK/realgui/3rd/nanovg/agge/nanovg_agge.o
 .group         0x0000000000000000        0xc /home/wh/.HoneyGUI-SDK/realgui/3rd/nanovg/agge/nanovg_agge.o
 .group         0x0000000000000000        0xc /home/wh/.HoneyGUI-SDK/realgui/3rd/nanovg/agge/nanovg_agge.o
 .group         0x0000000000000000        0xc /home/wh/.HoneyGUI-SDK/realgui/3rd/nanovg/agge/nanovg_agge.o
 .group         0x0000000000000000        0xc /home/wh/.HoneyGUI-SDK/realgui/3rd/nanovg/agge/nanovg_agge.o
 .group         0x0000000000000000        0xc /home/wh/.HoneyGUI-SDK/realgui/3rd/nanovg/agge/nanovg_agge.o
 .group         0x0000000000000000        0xc /home/wh/.HoneyGUI-SDK/realgui/3rd/nanovg/agge/nanovg_agge.o
 .group         0x0000000000000000        0xc /home/wh/.HoneyGUI-SDK/realgui/3rd/nanovg/agge/nanovg_agge.o
 .group         0x0000000000000000        0xc /home/wh/.HoneyGUI-SDK/realgui/3rd/nanovg/agge/nanovg_agge.o
 .group         0x0000000000000000        0xc /home/wh/.HoneyGUI-SDK/realgui/3rd/nanovg/agge/nanovg_agge.o
 .group         0x0000000000000000        0xc /home/wh/.HoneyGUI-SDK/realgui/3rd/nanovg/agge/nanovg_agge.o
 .group         0x0000000000000000        0xc /home/wh/.HoneyGUI-SDK/realgui/3rd/nanovg/agge/nanovg_agge.o
 .group         0x0000000000000000        0xc /home/wh/.HoneyGUI-SDK/realgui/3rd/nanovg/agge/nanovg_agge.o
 .group         0x0000000000000000        0xc /home/wh/.HoneyGUI-SDK/realgui/3rd/nanovg/agge/nanovg_agge.o
 .group         0x0000000000000000        0xc /home/wh/.HoneyGUI-SDK/realgui/3rd/nanovg/agge/nanovg_agge.o
 .group         0x0000000000000000        0xc /home/wh/.HoneyGUI-SDK/realgui/3rd/nanovg/agge/nanovg_agge.o
 .group         0x0000000000000000        0xc /home/wh/.HoneyGUI-SDK/realgui/3rd/nanovg/agge/nanovg_agge.o
 .group         0x0000000000000000        0xc /home/wh/.HoneyGUI-SDK/realgui/3rd/nanovg/agge/nanovg_agge.o
 .group         0x0000000000000000        0xc /home/wh/.HoneyGUI-SDK/realgui/3rd/nanovg/agge/nanovg_agge.o
 .group         0x0000000000000000        0xc /home/wh/.HoneyGUI-SDK/realgui/3rd/nanovg/agge/nanovg_agge.o
 .group         0x0000000000000000        0xc /home/wh/.HoneyGUI-SDK/realgui/3rd/nanovg/agge/nanovg_agge.o
 .group         0x0000000000000000        0xc /home/wh/.HoneyGUI-SDK/realgui/3rd/nanovg/agge/nanovg_agge.o
 .group         0x0000000000000000        0xc /home/wh/.HoneyGUI-SDK/realgui/3rd/nanovg/agge/nanovg_agge.o
 .group         0x0000000000000000        0xc /home/wh/.HoneyGUI-SDK/realgui/3rd/nanovg/agge/nanovg_agge.o
 .group         0x0000000000000000        0xc /home/wh/.HoneyGUI-SDK/realgui/3rd/nanovg/agge/nanovg_agge.o
 .group         0x0000000000000000        0xc /home/wh/.HoneyGUI-SDK/realgui/3rd/nanovg/agge/nanovg_agge.o
 .group         0x0000000000000000        0xc /home/wh/.HoneyGUI-SDK/realgui/3rd/nanovg/agge/nanovg_agge.o
 .group         0x0000000000000000        0xc /home/wh/.HoneyGUI-SDK/realgui/3rd/nanovg/agge/nanovg_agge.o
 .group         0x0000000000000000        0xc /home/wh/.HoneyGUI-SDK/realgui/3rd/nanovg/agge/nanovg_agge.o
 .group         0x0000000000000000        0xc /home/wh/.HoneyGUI-SDK/realgui/3rd/nanovg/agge/nanovg_agge.o
 .group         0x0000000000000000        0xc /home/wh/.HoneyGUI-SDK/realgui/3rd/nanovg/agge/nanovg_agge.o
 .group         0x0000000000000000        0xc /home/wh/.HoneyGUI-SDK/realgui/3rd/nanovg/agge/nanovg_agge.o
 .group         0x0000000000000000        0xc /home/wh/.HoneyGUI-SDK/realgui/3rd/nanovg/agge/nanovg_agge.o
 .group         0x0000000000000000        0xc /home/wh/.HoneyGUI-SDK/realgui/3rd/nanovg/agge/nanovg_agge.o
 .group         0x0000000000000000        0xc /home/wh/.HoneyGUI-SDK/realgui/3rd/nanovg/agge/nanovg_agge.o
 .group         0x0000000000000000        0xc /home/wh/.HoneyGUI-SDK/realgui/3rd/nanovg/agge/nanovg_agge.o
 .group         0x0000000000000000        0xc /home/wh/.HoneyGUI-SDK/realgui/3rd/nanovg/agge/nanovg_agge.o
 .group         0x0000000000000000        0xc /home/wh/.HoneyGUI-SDK/realgui/3rd/nanovg/agge/nanovg_agge.o
 .group         0x0000000000000000        0xc /home/wh/.HoneyGUI-SDK/realgui/3rd/nanovg/agge/nanovg_agge.o
 .group         0x0000000000000000        0xc /home/wh/.HoneyGUI-SDK/realgui/3rd/nanovg/agge/nanovg_agge.o
 .group         0x0000000000000000        0xc /home/wh/.HoneyGUI-SDK/realgui/3rd/nanovg/agge/nanovg_agge.o
 .group         0x0000000000000000        0xc /home/wh/.HoneyGUI-SDK/realgui/3rd/nanovg/agge/nanovg_agge.o
 .group         0x0000000000000000        0xc /home/wh/.HoneyGUI-SDK/realgui/3rd/nanovg/agge/nanovg_agge.o
 .group         0x0000000000000000        0xc /home/wh/.HoneyGUI-SDK/realgui/3rd/nanovg/agge/nanovg_agge.o
 .group         0x0000000000000000        0xc /home/wh/.HoneyGUI-SDK/realgui/3rd/nanovg/agge/nanovg_agge.o
 .group         0x0000000000000000        0xc /home/wh/.HoneyGUI-SDK/realgui/3rd/nanovg/agge/nanovg_agge.o
 .group         0x0000000000000000        0xc /home/wh/.HoneyGUI-SDK/realgui/3rd/nanovg/agge/nanovg_agge.o
 .group         0x0000000000000000        0xc /home/wh/.HoneyGUI-SDK/realgui/3rd/nanovg/agge/nanovg_agge.o
 .group         0x0000000000000000        0xc /home/wh/.HoneyGUI-SDK/realgui/3rd/nanovg/agge/nanovg_agge.o
 .group         0x0000000000000000        0xc /home/wh/.HoneyGUI-SDK/realgui/3rd/nanovg/agge/nanovg_agge.o
 .group         0x0000000000000000        0xc /home/wh/.HoneyGUI-SDK/realgui/3rd/nanovg/agge/nanovg_agge.o
 .group         0x0000000000000000        0xc /home/wh/.HoneyGUI-SDK/realgui/3rd/nanovg/agge/nanovg_agge.o
 .group         0x0000000000000000        0xc /home/wh/.HoneyGUI-SDK/realgui/3rd/nanovg/agge/nanovg_agge.o
 .group         0x0000000000000000        0xc /home/wh/.HoneyGUI-SDK/realgui/3rd/nanovg/agge/nanovg_agge.o
 .group         0x0000000000000000        0xc /home/wh/.HoneyGUI-SDK/realgui/3rd/nanovg/agge/nanovg_agge.o
 .group         0x0000000000000000        0x8 /home/wh/.HoneyGUI-SDK/realgui/3rd/nanovg/agge/nanovg_agge.o
 .group         0x0000000000000000        0xc /home/wh/.HoneyGUI-SDK/realgui/3rd/nanovg/agge/nanovg_agge.o
 .group         0x0000000000000000        0xc /home/wh/.HoneyGUI-SDK/realgui/3rd/nanovg/agge/nanovg_agge.o
 .group         0x0000000000000000        0xc /home/wh/.HoneyGUI-SDK/realgui/3rd/nanovg/agge/nanovg_agge.o
 .group         0x0000000000000000        0xc /home/wh/.HoneyGUI-SDK/realgui/3rd/nanovg/agge/nanovg_agge.o
 .group         0x0000000000000000        0xc /home/wh/.HoneyGUI-SDK/realgui/3rd/nanovg/agge/nanovg_agge.o
 .group         0x0000000000000000        0xc /home/wh/.HoneyGUI-SDK/realgui/3rd/nanovg/agge/nanovg_agge.o
 .group         0x0000000000000000        0xc /home/wh/.HoneyGUI-SDK/realgui/3rd/nanovg/agge/nanovg_agge.o
 .group         0x0000000000000000        0xc /home/wh/.HoneyGUI-SDK/realgui/3rd/nanovg/agge/nanovg_agge.o
 .group         0x0000000000000000        0xc /home/wh/.HoneyGUI-SDK/realgui/3rd/nanovg/agge/nanovg_agge.o
 .group         0x0000000000000000        0xc /home/wh/.HoneyGUI-SDK/realgui/3rd/nanovg/agge/nanovg_agge.o
 .group         0x0000000000000000        0xc /home/wh/.HoneyGUI-SDK/realgui/3rd/nanovg/agge/nanovg_agge.o
 .group         0x0000000000000000        0xc /home/wh/.HoneyGUI-SDK/realgui/3rd/nanovg/agge/nanovg_agge.o
 .group         0x0000000000000000        0x8 /home/wh/.HoneyGUI-SDK/realgui/3rd/nanovg/agge/nanovg_agge.o
 .group         0x0000000000000000        0xc /home/wh/.HoneyGUI-SDK/realgui/3rd/nanovg/agge/nanovg_agge.o
 .group         0x0000000000000000        0xc /home/wh/.HoneyGUI-SDK/realgui/3rd/nanovg/agge/nanovg_agge.o
 .group         0x0000000000000000        0xc /home/wh/.HoneyGUI-SDK/realgui/3rd/nanovg/agge/nanovg_agge.o
 .group         0x0000000000000000        0xc /home/wh/.HoneyGUI-SDK/realgui/3rd/nanovg/agge/nanovg_agge.o
 .group         0x0000000000000000        0xc /home/wh/.HoneyGUI-SDK/realgui/3rd/nanovg/agge/nanovg_agge.o
 .group         0x0000000000000000        0xc /home/wh/.HoneyGUI-SDK/realgui/3rd/nanovg/agge/nanovg_agge.o
 .group         0x0000000000000000        0x8 /home/wh/.HoneyGUI-SDK/realgui/3rd/nanovg/agge/nanovg_agge.o
 .group         0x0000000000000000        0xc /home/wh/.HoneyGUI-SDK/realgui/3rd/nanovg/agge/nanovg_agge.o
 .group         0x0000000000000000        0xc /home/wh/.HoneyGUI-SDK/realgui/3rd/nanovg/agge/nanovg_agge.o
 .group         0x0000000000000000        0xc /home/wh/.HoneyGUI-SDK/realgui/3rd/nanovg/agge/nanovg_agge.o
 .group         0x0000000000000000        0xc /home/wh/.HoneyGUI-SDK/realgui/3rd/nanovg/agge/nanovg_agge.o
 .group         0x0000000000000000        0xc /home/wh/.HoneyGUI-SDK/realgui/3rd/nanovg/agge/nanovg_agge.o
 .group         0x0000000000000000        0xc /home/wh/.HoneyGUI-SDK/realgui/3rd/nanovg/agge/nanovg_agge.o
 .group         0x0000000000000000        0xc /home/wh/.HoneyGUI-SDK/realgui/3rd/nanovg/agge/nanovg_agge.o
 .group         0x0000000000000000        0xc /home/wh/.HoneyGUI-SDK/realgui/3rd/nanovg/agge/nanovg_agge.o
 .group         0x0000000000000000        0xc /home/wh/.HoneyGUI-SDK/realgui/3rd/nanovg/agge/nanovg_agge.o
 .group         0x0000000000000000        0xc /home/wh/.HoneyGUI-SDK/realgui/3rd/nanovg/agge/nanovg_agge.o
 .group         0x0000000000000000        0xc /home/wh/.HoneyGUI-SDK/realgui/3rd/nanovg/agge/nanovg_agge.o
 .group         0x0000000000000000        0xc /home/wh/.HoneyGUI-SDK/realgui/3rd/nanovg/agge/nanovg_agge.o
 .group         0x0000000000000000        0x8 /home/wh/.HoneyGUI-SDK/realgui/3rd/nanovg/agge/nanovg_agge.o
 .group         0x0000000000000000        0xc /home/wh/.HoneyGUI-SDK/realgui/3rd/nanovg/agge/nanovg_agge.o
 .group         0x0000000000000000        0xc /home/wh/.HoneyGUI-SDK/realgui/3rd/nanovg/agge/nanovg_agge.o
 .group         0x0000000000000000        0xc /home/wh/.HoneyGUI-SDK/realgui/3rd/nanovg/agge/nanovg_agge.o
 .group         0x0000000000000000        0xc /home/wh/.HoneyGUI-SDK/realgui/3rd/nanovg/agge/nanovg_agge.o
 .group         0x0000000000000000        0xc /home/wh/.HoneyGUI-SDK/realgui/3rd/nanovg/agge/nanovg_agge.o
 .group         0x0000000000000000        0xc /home/wh/.HoneyGUI-SDK/realgui/3rd/nanovg/agge/nanovg_agge.o
 .group         0x0000000000000000        0xc /home/wh/.HoneyGUI-SDK/realgui/3rd/nanovg/agge/nanovg_agge.o
 .group         0x0000000000000000        0xc /home/wh/.HoneyGUI-SDK/realgui/3rd/nanovg/agge/nanovg_agge.o
 .group         0x0000000000000000        0xc /home/wh/.HoneyGUI-SDK/realgui/3rd/nanovg/agge/nanovg_agge.o
 .group         0x0000000000000000        0xc /home/wh/.HoneyGUI-SDK/realgui/3rd/nanovg/agge/nanovg_agge.o
 .group         0x0000000000000000        0xc /home/wh/.HoneyGUI-SDK/realgui/3rd/nanovg/agge/nanovg_agge.o
 .group         0x0000000000000000        0xc /home/wh/.HoneyGUI-SDK/realgui/3rd/nanovg/agge/nanovg_agge.o
 .group         0x0000000000000000        0xc /home/wh/.HoneyGUI-SDK/realgui/3rd/nanovg/agge/nanovg_agge.o
 .group         0x0000000000000000        0x8 /home/wh/.HoneyGUI-SDK/realgui/3rd/nanovg/agge/nanovg_agge.o
 .group         0x0000000000000000        0xc /home/wh/.HoneyGUI-SDK/realgui/3rd/nanovg/agge/nanovg_agge.o
 .group         0x0000000000000000        0x8 /home/wh/.HoneyGUI-SDK/realgui/3rd/nanovg/agge/nanovg_agge.o
 .group         0x0000000000000000       0x14 /home/wh/.HoneyGUI-SDK/realgui/3rd/nanovg/agge/nanovg_agge.o
 .group         0x0000000000000000       0x14 /home/wh/.HoneyGUI-SDK/realgui/3rd/nanovg/agge/nanovg_agge.o
 .group         0x0000000000000000       0x14 /home/wh/.HoneyGUI-SDK/realgui/3rd/nanovg/agge/nanovg_agge.o
 .group         0x0000000000000000       0x14 /home/wh/.HoneyGUI-SDK/realgui/3rd/nanovg/agge/nanovg_agge.o
 .group         0x0000000000000000        0xc /home/wh/.HoneyGUI-SDK/realgui/3rd/nanovg/agge/nanovg_agge.o
 .text._ZN4agge11noncopyableC2Ev
                0x0000000000000000        0xf /home/wh/.HoneyGUI-SDK/realgui/3rd/nanovg/agge/nanovg_agge.o
 .text._ZN4agge8is_closeEi
                0x0000000000000000       0x18 /home/wh/.HoneyGUI-SDK/realgui/3rd/nanovg/agge/nanovg_agge.o
 .text._ZN4agge6stroke3capD2Ev
                0x0000000000000000       0x1d /home/wh/.HoneyGUI-SDK/realgui/3rd/nanovg/agge/nanovg_agge.o
 .text._ZN4agge6stroke3capD0Ev
                0x0000000000000000       0x2a /home/wh/.HoneyGUI-SDK/realgui/3rd/nanovg/agge/nanovg_agge.o
 .text._ZN4agge6stroke4joinD2Ev
                0x0000000000000000       0x1d /home/wh/.HoneyGUI-SDK/realgui/3rd/nanovg/agge/nanovg_agge.o
 .text._ZN4agge6stroke4joinD0Ev
                0x0000000000000000       0x2a /home/wh/.HoneyGUI-SDK/realgui/3rd/nanovg/agge/nanovg_agge.o
 .text._ZNK4agge17vector_rasterizer5emptyEv
                0x0000000000000000       0x21 /home/wh/.HoneyGUI-SDK/realgui/3rd/nanovg/agge/nanovg_agge.o
 .text._ZNK4agge17vector_rasterizer5widthEv
                0x0000000000000000       0x3e /home/wh/.HoneyGUI-SDK/realgui/3rd/nanovg/agge/nanovg_agge.o
 .text._ZNK4agge17vector_rasterizer6heightEv
                0x0000000000000000       0x3e /home/wh/.HoneyGUI-SDK/realgui/3rd/nanovg/agge/nanovg_agge.o
 .text._ZN4agge6stroke3capC2Ev
                0x0000000000000000       0x1d /home/wh/.HoneyGUI-SDK/realgui/3rd/nanovg/agge/nanovg_agge.o
 .text._ZNK4agge10pod_vectorINS_17vector_rasterizer4cellEE5beginEv
                0x0000000000000000       0x15 /home/wh/.HoneyGUI-SDK/realgui/3rd/nanovg/agge/nanovg_agge.o
 .text._ZN4agge10pod_vectorINS_17vector_rasterizer4cellEED2Ev
                0x0000000000000000       0x2e /home/wh/.HoneyGUI-SDK/realgui/3rd/nanovg/agge/nanovg_agge.o
 .text._ZN4agge10pod_vectorIjED2Ev
                0x0000000000000000       0x2e /home/wh/.HoneyGUI-SDK/realgui/3rd/nanovg/agge/nanovg_agge.o
 .data.rel.ro._ZTVN4agge6stroke4joinE
                0x0000000000000000       0x28 /home/wh/.HoneyGUI-SDK/realgui/3rd/nanovg/agge/nanovg_agge.o
 .data.rel.ro._ZTVN4agge6stroke3capE
                0x0000000000000000       0x28 /home/wh/.HoneyGUI-SDK/realgui/3rd/nanovg/agge/nanovg_agge.o
 .data.rel.ro._ZTIN4agge6stroke4joinE
                0x0000000000000000       0x10 /home/wh/.HoneyGUI-SDK/realgui/3rd/nanovg/agge/nanovg_agge.o
 .rodata._ZTSN4agge6stroke4joinE
                0x0000000000000000       0x14 /home/wh/.HoneyGUI-SDK/realgui/3rd/nanovg/agge/nanovg_agge.o
 .data.rel.ro._ZTIN4agge6stroke3capE
                0x0000000000000000       0x10 /home/wh/.HoneyGUI-SDK/realgui/3rd/nanovg/agge/nanovg_agge.o
 .rodata._ZTSN4agge6stroke3capE
                0x0000000000000000       0x13 /home/wh/.HoneyGUI-SDK/realgui/3rd/nanovg/agge/nanovg_agge.o
 .text._ZN4agge4caps5roundD2Ev
                0x0000000000000000       0x2d /home/wh/.HoneyGUI-SDK/realgui/3rd/nanovg/agge/nanovg_agge.o
 .text._ZN4agge4caps5roundD0Ev
                0x0000000000000000       0x2a /home/wh/.HoneyGUI-SDK/realgui/3rd/nanovg/agge/nanovg_agge.o
 .text._ZN4agge5joins5bevelD2Ev
                0x0000000000000000       0x2d /home/wh/.HoneyGUI-SDK/realgui/3rd/nanovg/agge/nanovg_agge.o
 .text._ZN4agge5joins5bevelD0Ev
                0x0000000000000000       0x2a /home/wh/.HoneyGUI-SDK/realgui/3rd/nanovg/agge/nanovg_agge.o
 .text._ZN4agge4caps4buttD2Ev
                0x0000000000000000       0x2d /home/wh/.HoneyGUI-SDK/realgui/3rd/nanovg/agge/nanovg_agge.o
 .text._ZN4agge4caps4buttD0Ev
                0x0000000000000000       0x2a /home/wh/.HoneyGUI-SDK/realgui/3rd/nanovg/agge/nanovg_agge.o
 .text._ZN4agge4caps6squareD2Ev
                0x0000000000000000       0x2d /home/wh/.HoneyGUI-SDK/realgui/3rd/nanovg/agge/nanovg_agge.o
 .text._ZN4agge4caps6squareD0Ev
                0x0000000000000000       0x2a /home/wh/.HoneyGUI-SDK/realgui/3rd/nanovg/agge/nanovg_agge.o
 .data.rel.local.DW.ref.__gxx_personality_v0
                0x0000000000000000        0x8 /home/wh/.HoneyGUI-SDK/realgui/3rd/nanovg/agge/nanovg_agge.o
 .note.GNU-stack
                0x0000000000000000        0x0 /home/wh/.HoneyGUI-SDK/realgui/3rd/nanovg/agge/nanovg_agge.o
 .note.gnu.property
                0x0000000000000000       0x20 /home/wh/.HoneyGUI-SDK/realgui/3rd/nanovg/agge/nanovg_agge.o
 .note.GNU-stack
                0x0000000000000000        0x0 /home/wh/.HoneyGUI-SDK/realgui/3rd/nanovg/agge/nanovg_vertex.o
 .note.gnu.property
                0x0000000000000000       0x20 /home/wh/.HoneyGUI-SDK/realgui/3rd/nanovg/agge/nanovg_vertex.o
 .note.GNU-stack
                0x0000000000000000        0x0 /home/wh/.HoneyGUI-SDK/realgui/3rd/gifdec/gifdec.o
 .note.gnu.property
                0x0000000000000000       0x20 /home/wh/.HoneyGUI-SDK/realgui/3rd/gifdec/gifdec.o
 .note.GNU-stack
                0x0000000000000000        0x0 /home/wh/.HoneyGUI-SDK/realgui/3rd/letter_shell/shell.o
 .note.gnu.property
                0x0000000000000000       0x20 /home/wh/.HoneyGUI-SDK/realgui/3rd/letter_shell/shell.o
 .note.GNU-stack
                0x0000000000000000        0x0 /home/wh/.HoneyGUI-SDK/realgui/3rd/letter_shell/shell_companion.o
 .note.gnu.property
                0x0000000000000000       0x20 /home/wh/.HoneyGUI-SDK/realgui/3rd/letter_shell/shell_companion.o
 .note.GNU-stack
                0x0000000000000000        0x0 /home/wh/.HoneyGUI-SDK/realgui/3rd/letter_shell/shell_ext.o
 .note.gnu.property
                0x0000000000000000       0x20 /home/wh/.HoneyGUI-SDK/realgui/3rd/letter_shell/shell_ext.o
 .note.GNU-stack
                0x0000000000000000        0x0 /home/wh/.HoneyGUI-SDK/realgui/3rd/letter_shell/shell_fs.o
 .note.gnu.property
                0x0000000000000000       0x20 /home/wh/.HoneyGUI-SDK/realgui/3rd/letter_shell/shell_fs.o
 .note.GNU-stack
                0x0000000000000000        0x0 /home/wh/.HoneyGUI-SDK/realgui/3rd/letter_shell/shell_port.o
 .note.gnu.property
                0x0000000000000000       0x20 /home/wh/.HoneyGUI-SDK/realgui/3rd/letter_shell/shell_port.o
 .note.GNU-stack
                0x0000000000000000        0x0 /home/wh/.HoneyGUI-SDK/realgui/3rd/h264bsd/src/YUV2RGB.o
 .note.gnu.property
                0x0000000000000000       0x20 /home/wh/.HoneyGUI-SDK/realgui/3rd/h264bsd/src/YUV2RGB.o
 .note.GNU-stack
                0x0000000000000000        0x0 /home/wh/.HoneyGUI-SDK/realgui/3rd/h264bsd/src/gui_h264bsd.o
 .note.gnu.property
                0x0000000000000000       0x20 /home/wh/.HoneyGUI-SDK/realgui/3rd/h264bsd/src/gui_h264bsd.o
 .note.GNU-stack
                0x0000000000000000        0x0 /home/wh/.HoneyGUI-SDK/realgui/3rd/h264bsd/src/h264bsdTest.o
 .note.gnu.property
                0x0000000000000000       0x20 /home/wh/.HoneyGUI-SDK/realgui/3rd/h264bsd/src/h264bsdTest.o
 .note.GNU-stack
                0x0000000000000000        0x0 /home/wh/.HoneyGUI-SDK/realgui/3rd/h264bsd/src/h264bsd_byte_stream.o
 .note.gnu.property
                0x0000000000000000       0x20 /home/wh/.HoneyGUI-SDK/realgui/3rd/h264bsd/src/h264bsd_byte_stream.o
 .note.GNU-stack
                0x0000000000000000        0x0 /home/wh/.HoneyGUI-SDK/realgui/3rd/h264bsd/src/h264bsd_cavlc.o
 .note.gnu.property
                0x0000000000000000       0x20 /home/wh/.HoneyGUI-SDK/realgui/3rd/h264bsd/src/h264bsd_cavlc.o
 .note.GNU-stack
                0x0000000000000000        0x0 /home/wh/.HoneyGUI-SDK/realgui/3rd/h264bsd/src/h264bsd_conceal.o
 .note.gnu.property
                0x0000000000000000       0x20 /home/wh/.HoneyGUI-SDK/realgui/3rd/h264bsd/src/h264bsd_conceal.o
 .note.GNU-stack
                0x0000000000000000        0x0 /home/wh/.HoneyGUI-SDK/realgui/3rd/h264bsd/src/h264bsd_deblocking.o
 .note.gnu.property
                0x0000000000000000       0x20 /home/wh/.HoneyGUI-SDK/realgui/3rd/h264bsd/src/h264bsd_deblocking.o
 .note.GNU-stack
                0x0000000000000000        0x0 /home/wh/.HoneyGUI-SDK/realgui/3rd/h264bsd/src/h264bsd_decoder.o
 .note.gnu.property
                0x0000000000000000       0x20 /home/wh/.HoneyGUI-SDK/realgui/3rd/h264bsd/src/h264bsd_decoder.o
 .note.GNU-stack
                0x0000000000000000        0x0 /home/wh/.HoneyGUI-SDK/realgui/3rd/h264bsd/src/h264bsd_dpb.o
 .note.gnu.property
                0x0000000000000000       0x20 /home/wh/.HoneyGUI-SDK/realgui/3rd/h264bsd/src/h264bsd_dpb.o
 .note.GNU-stack
                0x0000000000000000        0x0 /home/wh/.HoneyGUI-SDK/realgui/3rd/h264bsd/src/h264bsd_image.o
 .note.gnu.property
                0x0000000000000000       0x20 /home/wh/.HoneyGUI-SDK/realgui/3rd/h264bsd/src/h264bsd_image.o
 .note.GNU-stack
                0x0000000000000000        0x0 /home/wh/.HoneyGUI-SDK/realgui/3rd/h264bsd/src/h264bsd_inter_prediction.o
 .note.gnu.property
                0x0000000000000000       0x20 /home/wh/.HoneyGUI-SDK/realgui/3rd/h264bsd/src/h264bsd_inter_prediction.o
 .note.GNU-stack
                0x0000000000000000        0x0 /home/wh/.HoneyGUI-SDK/realgui/3rd/h264bsd/src/h264bsd_intra_prediction.o
 .note.gnu.property
                0x0000000000000000       0x20 /home/wh/.HoneyGUI-SDK/realgui/3rd/h264bsd/src/h264bsd_intra_prediction.o
 .note.GNU-stack
                0x0000000000000000        0x0 /home/wh/.HoneyGUI-SDK/realgui/3rd/h264bsd/src/h264bsd_macroblock_layer.o
 .note.gnu.property
                0x0000000000000000       0x20 /home/wh/.HoneyGUI-SDK/realgui/3rd/h264bsd/src/h264bsd_macroblock_layer.o
 .note.GNU-stack
                0x0000000000000000        0x0 /home/wh/.HoneyGUI-SDK/realgui/3rd/h264bsd/src/h264bsd_nal_unit.o
 .note.gnu.property
                0x0000000000000000       0x20 /home/wh/.HoneyGUI-SDK/realgui/3rd/h264bsd/src/h264bsd_nal_unit.o
 .note.GNU-stack
                0x0000000000000000        0x0 /home/wh/.HoneyGUI-SDK/realgui/3rd/h264bsd/src/h264bsd_neighbour.o
 .note.gnu.property
                0x0000000000000000       0x20 /home/wh/.HoneyGUI-SDK/realgui/3rd/h264bsd/src/h264bsd_neighbour.o
 .note.GNU-stack
                0x0000000000000000        0x0 /home/wh/.HoneyGUI-SDK/realgui/3rd/h264bsd/src/h264bsd_pic_order_cnt.o
 .note.gnu.property
                0x0000000000000000       0x20 /home/wh/.HoneyGUI-SDK/realgui/3rd/h264bsd/src/h264bsd_pic_order_cnt.o
 .note.GNU-stack
                0x0000000000000000        0x0 /home/wh/.HoneyGUI-SDK/realgui/3rd/h264bsd/src/h264bsd_pic_param_set.o
 .note.gnu.property
                0x0000000000000000       0x20 /home/wh/.HoneyGUI-SDK/realgui/3rd/h264bsd/src/h264bsd_pic_param_set.o
 .note.GNU-stack
                0x0000000000000000        0x0 /home/wh/.HoneyGUI-SDK/realgui/3rd/h264bsd/src/h264bsd_reconstruct.o
 .note.gnu.property
                0x0000000000000000       0x20 /home/wh/.HoneyGUI-SDK/realgui/3rd/h264bsd/src/h264bsd_reconstruct.o
 .note.GNU-stack
                0x0000000000000000        0x0 /home/wh/.HoneyGUI-SDK/realgui/3rd/h264bsd/src/h264bsd_sei.o
 .note.gnu.property
                0x0000000000000000       0x20 /home/wh/.HoneyGUI-SDK/realgui/3rd/h264bsd/src/h264bsd_sei.o
 .note.GNU-stack
                0x0000000000000000        0x0 /home/wh/.HoneyGUI-SDK/realgui/3rd/h264bsd/src/h264bsd_seq_param_set.o
 .note.gnu.property
                0x0000000000000000       0x20 /home/wh/.HoneyGUI-SDK/realgui/3rd/h264bsd/src/h264bsd_seq_param_set.o
 .note.GNU-stack
                0x0000000000000000        0x0 /home/wh/.HoneyGUI-SDK/realgui/3rd/h264bsd/src/h264bsd_slice_data.o
 .note.gnu.property
                0x0000000000000000       0x20 /home/wh/.HoneyGUI-SDK/realgui/3rd/h264bsd/src/h264bsd_slice_data.o
 .note.GNU-stack
                0x0000000000000000        0x0 /home/wh/.HoneyGUI-SDK/realgui/3rd/h264bsd/src/h264bsd_slice_group_map.o
 .note.gnu.property
                0x0000000000000000       0x20 /home/wh/.HoneyGUI-SDK/realgui/3rd/h264bsd/src/h264bsd_slice_group_map.o
 .note.GNU-stack
                0x0000000000000000        0x0 /home/wh/.HoneyGUI-SDK/realgui/3rd/h264bsd/src/h264bsd_slice_header.o
 .note.gnu.property
                0x0000000000000000       0x20 /home/wh/.HoneyGUI-SDK/realgui/3rd/h264bsd/src/h264bsd_slice_header.o
 .note.GNU-stack
                0x0000000000000000        0x0 /home/wh/.HoneyGUI-SDK/realgui/3rd/h264bsd/src/h264bsd_storage.o
 .note.gnu.property
                0x0000000000000000       0x20 /home/wh/.HoneyGUI-SDK/realgui/3rd/h264bsd/src/h264bsd_storage.o
 .note.GNU-stack
                0x0000000000000000        0x0 /home/wh/.HoneyGUI-SDK/realgui/3rd/h264bsd/src/h264bsd_stream.o
 .note.gnu.property
                0x0000000000000000       0x20 /home/wh/.HoneyGUI-SDK/realgui/3rd/h264bsd/src/h264bsd_stream.o
 .note.GNU-stack
                0x0000000000000000        0x0 /home/wh/.HoneyGUI-SDK/realgui/3rd/h264bsd/src/h264bsd_transform.o
 .note.gnu.property
                0x0000000000000000       0x20 /home/wh/.HoneyGUI-SDK/realgui/3rd/h264bsd/src/h264bsd_transform.o
 .note.GNU-stack
                0x0000000000000000        0x0 /home/wh/.HoneyGUI-SDK/realgui/3rd/h264bsd/src/h264bsd_util.o
 .note.gnu.property
                0x0000000000000000       0x20 /home/wh/.HoneyGUI-SDK/realgui/3rd/h264bsd/src/h264bsd_util.o
 .note.GNU-stack
                0x0000000000000000        0x0 /home/wh/.HoneyGUI-SDK/realgui/3rd/h264bsd/src/h264bsd_vlc.o
 .note.gnu.property
                0x0000000000000000       0x20 /home/wh/.HoneyGUI-SDK/realgui/3rd/h264bsd/src/h264bsd_vlc.o
 .note.GNU-stack
                0x0000000000000000        0x0 /home/wh/.HoneyGUI-SDK/realgui/3rd/h264bsd/src/h264bsd_vui.o
 .note.gnu.property
                0x0000000000000000       0x20 /home/wh/.HoneyGUI-SDK/realgui/3rd/h264bsd/src/h264bsd_vui.o
 .note.GNU-stack
                0x0000000000000000        0x0 /home/wh/.HoneyGUI-SDK/realgui/3rd/h264bsd/port/h264bsd_port.o
 .note.gnu.property
                0x0000000000000000       0x20 /home/wh/.HoneyGUI-SDK/realgui/3rd/h264bsd/port/h264bsd_port.o
 .note.GNU-stack
                0x0000000000000000        0x0 /home/wh/.HoneyGUI-SDK/realgui/3rd/tjpgd/tjpgd.o
 .note.gnu.property
                0x0000000000000000       0x20 /home/wh/.HoneyGUI-SDK/realgui/3rd/tjpgd/tjpgd.o
 .note.GNU-stack
                0x0000000000000000        0x0 /home/wh/.HoneyGUI-SDK/realgui/3rd/ezXML/ezxml.o
 .note.gnu.property
                0x0000000000000000       0x20 /home/wh/.HoneyGUI-SDK/realgui/3rd/ezXML/ezxml.o
 .note.GNU-stack
                0x0000000000000000        0x0 /home/wh/.HoneyGUI-SDK/realgui/3rd/stb/stb_image.o
 .note.gnu.property
                0x0000000000000000       0x20 /home/wh/.HoneyGUI-SDK/realgui/3rd/stb/stb_image.o
 .note.GNU-stack
                0x0000000000000000        0x0 /home/wh/.HoneyGUI-SDK/realgui/widget/gui_view/gui_view.o
 .note.gnu.property
                0x0000000000000000       0x20 /home/wh/.HoneyGUI-SDK/realgui/widget/gui_view/gui_view.o
 .note.GNU-stack
                0x0000000000000000        0x0 /home/wh/.HoneyGUI-SDK/realgui/widget/gui_view/gui_view_animate.o
 .note.gnu.property
                0x0000000000000000       0x20 /home/wh/.HoneyGUI-SDK/realgui/widget/gui_view/gui_view_animate.o
 .note.GNU-stack
                0x0000000000000000        0x0 /home/wh/.HoneyGUI-SDK/realgui/widget/gui_view/gui_view_blur.o
 .note.gnu.property
                0x0000000000000000       0x20 /home/wh/.HoneyGUI-SDK/realgui/widget/gui_view/gui_view_blur.o
 .note.GNU-stack
                0x0000000000000000        0x0 /home/wh/.HoneyGUI-SDK/realgui/widget/gui_view/gui_view_cube.o
 .note.gnu.property
                0x0000000000000000       0x20 /home/wh/.HoneyGUI-SDK/realgui/widget/gui_view/gui_view_cube.o
 .note.GNU-stack
                0x0000000000000000        0x0 /home/wh/.HoneyGUI-SDK/realgui/widget/gui_view/gui_view_descriptor.o
 .note.gnu.property
                0x0000000000000000       0x20 /home/wh/.HoneyGUI-SDK/realgui/widget/gui_view/gui_view_descriptor.o
 .note.GNU-stack
                0x0000000000000000        0x0 /home/wh/.HoneyGUI-SDK/realgui/widget/gui_view/gui_view_reduction.o
 .note.gnu.property
                0x0000000000000000       0x20 /home/wh/.HoneyGUI-SDK/realgui/widget/gui_view/gui_view_reduction.o
 .note.GNU-stack
                0x0000000000000000        0x0 /home/wh/.HoneyGUI-SDK/realgui/widget/gui_view/gui_view_rotate.o
 .note.gnu.property
                0x0000000000000000       0x20 /home/wh/.HoneyGUI-SDK/realgui/widget/gui_view/gui_view_rotate.o
 .note.GNU-stack
                0x0000000000000000        0x0 /home/wh/.HoneyGUI-SDK/realgui/widget/gui_view/gui_view_translation.o
 .note.gnu.property
                0x0000000000000000       0x20 /home/wh/.HoneyGUI-SDK/realgui/widget/gui_view/gui_view_translation.o
 .note.GNU-stack
                0x0000000000000000        0x0 /home/wh/.HoneyGUI-SDK/realgui/widget/gui_text/gui_scroll_text.o
 .note.gnu.property
                0x0000000000000000       0x20 /home/wh/.HoneyGUI-SDK/realgui/widget/gui_text/gui_scroll_text.o
 .note.GNU-stack
                0x0000000000000000        0x0 /home/wh/.HoneyGUI-SDK/realgui/widget/gui_text/gui_text.o
 .note.gnu.property
                0x0000000000000000       0x20 /home/wh/.HoneyGUI-SDK/realgui/widget/gui_text/gui_text.o
 .note.GNU-stack
                0x0000000000000000        0x0 /home/wh/.HoneyGUI-SDK/realgui/widget/gui_lite_geometry/gui_lite_geometry_arc.o
 .note.gnu.property
                0x0000000000000000       0x20 /home/wh/.HoneyGUI-SDK/realgui/widget/gui_lite_geometry/gui_lite_geometry_arc.o
 .note.GNU-stack
                0x0000000000000000        0x0 /home/wh/.HoneyGUI-SDK/realgui/widget/gui_lite_geometry/gui_lite_geometry_circle.o
 .note.gnu.property
                0x0000000000000000       0x20 /home/wh/.HoneyGUI-SDK/realgui/widget/gui_lite_geometry/gui_lite_geometry_circle.o
 .note.GNU-stack
                0x0000000000000000        0x0 /home/wh/.HoneyGUI-SDK/realgui/widget/gui_lite_geometry/gui_lite_geometry_round_rect.o
 .note.gnu.property
                0x0000000000000000       0x20 /home/wh/.HoneyGUI-SDK/realgui/widget/gui_lite_geometry/gui_lite_geometry_round_rect.o
 .note.GNU-stack
                0x0000000000000000        0x0 /home/wh/.HoneyGUI-SDK/realgui/widget/gui_lite_geometry/lite_geometry.o
 .note.gnu.property
                0x0000000000000000       0x20 /home/wh/.HoneyGUI-SDK/realgui/widget/gui_lite_geometry/lite_geometry.o
 .note.GNU-stack
                0x0000000000000000        0x0 /home/wh/.HoneyGUI-SDK/realgui/widget/gui_lite_geometry/lite_geometry_math.o
 .note.gnu.property
                0x0000000000000000       0x20 /home/wh/.HoneyGUI-SDK/realgui/widget/gui_lite_geometry/lite_geometry_math.o
 .note.GNU-stack
                0x0000000000000000        0x0 /home/wh/.HoneyGUI-SDK/realgui/widget/gui_list/gui_list.o
 .note.gnu.property
                0x0000000000000000       0x20 /home/wh/.HoneyGUI-SDK/realgui/widget/gui_list/gui_list.o
 .note.GNU-stack
                0x0000000000000000        0x0 /home/wh/.HoneyGUI-SDK/realgui/widget/gui_list/gui_list_rotate_curl.o
 .note.gnu.property
                0x0000000000000000       0x20 /home/wh/.HoneyGUI-SDK/realgui/widget/gui_list/gui_list_rotate_curl.o
 .note.GNU-stack
                0x0000000000000000        0x0 /home/wh/.HoneyGUI-SDK/realgui/widget/gui_list/gui_list_rotate_helix.o
 .note.gnu.property
                0x0000000000000000       0x20 /home/wh/.HoneyGUI-SDK/realgui/widget/gui_list/gui_list_rotate_helix.o
 .note.GNU-stack
                0x0000000000000000        0x0 /home/wh/.HoneyGUI-SDK/realgui/widget/gui_qbcode/gui_barcode_gen.o
 .note.gnu.property
                0x0000000000000000       0x20 /home/wh/.HoneyGUI-SDK/realgui/widget/gui_qbcode/gui_barcode_gen.o
 .note.GNU-stack
                0x0000000000000000        0x0 /home/wh/.HoneyGUI-SDK/realgui/widget/gui_qbcode/gui_qbcode.o
 .note.gnu.property
                0x0000000000000000       0x20 /home/wh/.HoneyGUI-SDK/realgui/widget/gui_qbcode/gui_qbcode.o
 .note.GNU-stack
                0x0000000000000000        0x0 /home/wh/.HoneyGUI-SDK/realgui/widget/gui_qbcode/gui_qrcode_gen.o
 .note.gnu.property
                0x0000000000000000       0x20 /home/wh/.HoneyGUI-SDK/realgui/widget/gui_qbcode/gui_qrcode_gen.o
 .note.GNU-stack
                0x0000000000000000        0x0 /home/wh/.HoneyGUI-SDK/realgui/widget/gui_menu_cellular/gui_menu_cellular.o
 .note.gnu.property
                0x0000000000000000       0x20 /home/wh/.HoneyGUI-SDK/realgui/widget/gui_menu_cellular/gui_menu_cellular.o
 .note.GNU-stack
                0x0000000000000000        0x0 /home/wh/.HoneyGUI-SDK/realgui/widget/gui_gray/gui_gray.o
 .note.gnu.property
                0x0000000000000000       0x20 /home/wh/.HoneyGUI-SDK/realgui/widget/gui_gray/gui_gray.o
 .note.GNU-stack
                0x0000000000000000        0x0 /home/wh/.HoneyGUI-SDK/realgui/widget/gui_obj/gui_obj.o
 .note.gnu.property
                0x0000000000000000       0x20 /home/wh/.HoneyGUI-SDK/realgui/widget/gui_obj/gui_obj.o
 .note.GNU-stack
                0x0000000000000000        0x0 /home/wh/.HoneyGUI-SDK/realgui/widget/gui_obj/gui_obj_event.o
 .note.gnu.property
                0x0000000000000000       0x20 /home/wh/.HoneyGUI-SDK/realgui/widget/gui_obj/gui_obj_event.o
 .note.GNU-stack
                0x0000000000000000        0x0 /home/wh/.HoneyGUI-SDK/realgui/widget/gui_obj/gui_obj_suppress.o
 .note.gnu.property
                0x0000000000000000       0x20 /home/wh/.HoneyGUI-SDK/realgui/widget/gui_obj/gui_obj_suppress.o
 .note.GNU-stack
                0x0000000000000000        0x0 /home/wh/.HoneyGUI-SDK/realgui/widget/gui_obj/gui_obj_timer.o
 .note.gnu.property
                0x0000000000000000       0x20 /home/wh/.HoneyGUI-SDK/realgui/widget/gui_obj/gui_obj_timer.o
 .note.GNU-stack
                0x0000000000000000        0x0 /home/wh/.HoneyGUI-SDK/realgui/widget/gui_obj/gui_obj_tree.o
 .note.gnu.property
                0x0000000000000000       0x20 /home/wh/.HoneyGUI-SDK/realgui/widget/gui_obj/gui_obj_tree.o
 .note.GNU-stack
                0x0000000000000000        0x0 /home/wh/.HoneyGUI-SDK/realgui/widget/gui_soccer/gui_soccer.o
 .note.gnu.property
                0x0000000000000000       0x20 /home/wh/.HoneyGUI-SDK/realgui/widget/gui_soccer/gui_soccer.o
 .note.GNU-stack
                0x0000000000000000        0x0 /home/wh/.HoneyGUI-SDK/realgui/widget/gui_glass/gui_glass.o
 .note.gnu.property
                0x0000000000000000       0x20 /home/wh/.HoneyGUI-SDK/realgui/widget/gui_glass/gui_glass.o
 .note.GNU-stack
                0x0000000000000000        0x0 /home/wh/.HoneyGUI-SDK/realgui/widget/gui_img/gui_img.o
 .note.gnu.property
                0x0000000000000000       0x20 /home/wh/.HoneyGUI-SDK/realgui/widget/gui_img/gui_img.o
 .note.GNU-stack
                0x0000000000000000        0x0 /home/wh/.HoneyGUI-SDK/realgui/widget/gui_img/gui_img_api.o
 .note.gnu.property
                0x0000000000000000       0x20 /home/wh/.HoneyGUI-SDK/realgui/widget/gui_img/gui_img_api.o
 .note.GNU-stack
                0x0000000000000000        0x0 /home/wh/.HoneyGUI-SDK/realgui/widget/gui_video/gui_video.o
 .note.gnu.property
                0x0000000000000000       0x20 /home/wh/.HoneyGUI-SDK/realgui/widget/gui_video/gui_video.o
 .note.GNU-stack
                0x0000000000000000        0x0 /home/wh/.HoneyGUI-SDK/realgui/widget/gui_win/gui_win.o
 .note.gnu.property
                0x0000000000000000       0x20 /home/wh/.HoneyGUI-SDK/realgui/widget/gui_win/gui_win.o
 .note.GNU-stack
                0x0000000000000000        0x0 /home/wh/.HoneyGUI-SDK/realgui/widget/gui_canvas/gui_canvas.o
 .note.gnu.property
                0x0000000000000000       0x20 /home/wh/.HoneyGUI-SDK/realgui/widget/gui_canvas/gui_canvas.o
 .note.GNU-stack
                0x0000000000000000        0x0 /home/wh/.HoneyGUI-SDK/realgui/widget/gui_canvas/gui_canvas_arc.o
 .note.gnu.property
                0x0000000000000000       0x20 /home/wh/.HoneyGUI-SDK/realgui/widget/gui_canvas/gui_canvas_arc.o
 .note.GNU-stack
                0x0000000000000000        0x0 /home/wh/.HoneyGUI-SDK/realgui/widget/gui_canvas/gui_canvas_img.o
 .note.gnu.property
                0x0000000000000000       0x20 /home/wh/.HoneyGUI-SDK/realgui/widget/gui_canvas/gui_canvas_img.o
 .note.GNU-stack
                0x0000000000000000        0x0 /home/wh/.HoneyGUI-SDK/realgui/widget/gui_canvas/gui_canvas_rect.o
 .note.gnu.property
                0x0000000000000000       0x20 /home/wh/.HoneyGUI-SDK/realgui/widget/gui_canvas/gui_canvas_rect.o
 .note.GNU-stack
                0x0000000000000000        0x0 /home/wh/.HoneyGUI-SDK/realgui/widget/gui_canvas/gui_canvas_round_rect.o
 .note.gnu.property
                0x0000000000000000       0x20 /home/wh/.HoneyGUI-SDK/realgui/widget/gui_canvas/gui_canvas_round_rect.o
 .note.GNU-stack
                0x0000000000000000        0x0 /home/wh/.HoneyGUI-SDK/realgui/engine/acc_api.o
 .note.gnu.property
                0x0000000000000000       0x20 /home/wh/.HoneyGUI-SDK/realgui/engine/acc_api.o
 .note.GNU-stack
                0x0000000000000000        0x0 /home/wh/.HoneyGUI-SDK/realgui/engine/draw_font.o
 .note.gnu.property
                0x0000000000000000       0x20 /home/wh/.HoneyGUI-SDK/realgui/engine/draw_font.o
 .note.GNU-stack
                0x0000000000000000        0x0 /home/wh/.HoneyGUI-SDK/realgui/engine/draw_img.o
 .note.gnu.property
                0x0000000000000000       0x20 /home/wh/.HoneyGUI-SDK/realgui/engine/draw_img.o
 .note.GNU-stack
                0x0000000000000000        0x0 /home/wh/.HoneyGUI-SDK/realgui/engine/engine_gray.o
 .note.gnu.property
                0x0000000000000000       0x20 /home/wh/.HoneyGUI-SDK/realgui/engine/engine_gray.o
 .note.GNU-stack
                0x0000000000000000        0x0 /home/wh/.HoneyGUI-SDK/realgui/engine/gui_matrix.o
 .note.gnu.property
                0x0000000000000000       0x20 /home/wh/.HoneyGUI-SDK/realgui/engine/gui_matrix.o
 .note.GNU-stack
                0x0000000000000000        0x0 /home/wh/.HoneyGUI-SDK/realgui/engine/gui_post_process.o
 .note.gnu.property
                0x0000000000000000       0x20 /home/wh/.HoneyGUI-SDK/realgui/engine/gui_post_process.o
 .note.GNU-stack
                0x0000000000000000        0x0 /home/wh/.HoneyGUI-SDK/realgui/engine/font/font_custom.o
 .note.gnu.property
                0x0000000000000000       0x20 /home/wh/.HoneyGUI-SDK/realgui/engine/font/font_custom.o
 .note.GNU-stack
                0x0000000000000000        0x0 /home/wh/.HoneyGUI-SDK/realgui/engine/font/font_mem.o
 .note.gnu.property
                0x0000000000000000       0x20 /home/wh/.HoneyGUI-SDK/realgui/engine/font/font_mem.o
 .note.GNU-stack
                0x0000000000000000        0x0 /home/wh/.HoneyGUI-SDK/realgui/engine/font/font_mem_img.o
 .note.gnu.property
                0x0000000000000000       0x20 /home/wh/.HoneyGUI-SDK/realgui/engine/font/font_mem_img.o
 .note.GNU-stack
                0x0000000000000000        0x0 /home/wh/.HoneyGUI-SDK/realgui/engine/font/font_mem_matrix.o
 .note.gnu.property
                0x0000000000000000       0x20 /home/wh/.HoneyGUI-SDK/realgui/engine/font/font_mem_matrix.o
 .note.GNU-stack
                0x0000000000000000        0x0 /home/wh/.HoneyGUI-SDK/realgui/engine/font/font_rendering_utils.o
 .note.gnu.property
                0x0000000000000000       0x20 /home/wh/.HoneyGUI-SDK/realgui/engine/font/font_rendering_utils.o
 .note.GNU-stack
                0x0000000000000000        0x0 /home/wh/.HoneyGUI-SDK/realgui/engine/font/font_stb.o
 .note.gnu.property
                0x0000000000000000       0x20 /home/wh/.HoneyGUI-SDK/realgui/engine/font/font_stb.o
 .note.GNU-stack
                0x0000000000000000        0x0 /home/wh/.HoneyGUI-SDK/realgui/engine/font/font_ttf.o
 .note.gnu.property
                0x0000000000000000       0x20 /home/wh/.HoneyGUI-SDK/realgui/engine/font/font_ttf.o
 .note.GNU-stack
                0x0000000000000000        0x0 /home/wh/.HoneyGUI-SDK/realgui/engine/sw/a8_2_a8.o
 .note.gnu.property
                0x0000000000000000       0x20 /home/wh/.HoneyGUI-SDK/realgui/engine/sw/a8_2_a8.o
 .note.GNU-stack
                0x0000000000000000        0x0 /home/wh/.HoneyGUI-SDK/realgui/engine/sw/a8_2_rgb565.o
 .note.gnu.property
                0x0000000000000000       0x20 /home/wh/.HoneyGUI-SDK/realgui/engine/sw/a8_2_rgb565.o
 .note.GNU-stack
                0x0000000000000000        0x0 /home/wh/.HoneyGUI-SDK/realgui/engine/sw/acc_sw.o
 .note.gnu.property
                0x0000000000000000       0x20 /home/wh/.HoneyGUI-SDK/realgui/engine/sw/acc_sw.o
 .note.GNU-stack
                0x0000000000000000        0x0 /home/wh/.HoneyGUI-SDK/realgui/engine/sw/acc_sw_arm2d_blur.o
 .note.gnu.property
                0x0000000000000000       0x20 /home/wh/.HoneyGUI-SDK/realgui/engine/sw/acc_sw_arm2d_blur.o
 .note.GNU-stack
                0x0000000000000000        0x0 /home/wh/.HoneyGUI-SDK/realgui/engine/sw/acc_sw_raster.o
 .note.gnu.property
                0x0000000000000000       0x20 /home/wh/.HoneyGUI-SDK/realgui/engine/sw/acc_sw_raster.o
 .note.GNU-stack
                0x0000000000000000        0x0 /home/wh/.HoneyGUI-SDK/realgui/engine/sw/argb8565_2_rgb565.o
 .note.gnu.property
                0x0000000000000000       0x20 /home/wh/.HoneyGUI-SDK/realgui/engine/sw/argb8565_2_rgb565.o
 .note.GNU-stack
                0x0000000000000000        0x0 /home/wh/.HoneyGUI-SDK/realgui/engine/sw/rgb565_2_rgb565.o
 .note.gnu.property
                0x0000000000000000       0x20 /home/wh/.HoneyGUI-SDK/realgui/engine/sw/rgb565_2_rgb565.o
 .note.GNU-stack
                0x0000000000000000        0x0 /home/wh/.HoneyGUI-SDK/realgui/engine/sw/idu/acc_sw_idu.o
 .note.gnu.property
                0x0000000000000000       0x20 /home/wh/.HoneyGUI-SDK/realgui/engine/sw/idu/acc_sw_idu.o
 .note.GNU-stack
                0x0000000000000000        0x0 /home/wh/.HoneyGUI-SDK/realgui/engine/sw/rle/acc_sw_rle.o
 .note.gnu.property
                0x0000000000000000       0x20 /home/wh/.HoneyGUI-SDK/realgui/engine/sw/rle/acc_sw_rle.o
 .note.GNU-stack
                0x0000000000000000        0x0 /home/wh/.HoneyGUI-SDK/realgui/engine/sw/rle/acc_sw_rle_bypass.o
 .note.gnu.property
                0x0000000000000000       0x20 /home/wh/.HoneyGUI-SDK/realgui/engine/sw/rle/acc_sw_rle_bypass.o
 .note.GNU-stack
                0x0000000000000000        0x0 /home/wh/.HoneyGUI-SDK/realgui/engine/sw/rle/acc_sw_rle_cover.o
 .note.gnu.property
                0x0000000000000000       0x20 /home/wh/.HoneyGUI-SDK/realgui/engine/sw/rle/acc_sw_rle_cover.o
 .note.GNU-stack
                0x0000000000000000        0x0 /home/wh/.HoneyGUI-SDK/realgui/engine/sw/rle/acc_sw_rle_filter.o
 .note.gnu.property
                0x0000000000000000       0x20 /home/wh/.HoneyGUI-SDK/realgui/engine/sw/rle/acc_sw_rle_filter.o
 .note.GNU-stack
                0x0000000000000000        0x0 /home/wh/.HoneyGUI-SDK/realgui/dc/gui_fb.o
 .note.gnu.property
                0x0000000000000000       0x20 /home/wh/.HoneyGUI-SDK/realgui/dc/gui_fb.o
 .note.GNU-stack
                0x0000000000000000        0x0 /home/wh/.HoneyGUI-SDK/realgui/misc/tlsf/tlsf.o
 .note.gnu.property
                0x0000000000000000       0x20 /home/wh/.HoneyGUI-SDK/realgui/misc/tlsf/tlsf.o
 .note.GNU-stack
                0x0000000000000000        0x0 /home/wh/.HoneyGUI-SDK/example/widget/image/example_gui_img.o
 .note.gnu.property
                0x0000000000000000       0x20 /home/wh/.HoneyGUI-SDK/example/widget/image/example_gui_img.o
 .note.GNU-stack
                0x0000000000000000        0x0 /usr/lib/gcc/x86_64-linux-gnu/11/crtendS.o
 .note.gnu.property
                0x0000000000000000       0x20 /usr/lib/gcc/x86_64-linux-gnu/11/crtendS.o
 .note.gnu.property
                0x0000000000000000       0x20 /usr/lib/gcc/x86_64-linux-gnu/11/../../../x86_64-linux-gnu/crtn.o
 .note.GNU-stack
                0x0000000000000000        0x0 /usr/lib/gcc/x86_64-linux-gnu/11/../../../x86_64-linux-gnu/crtn.o

Memory Configuration

Name             Origin             Length             Attributes
*default*        0x0000000000000000 0xffffffffffffffff

Linker script and memory map

                [!provide]                        PROVIDE (__executable_start = SEGMENT_START ("text-segment", 0x0))
                0x00000000000002a8                . = (SEGMENT_START ("text-segment", 0x0) + SIZEOF_HEADERS)

.interp         0x00000000000002a8       0x1c
 *(.interp)
 .interp        0x00000000000002a8       0x1c /usr/lib/gcc/x86_64-linux-gnu/11/../../../x86_64-linux-gnu/Scrt1.o

.note.gnu.property
                0x00000000000002c8       0x30
 .note.gnu.property
                0x00000000000002c8       0x30 /usr/lib/gcc/x86_64-linux-gnu/11/../../../x86_64-linux-gnu/Scrt1.o

.note.gnu.build-id
                0x00000000000002f8       0x24
 *(.note.gnu.build-id)
 .note.gnu.build-id
                0x00000000000002f8       0x24 /usr/lib/gcc/x86_64-linux-gnu/11/../../../x86_64-linux-gnu/Scrt1.o

.note.ABI-tag   0x000000000000031c       0x20
 .note.ABI-tag  0x000000000000031c       0x20 /usr/lib/gcc/x86_64-linux-gnu/11/../../../x86_64-linux-gnu/Scrt1.o

.hash
 *(.hash)

.gnu.hash       0x0000000000000340       0x3c
 *(.gnu.hash)
 .gnu.hash      0x0000000000000340       0x3c /usr/lib/gcc/x86_64-linux-gnu/11/../../../x86_64-linux-gnu/Scrt1.o

.dynsym         0x0000000000000380      0xb28
 *(.dynsym)
 .dynsym        0x0000000000000380      0xb28 /usr/lib/gcc/x86_64-linux-gnu/11/../../../x86_64-linux-gnu/Scrt1.o

.dynstr         0x0000000000000ea8      0x5ae
 *(.dynstr)
 .dynstr        0x0000000000000ea8      0x5ae /usr/lib/gcc/x86_64-linux-gnu/11/../../../x86_64-linux-gnu/Scrt1.o

.gnu.version    0x0000000000001456       0xee
 *(.gnu.version)
 .gnu.version   0x0000000000001456       0xee /usr/lib/gcc/x86_64-linux-gnu/11/../../../x86_64-linux-gnu/Scrt1.o

.gnu.version_d  0x0000000000001548        0x0
 *(.gnu.version_d)
 .gnu.version_d
                0x0000000000001548        0x0 /usr/lib/gcc/x86_64-linux-gnu/11/../../../x86_64-linux-gnu/Scrt1.o

.gnu.version_r  0x0000000000001548      0x130
 *(.gnu.version_r)
 .gnu.version_r
                0x0000000000001548      0x130 /usr/lib/gcc/x86_64-linux-gnu/11/../../../x86_64-linux-gnu/Scrt1.o

.rela.dyn       0x0000000000001678     0x2f58
 *(.rela.init)
 *(.rela.text .rela.text.* .rela.gnu.linkonce.t.*)
 .rela.text     0x0000000000001678        0x0 /usr/lib/gcc/x86_64-linux-gnu/11/../../../x86_64-linux-gnu/Scrt1.o
 .rela.text._ZN4agge6stroke3capD2Ev
                0x0000000000001678        0x0 /usr/lib/gcc/x86_64-linux-gnu/11/../../../x86_64-linux-gnu/Scrt1.o
 .rela.text._ZN4agge6stroke4joinD2Ev
                0x0000000000001678        0x0 /usr/lib/gcc/x86_64-linux-gnu/11/../../../x86_64-linux-gnu/Scrt1.o
 .rela.text._ZN4agge6stroke3capC2Ev
                0x0000000000001678        0x0 /usr/lib/gcc/x86_64-linux-gnu/11/../../../x86_64-linux-gnu/Scrt1.o
 .rela.text._ZN4agge5joins5miterD2Ev
                0x0000000000001678        0x0 /usr/lib/gcc/x86_64-linux-gnu/11/../../../x86_64-linux-gnu/Scrt1.o
 .rela.text._ZN4agge5joins5roundD2Ev
                0x0000000000001678        0x0 /usr/lib/gcc/x86_64-linux-gnu/11/../../../x86_64-linux-gnu/Scrt1.o
 .rela.text._ZN4agge5joins5bevelD2Ev
                0x0000000000001678        0x0 /usr/lib/gcc/x86_64-linux-gnu/11/../../../x86_64-linux-gnu/Scrt1.o
 .rela.text._ZN4agge4caps8triangleD2Ev
                0x0000000000001678        0x0 /usr/lib/gcc/x86_64-linux-gnu/11/../../../x86_64-linux-gnu/Scrt1.o
 .rela.text._ZN4agge4caps5roundD2Ev
                0x0000000000001678        0x0 /usr/lib/gcc/x86_64-linux-gnu/11/../../../x86_64-linux-gnu/Scrt1.o
 .rela.text._ZN4agge4caps6squareD2Ev
                0x0000000000001678        0x0 /usr/lib/gcc/x86_64-linux-gnu/11/../../../x86_64-linux-gnu/Scrt1.o
 .rela.text._ZN4agge4caps4buttD2Ev
                0x0000000000001678        0x0 /usr/lib/gcc/x86_64-linux-gnu/11/../../../x86_64-linux-gnu/Scrt1.o
 .rela.text._ZN4agge4caps5roundC2Ev
                0x0000000000001678        0x0 /usr/lib/gcc/x86_64-linux-gnu/11/../../../x86_64-linux-gnu/Scrt1.o
 .rela.text._ZN4agge6stroke4joinC2Ev
                0x0000000000001678        0x0 /usr/lib/gcc/x86_64-linux-gnu/11/../../../x86_64-linux-gnu/Scrt1.o
 .rela.text._ZN4agge5joins5bevelC2Ev
                0x0000000000001678        0x0 /usr/lib/gcc/x86_64-linux-gnu/11/../../../x86_64-linux-gnu/Scrt1.o
 .rela.text._ZN4agge4caps4buttC2Ev
                0x0000000000001678        0x0 /usr/lib/gcc/x86_64-linux-gnu/11/../../../x86_64-linux-gnu/Scrt1.o
 .rela.text._ZN4agge4caps6squareC2Ev
                0x0000000000001678        0x0 /usr/lib/gcc/x86_64-linux-gnu/11/../../../x86_64-linux-gnu/Scrt1.o
 .rela.text._ZN4agge6stroke3capC2ERKS1_
                0x0000000000001678        0x0 /usr/lib/gcc/x86_64-linux-gnu/11/../../../x86_64-linux-gnu/Scrt1.o
 .rela.text._ZN4agge4caps5roundC2ERKS1_
                0x0000000000001678        0x0 /usr/lib/gcc/x86_64-linux-gnu/11/../../../x86_64-linux-gnu/Scrt1.o
 .rela.text._ZN4agge6stroke4joinC2ERKS1_
                0x0000000000001678        0x0 /usr/lib/gcc/x86_64-linux-gnu/11/../../../x86_64-linux-gnu/Scrt1.o
 .rela.text._ZN4agge5joins5bevelC2ERKS1_
                0x0000000000001678        0x0 /usr/lib/gcc/x86_64-linux-gnu/11/../../../x86_64-linux-gnu/Scrt1.o
 .rela.text._ZN4agge4caps4buttC2ERKS1_
                0x0000000000001678        0x0 /usr/lib/gcc/x86_64-linux-gnu/11/../../../x86_64-linux-gnu/Scrt1.o
 .rela.text._ZN4agge4caps6squareC2ERKS1_
                0x0000000000001678        0x0 /usr/lib/gcc/x86_64-linux-gnu/11/../../../x86_64-linux-gnu/Scrt1.o
 *(.rela.fini)
 *(.rela.rodata .rela.rodata.* .rela.gnu.linkonce.r.*)
 *(.rela.data .rela.data.* .rela.gnu.linkonce.d.*)
 .rela.data.rel.ro
                0x0000000000001678        0x0 /usr/lib/gcc/x86_64-linux-gnu/11/../../../x86_64-linux-gnu/Scrt1.o
 .rela.data.rel.local
                0x0000000000001678      0x6d8 /usr/lib/gcc/x86_64-linux-gnu/11/../../../x86_64-linux-gnu/Scrt1.o
 .rela.data.rel
                0x0000000000001d50      0x150 /usr/lib/gcc/x86_64-linux-gnu/11/../../../x86_64-linux-gnu/Scrt1.o
 .rela.data.rel.ro.local
                0x0000000000001ea0     0x1bc0 /usr/lib/gcc/x86_64-linux-gnu/11/../../../x86_64-linux-gnu/Scrt1.o
 .rela.data.rel.local.DW.ref.__gxx_personality_v0
                0x0000000000003a60       0x18 /usr/lib/gcc/x86_64-linux-gnu/11/../../../x86_64-linux-gnu/Scrt1.o
 .rela.data.rel.ro.local._ZTVN4agge5joins5miterE
                0x0000000000003a78       0x60 /usr/lib/gcc/x86_64-linux-gnu/11/../../../x86_64-linux-gnu/Scrt1.o
 .rela.data.rel.ro.local._ZTVN4agge5joins5roundE
                0x0000000000003ad8       0x60 /usr/lib/gcc/x86_64-linux-gnu/11/../../../x86_64-linux-gnu/Scrt1.o
 .rela.data.rel.ro.local._ZTVN4agge5joins5bevelE
                0x0000000000003b38       0x60 /usr/lib/gcc/x86_64-linux-gnu/11/../../../x86_64-linux-gnu/Scrt1.o
 .rela.data.rel.ro.local._ZTVN4agge4caps8triangleE
                0x0000000000003b98       0x60 /usr/lib/gcc/x86_64-linux-gnu/11/../../../x86_64-linux-gnu/Scrt1.o
 .rela.data.rel.ro.local._ZTVN4agge4caps5roundE
                0x0000000000003bf8       0x60 /usr/lib/gcc/x86_64-linux-gnu/11/../../../x86_64-linux-gnu/Scrt1.o
 .rela.data.rel.ro.local._ZTVN4agge4caps6squareE
                0x0000000000003c58       0x60 /usr/lib/gcc/x86_64-linux-gnu/11/../../../x86_64-linux-gnu/Scrt1.o
 .rela.data.rel.ro.local._ZTVN4agge4caps4buttE
                0x0000000000003cb8       0x60 /usr/lib/gcc/x86_64-linux-gnu/11/../../../x86_64-linux-gnu/Scrt1.o
 .rela.data.rel.ro._ZTVN4agge6stroke4joinE
                0x0000000000003d18       0x30 /usr/lib/gcc/x86_64-linux-gnu/11/../../../x86_64-linux-gnu/Scrt1.o
 .rela.data.rel.ro._ZTVN4agge6stroke3capE
                0x0000000000003d48       0x30 /usr/lib/gcc/x86_64-linux-gnu/11/../../../x86_64-linux-gnu/Scrt1.o
 .rela.data.rel.ro._ZTIN4agge5joins5miterE
                0x0000000000003d78       0x48 /usr/lib/gcc/x86_64-linux-gnu/11/../../../x86_64-linux-gnu/Scrt1.o
 .rela.data.rel.ro._ZTIN4agge5joins5roundE
                0x0000000000003dc0       0x48 /usr/lib/gcc/x86_64-linux-gnu/11/../../../x86_64-linux-gnu/Scrt1.o
 .rela.data.rel.ro._ZTIN4agge5joins5bevelE
                0x0000000000003e08       0x48 /usr/lib/gcc/x86_64-linux-gnu/11/../../../x86_64-linux-gnu/Scrt1.o
 .rela.data.rel.ro._ZTIN4agge4caps8triangleE
                0x0000000000003e50       0x48 /usr/lib/gcc/x86_64-linux-gnu/11/../../../x86_64-linux-gnu/Scrt1.o
 .rela.data.rel.ro._ZTIN4agge4caps5roundE
                0x0000000000003e98       0x48 /usr/lib/gcc/x86_64-linux-gnu/11/../../../x86_64-linux-gnu/Scrt1.o
 .rela.data.rel.ro._ZTIN4agge4caps6squareE
                0x0000000000003ee0       0x48 /usr/lib/gcc/x86_64-linux-gnu/11/../../../x86_64-linux-gnu/Scrt1.o
 .rela.data.rel.ro._ZTIN4agge4caps4buttE
                0x0000000000003f28       0x48 /usr/lib/gcc/x86_64-linux-gnu/11/../../../x86_64-linux-gnu/Scrt1.o
 .rela.data.rel.ro._ZTIN4agge6stroke4joinE
                0x0000000000003f70       0x30 /usr/lib/gcc/x86_64-linux-gnu/11/../../../x86_64-linux-gnu/Scrt1.o
 .rela.data.rel.ro._ZTIN4agge6stroke3capE
                0x0000000000003fa0       0x30 /usr/lib/gcc/x86_64-linux-gnu/11/../../../x86_64-linux-gnu/Scrt1.o
 *(.rela.tdata .rela.tdata.* .rela.gnu.linkonce.td.*)
 *(.rela.tbss .rela.tbss.* .rela.gnu.linkonce.tb.*)
 *(.rela.ctors)
 *(.rela.dtors)
 *(.rela.got)
 .rela.got      0x0000000000003fd0       0xc0 /usr/lib/gcc/x86_64-linux-gnu/11/../../../x86_64-linux-gnu/Scrt1.o
 *(.rela.bss .rela.bss.* .rela.gnu.linkonce.b.*)
 .rela.bss      0x0000000000004090       0x18 /usr/lib/gcc/x86_64-linux-gnu/11/../../../x86_64-linux-gnu/Scrt1.o
 *(.rela.ldata .rela.ldata.* .rela.gnu.linkonce.l.*)
 *(.rela.lbss .rela.lbss.* .rela.gnu.linkonce.lb.*)
 *(.rela.lrodata .rela.lrodata.* .rela.gnu.linkonce.lr.*)
 *(.rela.ifunc)
 .rela.ifunc    0x00000000000040a8        0x0 /usr/lib/gcc/x86_64-linux-gnu/11/../../../x86_64-linux-gnu/Scrt1.o
 .rela.fini_array
                0x00000000000040a8       0x18 /usr/lib/gcc/x86_64-linux-gnu/11/../../../x86_64-linux-gnu/Scrt1.o
 .rela.init_array
                0x00000000000040c0       0x30 /usr/lib/gcc/x86_64-linux-gnu/11/../../../x86_64-linux-gnu/Scrt1.o
 .rela.eh_frame
                0x00000000000040f0        0x0 /usr/lib/gcc/x86_64-linux-gnu/11/../../../x86_64-linux-gnu/Scrt1.o
 .relashellCommand
                0x00000000000040f0      0x4b0 /usr/lib/gcc/x86_64-linux-gnu/11/../../../x86_64-linux-gnu/Scrt1.o
 .rela.honeygui$init6
                0x00000000000045a0       0x18 /usr/lib/gcc/x86_64-linux-gnu/11/../../../x86_64-linux-gnu/Scrt1.o
 .rela.honeygui$init7
                0x00000000000045b8       0x18 /usr/lib/gcc/x86_64-linux-gnu/11/../../../x86_64-linux-gnu/Scrt1.o

.rela.plt       0x00000000000045d0      0x960
 *(.rela.plt)
 .rela.plt      0x00000000000045d0      0x960 /usr/lib/gcc/x86_64-linux-gnu/11/../../../x86_64-linux-gnu/Scrt1.o
 *(.rela.iplt)

.relr.dyn
 *(.relr.dyn)
                0x0000000000005000                . = ALIGN (CONSTANT (MAXPAGESIZE))

.init           0x0000000000005000       0x1b
 *(SORT_NONE(.init))
 .init          0x0000000000005000       0x16 /usr/lib/gcc/x86_64-linux-gnu/11/../../../x86_64-linux-gnu/crti.o
                0x0000000000005000                _init
 .init          0x0000000000005016        0x5 /usr/lib/gcc/x86_64-linux-gnu/11/../../../x86_64-linux-gnu/crtn.o

.plt            0x0000000000005020      0x650
 *(.plt)
 .plt           0x0000000000005020      0x650 /usr/lib/gcc/x86_64-linux-gnu/11/../../../x86_64-linux-gnu/Scrt1.o
 *(.iplt)

.plt.got        0x0000000000005670       0x40
 *(.plt.got)
 .plt.got       0x0000000000005670       0x40 /usr/lib/gcc/x86_64-linux-gnu/11/../../../x86_64-linux-gnu/Scrt1.o
                0x0000000000005670                realloc@@GLIBC_2.2.5
                0x0000000000005680                free@@GLIBC_2.2.5
                0x0000000000005690                __cxa_finalize@@GLIBC_2.2.5
                0x00000000000056a0                malloc@@GLIBC_2.2.5

.plt.sec        0x00000000000056b0      0x640
 *(.plt.sec)
 .plt.sec       0x00000000000056b0      0x640 /usr/lib/gcc/x86_64-linux-gnu/11/../../../x86_64-linux-gnu/Scrt1.o
                0x00000000000056b0                feof@@GLIBC_2.2.5
                0x00000000000056c0                sinf@@GLIBC_2.2.5
                0x00000000000056d0                printf@@GLIBC_2.2.5
                0x00000000000056e0                memcpy@@GLIBC_2.14
                0x00000000000056f0                __isoc99_sscanf@@GLIBC_2.7
                0x0000000000005700                pthread_mutex_destroy@@GLIBC_2.2.5
                0x0000000000005710                floor@@GLIBC_2.2.5
                0x0000000000005720                __ctype_b_loc@@GLIBC_2.3
                0x0000000000005730                exp@@GLIBC_2.29
                0x0000000000005740                fmaxf@@GLIBC_2.2.5
                0x0000000000005750                strncpy@@GLIBC_2.2.5
                0x0000000000005760                operator new(unsigned long)@@GLIBCXX_3.4
                0x0000000000005770                memmove@@GLIBC_2.2.5
                0x0000000000005780                __assert_fail@@GLIBC_2.2.5
                0x0000000000005790                fprintf@@GLIBC_2.2.5
                0x00000000000057a0                strncmp@@GLIBC_2.2.5
                0x00000000000057b0                pthread_mutex_unlock@@GLIBC_2.2.5
                0x00000000000057c0                ungetc@@GLIBC_2.2.5
                0x00000000000057d0                ftell@@GLIBC_2.2.5
                0x00000000000057e0                pthread_mutex_lock@@GLIBC_2.2.5
                0x00000000000057f0                __stack_chk_fail@@GLIBC_2.4
                0x0000000000005800                pthread_cond_destroy@@GLIBC_2.3.2
                0x0000000000005810                atan2f@@GLIBC_2.2.5
                0x0000000000005820                pthread_join@@GLIBC_2.34
                0x0000000000005830                memset@@GLIBC_2.2.5
                0x0000000000005840                SDL_Quit
                0x0000000000005850                pow@@GLIBC_2.29
                0x0000000000005860                operator delete[](void*)@@GLIBCXX_3.4
                0x0000000000005870                roundf@@GLIBC_2.2.5
                0x0000000000005880                ceilf@@GLIBC_2.2.5
                0x0000000000005890                pthread_mutex_init@@GLIBC_2.2.5
                0x00000000000058a0                strlen@@GLIBC_2.2.5
                0x00000000000058b0                strcpy@@GLIBC_2.2.5
                0x00000000000058c0                SDL_CreateWindow
                0x00000000000058d0                pthread_cond_init@@GLIBC_2.3.2
                0x00000000000058e0                fclose@@GLIBC_2.2.5
                0x00000000000058f0                open@@GLIBC_2.2.5
                0x0000000000005900                SDL_CreateRGBSurfaceWithFormat
                0x0000000000005910                operator new[](unsigned long)@@GLIBCXX_3.4
                0x0000000000005920                strstr@@GLIBC_2.2.5
                0x0000000000005930                sqrt@@GLIBC_2.2.5
                0x0000000000005940                gettimeofday@@GLIBC_2.2.5
                0x0000000000005950                SDL_GetWindowSurface
                0x0000000000005960                snprintf@@GLIBC_2.2.5
                0x0000000000005970                pthread_cond_wait@@GLIBC_2.3.2
                0x0000000000005980                strchr@@GLIBC_2.2.5
                0x0000000000005990                fread@@GLIBC_2.2.5
                0x00000000000059a0                operator delete(void*)@@GLIBCXX_3.4
                0x00000000000059b0                strspn@@GLIBC_2.2.5
                0x00000000000059c0                closedir@@GLIBC_2.2.5
                0x00000000000059d0                acosf@@GLIBC_2.2.5
                0x00000000000059e0                opendir@@GLIBC_2.2.5
                0x00000000000059f0                fgetc@@GLIBC_2.2.5
                0x0000000000005a00                _Unwind_Resume@@GCC_3.0
                0x0000000000005a10                strcat@@GLIBC_2.2.5
                0x0000000000005a20                vsnprintf@@GLIBC_2.2.5
                0x0000000000005a30                cosf@@GLIBC_2.2.5
                0x0000000000005a40                pthread_cond_signal@@GLIBC_2.3.2
                0x0000000000005a50                SDL_GetKeyName
                0x0000000000005a60                time@@GLIBC_2.2.5
                0x0000000000005a70                strcspn@@GLIBC_2.2.5
                0x0000000000005a80                ferror@@GLIBC_2.2.5
                0x0000000000005a90                readdir@@GLIBC_2.2.5
                0x0000000000005aa0                floorf@@GLIBC_2.2.5
                0x0000000000005ab0                tanf@@GLIBC_2.2.5
                0x0000000000005ac0                SDL_PushEvent
                0x0000000000005ad0                pthread_cond_timedwait@@GLIBC_2.3.2
                0x0000000000005ae0                SDL_UpperBlit
                0x0000000000005af0                __cxa_throw_bad_array_new_length@@CXXABI_1.3.8
                0x0000000000005b00                SDL_WaitEventTimeout
                0x0000000000005b10                strcmp@@GLIBC_2.2.5
                0x0000000000005b20                powf@@GLIBC_2.27
                0x0000000000005b30                tolower@@GLIBC_2.2.5
                0x0000000000005b40                strtol@@GLIBC_2.2.5
                0x0000000000005b50                pthread_setname_np@@GLIBC_2.34
                0x0000000000005b60                fmod@@GLIBC_2.2.5
                0x0000000000005b70                fstat@@GLIBC_2.33
                0x0000000000005b80                round@@GLIBC_2.2.5
                0x0000000000005b90                SDL_memset
                0x0000000000005ba0                sqrtf@@GLIBC_2.2.5
                0x0000000000005bb0                fminf@@GLIBC_2.2.5
                0x0000000000005bc0                ctime@@GLIBC_2.2.5
                0x0000000000005bd0                sprintf@@GLIBC_2.2.5
                0x0000000000005be0                SDL_GetError
                0x0000000000005bf0                pthread_cancel@@GLIBC_2.34
                0x0000000000005c00                usleep@@GLIBC_2.2.5
                0x0000000000005c10                ceil@@GLIBC_2.2.5
                0x0000000000005c20                fwrite@@GLIBC_2.2.5
                0x0000000000005c30                memcmp@@GLIBC_2.2.5
                0x0000000000005c40                sleep@@GLIBC_2.2.5
                0x0000000000005c50                pthread_create@@GLIBC_2.34
                0x0000000000005c60                SDL_UpdateWindowSurface
                0x0000000000005c70                atanf@@GLIBC_2.2.5
                0x0000000000005c80                fseek@@GLIBC_2.2.5
                0x0000000000005c90                SDL_LogSetPriority
                0x0000000000005ca0                fopen@@GLIBC_2.2.5
                0x0000000000005cb0                SDL_LogError
                0x0000000000005cc0                SDL_Init
                0x0000000000005cd0                fmodf@@GLIBC_2.2.5
                0x0000000000005ce0                strtod@@GLIBC_2.2.5

.text           0x0000000000005cf0    0xf9d24
 *(.text.unlikely .text.*_unlikely .text.unlikely.*)
 *(.text.exit .text.exit.*)
 *(.text.startup .text.startup.*)
 *(.text.hot .text.hot.*)
 *(SORT_BY_NAME(.text.sorted.*))
 *(.text .stub .text.* .gnu.linkonce.t.*)
 .text          0x0000000000005cf0       0x26 /usr/lib/gcc/x86_64-linux-gnu/11/../../../x86_64-linux-gnu/Scrt1.o
                0x0000000000005cf0                _start
 .text          0x0000000000005d16        0x0 /usr/lib/gcc/x86_64-linux-gnu/11/../../../x86_64-linux-gnu/crti.o
 *fill*         0x0000000000005d16        0xa 
 .text          0x0000000000005d20       0xb9 /usr/lib/gcc/x86_64-linux-gnu/11/crtbeginS.o
 .text          0x0000000000005dd9       0x9b build/main.o
                0x0000000000005dd9                main
 .text          0x0000000000005e74       0x32 build/port/realgui_port/gui_port_acc.o
                0x0000000000005e74                gui_port_acc_init
 .text          0x0000000000005ea6      0x118 build/port/realgui_port/gui_port_dc.o
                0x0000000000005ea6                port_gui_lcd_update
                0x0000000000005f3c                gui_port_dc_init
 .text          0x0000000000005fbe      0x353 build/port/realgui_port/gui_port_filesystem.o
                0x0000000000006201                port_fstat
                0x00000000000062f7                gui_port_fs_init
 .text          0x0000000000006311       0x99 build/port/realgui_port/gui_port_ftl.o
                0x0000000000006311                port_ftl_read
                0x0000000000006346                port_ftl_write
                0x000000000000637b                port_ftl_erase
                0x0000000000006390                gui_port_ftl_init
 .text          0x00000000000063aa       0x63 build/port/realgui_port/gui_port_indev.o
                0x00000000000063aa                port_touchpad_get_data
                0x00000000000063c6                port_kb_get_data
                0x00000000000063d7                port_wheel_get_data
                0x00000000000063f3                gui_port_indev_init
 .text          0x000000000000640d      0x761 build/port/realgui_port/gui_port_os.o
                0x0000000000006acb                gui_port_os_init
 .text          0x0000000000006b6e      0x22c build/port/realgui_port/gui_queue.o
                0x0000000000006b6e                BuyQueueNode
                0x0000000000006bb5                QueueInit
                0x0000000000006bdb                QueuePush
                0x0000000000006c4c                QueuePop
                0x0000000000006c95                QueueFront
                0x0000000000006ccd                QueueBack
                0x0000000000006d06                QueueEmpty
                0x0000000000006d24                QueueSize
                0x0000000000006d5f                QueueDestroy
 .text          0x0000000000006d9a      0x7e3 build/port/realgui_port/sdl_driver.o
                0x0000000000006d9a                sdl_driver_update_window
                0x0000000000007098                sdl_driver_thread
                0x00000000000074c3                sdl_driver_init
 .text          0x000000000000757d      0x2b7 /home/wh/.HoneyGUI-SDK/realgui/input/kb_algo.o
                0x00000000000076db                kb_algo_process
                0x0000000000007823                kb_get_info
 .text          0x0000000000007834      0xea1 /home/wh/.HoneyGUI-SDK/realgui/input/tp_algo.o
                0x0000000000008575                tp_algo_process
                0x00000000000086c4                tp_get_info
 .text          0x00000000000086d5      0x26e /home/wh/.HoneyGUI-SDK/realgui/input/wheel_algo.o
                0x00000000000086d5                wheel_algo_process
                0x0000000000008932                wheel_get_info
 .text          0x0000000000008943       0x2b /home/wh/.HoneyGUI-SDK/realgui/server/gui_api_acc.o
                0x0000000000008943                gui_acc_info_register
                0x000000000000895d                gui_get_acc
 .text          0x000000000000896e      0xc31 /home/wh/.HoneyGUI-SDK/realgui/server/gui_api_color.o
                0x0000000000008c20                gui_rgba
                0x0000000000008c5b                gui_rgb
                0x0000000000008c92                gui_color_css
                0x00000000000092fc                gui_memset8
                0x000000000000932c                gui_memset16
                0x000000000000936f                gui_memset32
                0x00000000000093b1                gui_fb_clear
 .text          0x000000000000959f      0x26a /home/wh/.HoneyGUI-SDK/realgui/server/gui_api_dc.o
                0x000000000000959f                gui_dc_info_register
                0x00000000000096e9                gui_get_dc
                0x00000000000096fa                gui_get_screen_width
                0x0000000000009711                gui_get_screen_height
                0x0000000000009729                gui_flash_boost
                0x0000000000009757                gui_flash_boost_disable
                0x0000000000009785                gui_display_on
                0x00000000000097c7                gui_display_off
 .text          0x0000000000009809      0x90d /home/wh/.HoneyGUI-SDK/realgui/server/gui_api_fs.o
                0x0000000000009809                gui_change_default_path
                0x000000000000990f                gui_fs_info_register
                0x0000000000009929                gui_fs_open
                0x00000000000099b2                gui_fs_close
                0x0000000000009a2d                gui_fs_read
                0x0000000000009abc                gui_fs_write
                0x0000000000009b4b                gui_fs_lseek
                0x0000000000009bd5                gui_fs_ioctl
                0x0000000000009c5d                gui_fs_closedir
                0x0000000000009cdb                gui_fs_opendir
                0x0000000000009d59                gui_fs_readdir
                0x0000000000009dd7                gui_fs_fstat
                0x0000000000009e5e                gui_strdup
                0x0000000000009ebd                gui_filepath_transforming
                0x0000000000009f8e                gui_get_path_by_relative
                0x000000000000a00b                gui_get_file_address
 .text          0x000000000000a116       0xf6 /home/wh/.HoneyGUI-SDK/realgui/server/gui_api_ftl.o
                0x000000000000a116                gui_ftl_info_register
                0x000000000000a130                gui_ftl_read
                0x000000000000a17d                gui_ftl_write
                0x000000000000a1cc                gui_ftl_erase
 .text          0x000000000000a20c      0x146 /home/wh/.HoneyGUI-SDK/realgui/server/gui_api_indev.o
                0x000000000000a20c                gui_indev_info_register
                0x000000000000a226                gui_get_indev
                0x000000000000a237                ext_button_set_indicate
                0x000000000000a26e                touchpad_get_data
                0x000000000000a2ba                kb_get_data
                0x000000000000a306                wheel_get_data
 .text          0x000000000000a352      0xef5 /home/wh/.HoneyGUI-SDK/realgui/server/gui_api_os.o
                0x000000000000a3fe                gui_os_api_register
                0x000000000000a4aa                gui_thread_create
                0x000000000000a50b                gui_thread_delete
                0x000000000000a548                gui_thread_suspend
                0x000000000000a585                gui_thread_resume
                0x000000000000a5c2                gui_thread_mdelay
                0x000000000000a5fc                gui_set_tick_hook
                0x000000000000a61d                gui_mq_create
                0x000000000000a66f                gui_mq_send
                0x000000000000a6c1                gui_mq_send_urgent
                0x000000000000a713                gui_mq_recv
                0x000000000000a765                gui_malloc
                0x000000000000a846                gui_calloc
                0x000000000000a994                gui_realloc
                0x000000000000ab17                gui_free
                0x000000000000ac4c                gui_mem_debug
                0x000000000000aceb                gui_mem_used
                0x000000000000ad5d                gui_lower_malloc
                0x000000000000ade4                gui_lower_realloc
                0x000000000000ae73                gui_lower_free
                0x000000000000aec6                gui_lower_mem_debug
                0x000000000000af1c                gui_low_mem_used
                0x000000000000af8e                gui_sleep_cb
                0x000000000000afb6                gui_log
                0x000000000000b0c2                gui_log_hexdump
                0x000000000000b16e                gui_assert_handler
                0x000000000000b1eb                gui_ms_get
                0x000000000000b219                gui_us_get
 .text          0x000000000000b247       0x57 /home/wh/.HoneyGUI-SDK/realgui/server/gui_components_init.o
                0x000000000000b247                gui_components_init
 .text          0x000000000000b29e      0x26f /home/wh/.HoneyGUI-SDK/realgui/server/gui_message.o
                0x000000000000b29e                gui_set_keep_active_time
                0x000000000000b2b5                gui_server_msg_init
                0x000000000000b2e3                gui_recv_msg_to_server
                0x000000000000b38f                gui_send_msg_to_server
                0x000000000000b406                gui_server_exec_cb
                0x000000000000b46e                gui_server_msg_handler
 .text          0x000000000000b50d       0x11 /home/wh/.HoneyGUI-SDK/realgui/server/gui_pm.o
                0x000000000000b50d                gui_server_dlps_check
 .text          0x000000000000b51e      0x1ee /home/wh/.HoneyGUI-SDK/realgui/server/gui_server.o
                0x000000000000b51e                gui_task_ext_execution_sethook
                0x000000000000b61d                gui_server_init
 .text          0x000000000000b70c     0x5363 /home/wh/.HoneyGUI-SDK/realgui/3rd/cJSON/cJSON.o
                0x000000000000b70c                cJSON_GetErrorPtr
                0x000000000000b727                cJSON_GetStringValue
                0x000000000000b758                cJSON_GetNumberValue
                0x000000000000b797                cJSON_Version
                0x000000000000b90a                cJSON_InitHooks
                0x000000000000ba24                cJSON_Delete
                0x000000000000bd4b                cJSON_SetNumberHelper
                0x000000000000bdc7                cJSON_SetValuestring
                0x000000000000cfe9                cJSON_ParseWithOpts
                0x000000000000d03b                cJSON_ParseWithLengthOpts
                0x000000000000d24f                cJSON_Parse
                0x000000000000d277                cJSON_ParseWithLength
                0x000000000000d47d                cJSON_Print
                0x000000000000d4a7                cJSON_PrintUnformatted
                0x000000000000d4d1                cJSON_PrintBuffered
                0x000000000000d5fa                cJSON_PrintPreallocated
                0x000000000000e842                cJSON_GetArraySize
                0x000000000000e8ef                cJSON_GetArrayItem
                0x000000000000e9fb                cJSON_GetObjectItem
                0x000000000000ea29                cJSON_GetObjectItemCaseSensitive
                0x000000000000ea57                cJSON_HasObjectItem
                0x000000000000ec01                cJSON_AddItemToArray
                0x000000000000ed48                cJSON_AddItemToObject
                0x000000000000ed83                cJSON_AddItemToObjectCS
                0x000000000000edbe                cJSON_AddItemReferenceToArray
                0x000000000000ee0a                cJSON_AddItemReferenceToObject
                0x000000000000ee75                cJSON_AddNullToObject
                0x000000000000eed0                cJSON_AddTrueToObject
                0x000000000000ef2b                cJSON_AddFalseToObject
                0x000000000000ef86                cJSON_AddBoolToObject
                0x000000000000efe9                cJSON_AddNumberToObject
                0x000000000000f052                cJSON_AddStringToObject
                0x000000000000f0b8                cJSON_AddRawToObject
                0x000000000000f11e                cJSON_AddObjectToObject
                0x000000000000f179                cJSON_AddArrayToObject
                0x000000000000f1d4                cJSON_DetachItemViaPointer
                0x000000000000f297                cJSON_DetachItemFromArray
                0x000000000000f2e0                cJSON_DeleteItemFromArray
                0x000000000000f30f                cJSON_DetachItemFromObject
                0x000000000000f34f                cJSON_DetachItemFromObjectCaseSensitive
                0x000000000000f38f                cJSON_DeleteItemFromObject
                0x000000000000f3c1                cJSON_DeleteItemFromObjectCaseSensitive
                0x000000000000f3f3                cJSON_InsertItemInArray
                0x000000000000f4d9                cJSON_ReplaceItemViaPointer
                0x000000000000f60d                cJSON_ReplaceItemInArray
                0x000000000000f731                cJSON_ReplaceItemInObject
                0x000000000000f764                cJSON_ReplaceItemInObjectCaseSensitive
                0x000000000000f797                cJSON_CreateNull
                0x000000000000f7ce                cJSON_CreateTrue
                0x000000000000f805                cJSON_CreateFalse
                0x000000000000f83c                cJSON_CreateBool
                0x000000000000f884                cJSON_CreateNumber
                0x000000000000f916                cJSON_CreateString
                0x000000000000f98f                cJSON_CreateStringReference
                0x000000000000f9de                cJSON_CreateObjectReference
                0x000000000000fa2d                cJSON_CreateArrayReference
                0x000000000000fa7c                cJSON_CreateRaw
                0x000000000000faf5                cJSON_CreateArray
                0x000000000000fb2c                cJSON_CreateObject
                0x000000000000fb63                cJSON_CreateIntArray
                0x000000000000fc7f                cJSON_CreateFloatArray
                0x000000000000fda0                cJSON_CreateDoubleArray
                0x000000000000feb0                cJSON_CreateStringArray
                0x000000000000ffbe                cJSON_Duplicate
                0x00000000000103d1                cJSON_Minify
                0x0000000000010505                cJSON_IsInvalid
                0x0000000000010533                cJSON_IsFalse
                0x0000000000010562                cJSON_IsTrue
                0x0000000000010591                cJSON_IsBool
                0x00000000000105bf                cJSON_IsNull
                0x00000000000105ee                cJSON_IsNumber
                0x000000000001061d                cJSON_IsString
                0x000000000001064c                cJSON_IsArray
                0x000000000001067b                cJSON_IsObject
                0x00000000000106aa                cJSON_IsRaw
                0x00000000000106db                cJSON_Compare
                0x0000000000010a2a                cJSON_malloc
                0x0000000000010a4c                cJSON_free
 .text          0x0000000000010a6f       0xcc /home/wh/.HoneyGUI-SDK/realgui/3rd/nanovg/base/nanovg_port.o
                0x0000000000010a6f                nanovg_port_malloc
                0x0000000000010a8d                nanovg_port_realloc
                0x0000000000010ab6                nanovg_port_free
                0x0000000000010ad5                nanovg_realloc
                0x0000000000010afe                nanovg_malloc
                0x0000000000010b1c                nanovg_free
 .text          0x0000000000010b3b     0x7f34 /home/wh/.HoneyGUI-SDK/realgui/3rd/nanovg/base/nanovg.o
                0x0000000000010b3b                nvg__sqrtf
                0x0000000000010b5a                nvg__modf
                0x0000000000010b86                nvg__sinf
                0x0000000000010ba5                nvg__cosf
                0x0000000000010bc4                nvg__tanf
                0x0000000000010be3                nvg__atan2f
                0x0000000000010c0f                nvg__acosf
                0x000000000001119c                nvgCreateInternal
                0x0000000000011352                nvgInternalParams
                0x0000000000011364                nvgDeleteInternal
                0x00000000000113ed                nvgBeginFrame
                0x00000000000114ab                nvgCancelFrame
                0x00000000000114d2                nvgEndFrame
                0x00000000000116af                nvgRGB
                0x000000000001170c                nvgRGBf
                0x0000000000011773                nvgRGBA
                0x0000000000011847                nvgRGBAf
                0x00000000000118d1                nvgTransRGBA
                0x0000000000011933                nvgTransRGBAf
                0x0000000000011982                nvgLerpRGBA
                0x0000000000011a92                nvgHSL
                0x0000000000011be3                nvgHSLA
                0x0000000000011e09                nvgTransformIdentity
                0x0000000000011eb0                nvgTransformTranslate
                0x0000000000011f63                nvgTransformScale
                0x000000000001200e                nvgTransformRotate
                0x00000000000120eb                nvgTransformSkewX
                0x00000000000121aa                nvgTransformSkewY
                0x0000000000012269                nvgTransformMultiply
                0x0000000000012644                nvgTransformPremultiply
                0x00000000000126c1                nvgTransformInverse
                0x0000000000012875                nvgTransformPoint
                0x000000000001295c                nvgDegToRad
                0x000000000001298b                nvgRadToDeg
                0x0000000000012a4b                nvgSave
                0x0000000000012afe                nvgRestore
                0x0000000000012b35                nvgReset
                0x0000000000012d1d                nvgShapeAntiAlias
                0x0000000000012d4d                nvgStrokeWidth
                0x0000000000012d86                nvgMiterLimit
                0x0000000000012dbf                nvgLineCap
                0x0000000000012e18                nvgLineJoin
                0x0000000000012e4b                nvgGlobalAlpha
                0x0000000000012e84                nvgTransformxyz
                0x0000000000012f66                nvgTransform
                0x000000000001303f                nvgResetTransform
                0x0000000000013074                nvgTranslate
                0x00000000000130f9                nvgRotate
                0x0000000000013171                nvgSkewX
                0x00000000000131e9                nvgSkewY
                0x0000000000013261                nvgScale
                0x00000000000132e6                nvgCurrentTransform
                0x0000000000013335                nvgStrokeColor
                0x0000000000013390                nvgStrokePaint
                0x000000000001344a                nvgFillColor
                0x00000000000134a5                nvgFillPaint
                0x0000000000013547                nvgCreateImage
                0x0000000000013561                nvgCreateImageMem
                0x000000000001357e                nvgCreateImageRGBA
                0x00000000000135ca                nvgUpdateImage
                0x0000000000013660                nvgImageSize
                0x000000000001369e                nvgDeleteImage
                0x00000000000136cd                nvgLinearGradient
                0x00000000000139ab                nvgRadialGradient
                0x0000000000013bb5                nvgBoxGradient
                0x0000000000013da0                nvgImagePattern
                0x0000000000013f2c                nvgScissor
                0x000000000001418d                nvgIntersectScissor
                0x00000000000143fa                nvgResetScissor
                0x0000000000014461                nvgGlobalCompositeOperation
                0x00000000000144a1                nvgGlobalCompositeBlendFunc
                0x00000000000144d5                nvgGlobalCompositeBlendFuncSeparate
                0x0000000000016767                nvgBeginPath
                0x0000000000016794                nvgMoveTo
                0x0000000000016809                nvgLineTo
                0x0000000000016882                nvgBezierTo
                0x0000000000016937                nvgQuadTo
                0x0000000000016a68                nvgArcTo
                0x0000000000016eab                nvgClosePath
                0x0000000000016f06                nvgPathWinding
                0x0000000000016f72                nvgArc
                0x00000000000175a1                nvgRect
                0x00000000000176a4                nvgRoundedRect
                0x000000000001771b                nvgRoundedRectVarying
                0x0000000000017e65                nvgEllipse
                0x000000000001819f                nvgCircle
                0x00000000000181ec                nvgFill
                0x00000000000184c9                nvgStroke
                0x00000000000188de                nvgFontSize
                0x0000000000018917                nvgFontBlur
                0x000000000001892b                nvgTextLetterSpacing
                0x000000000001893f                nvgTextLineHeight
                0x0000000000018953                nvgTextAlign
                0x0000000000018965                nvgFontFaceId
                0x0000000000018977                nvgFontFace
                0x000000000001898a                nvgCreateFontMem
                0x00000000000189ac                nvgFindFont
                0x00000000000189c3                nvgText
                0x00000000000189e7                nvgTextBounds
                0x0000000000018a0f                nvgGetParams
                0x0000000000018a21                nvgCreateImageRaw
 .text          0x0000000000018a6f       0xd4 /home/wh/.HoneyGUI-SDK/realgui/3rd/nanovg/agge/math.o
                0x0000000000018a6f                agge::sqrt(float)
                0x0000000000018a8e                agge::sqrt(double)
                0x0000000000018ab9                agge::sin(float)
                0x0000000000018ad8                agge::cos(float)
 *fill*         0x0000000000018b43        0x1 
 .text._ZN4agge6limitsIfE10resolutionEv
                0x0000000000018b44       0x12 /home/wh/.HoneyGUI-SDK/realgui/3rd/nanovg/agge/math.o
                0x0000000000018b44                agge::limits<float>::resolution()
 .text          0x0000000000018b56      0x7c0 /home/wh/.HoneyGUI-SDK/realgui/3rd/nanovg/agge/stroke.o
                0x0000000000018b56                agge::stroke::stroke()
                0x0000000000018b56                agge::stroke::stroke()
                0x0000000000018bf6                agge::stroke::~stroke()
                0x0000000000018bf6                agge::stroke::~stroke()
                0x0000000000018c5e                agge::stroke::remove_all()
                0x0000000000018c88                agge::stroke::close_polygon()
                0x0000000000018cce                agge::stroke::add_vertex(float, float, int)
                0x0000000000018d0e                agge::stroke::vertex(float*, float*)
                0x000000000001920e                agge::stroke::width(float)
                0x000000000001923c                agge::stroke::prepare()
                0x00000000000192ee                agge::stroke::set_state(int)
 .text._ZN4agge11noncopyableC2Ev
                0x0000000000019316        0xf /home/wh/.HoneyGUI-SDK/realgui/3rd/nanovg/agge/stroke.o
                0x0000000000019316                agge::noncopyable::noncopyable()
                0x0000000000019316                agge::noncopyable::noncopyable()
 .text._ZN4agge8distanceEffff
                0x0000000000019325       0x66 /home/wh/.HoneyGUI-SDK/realgui/3rd/nanovg/agge/stroke.o
                0x0000000000019325                agge::distance(float, float, float, float)
 .text._ZN4agge8distanceERKNS_5pointIfEES3_
                0x000000000001938b       0x48 /home/wh/.HoneyGUI-SDK/realgui/3rd/nanovg/agge/stroke.o
                0x000000000001938b                agge::distance(agge::point<float> const&, agge::point<float> const&)
 *fill*         0x00000000000193d3        0x1 
 .text._ZN4agge15vertex_sequence7move_toEff
                0x00000000000193d4       0x76 /home/wh/.HoneyGUI-SDK/realgui/3rd/nanovg/agge/stroke.o
                0x00000000000193d4                agge::vertex_sequence::move_to(float, float)
 .text._ZN4agge15vertex_sequence7line_toEff
                0x000000000001944a       0xc6 /home/wh/.HoneyGUI-SDK/realgui/3rd/nanovg/agge/stroke.o
                0x000000000001944a                agge::vertex_sequence::line_to(float, float)
 .text._ZN4agge15vertex_sequence13close_polygonEv
                0x0000000000019510       0x78 /home/wh/.HoneyGUI-SDK/realgui/3rd/nanovg/agge/stroke.o
                0x0000000000019510                agge::vertex_sequence::close_polygon()
 .text._ZN4agge15vertex_sequence12set_distanceERNS_6vertexERKNS_5pointIfEE
                0x0000000000019588       0x4b /home/wh/.HoneyGUI-SDK/realgui/3rd/nanovg/agge/stroke.o
                0x0000000000019588                agge::vertex_sequence::set_distance(agge::vertex&, agge::point<float> const&)
 .text._ZN4agge8is_closeEi
                0x00000000000195d3       0x18 /home/wh/.HoneyGUI-SDK/realgui/3rd/nanovg/agge/stroke.o
                0x00000000000195d3                agge::is_close(int)
 *fill*         0x00000000000195eb        0x1 
 .text._ZN4agge15vertex_sequenceC2Ev
                0x00000000000195ec       0x24 /home/wh/.HoneyGUI-SDK/realgui/3rd/nanovg/agge/stroke.o
                0x00000000000195ec                agge::vertex_sequence::vertex_sequence()
                0x00000000000195ec                agge::vertex_sequence::vertex_sequence()
 .text._ZN4agge15vertex_sequenceD2Ev
                0x0000000000019610       0x1f /home/wh/.HoneyGUI-SDK/realgui/3rd/nanovg/agge/stroke.o
                0x0000000000019610                agge::vertex_sequence::~vertex_sequence()
                0x0000000000019610                agge::vertex_sequence::~vertex_sequence()
 *fill*         0x000000000001962f        0x1 
 .text._ZN4agge10pod_vectorINS_6vertexEE9push_backERKS1_
                0x0000000000019630       0x68 /home/wh/.HoneyGUI-SDK/realgui/3rd/nanovg/agge/stroke.o
                0x0000000000019630                agge::pod_vector<agge::vertex>::push_back(agge::vertex const&)
 .text._ZNK4agge10pod_vectorINS_6vertexEE5emptyEv
                0x0000000000019698       0x23 /home/wh/.HoneyGUI-SDK/realgui/3rd/nanovg/agge/stroke.o
                0x0000000000019698                agge::pod_vector<agge::vertex>::empty() const
 *fill*         0x00000000000196bb        0x1 
 .text._ZN4agge10pod_vectorINS_6vertexEE3endEv
                0x00000000000196bc       0x16 /home/wh/.HoneyGUI-SDK/realgui/3rd/nanovg/agge/stroke.o
                0x00000000000196bc                agge::pod_vector<agge::vertex>::end()
 .text._ZN4agge10pod_vectorINS_6vertexEE5beginEv
                0x00000000000196d2       0x15 /home/wh/.HoneyGUI-SDK/realgui/3rd/nanovg/agge/stroke.o
                0x00000000000196d2                agge::pod_vector<agge::vertex>::begin()
 *fill*         0x00000000000196e7        0x1 
 .text._ZN4agge10pod_vectorINS_6vertexEE8pop_backEv
                0x00000000000196e8       0x23 /home/wh/.HoneyGUI-SDK/realgui/3rd/nanovg/agge/stroke.o
                0x00000000000196e8                agge::pod_vector<agge::vertex>::pop_back()
 *fill*         0x000000000001970b        0x1 
 .text._ZN4agge10pod_vectorINS_5pointIfEEE3endEv
                0x000000000001970c       0x16 /home/wh/.HoneyGUI-SDK/realgui/3rd/nanovg/agge/stroke.o
                0x000000000001970c                agge::pod_vector<agge::point<float> >::end()
 .text._ZN4agge10pod_vectorINS_6vertexEEC2Ej
                0x0000000000019722       0x4a /home/wh/.HoneyGUI-SDK/realgui/3rd/nanovg/agge/stroke.o
                0x0000000000019722                agge::pod_vector<agge::vertex>::pod_vector(unsigned int)
                0x0000000000019722                agge::pod_vector<agge::vertex>::pod_vector(unsigned int)
 .text._ZN4agge10pod_vectorINS_6vertexEED2Ev
                0x000000000001976c       0x2e /home/wh/.HoneyGUI-SDK/realgui/3rd/nanovg/agge/stroke.o
                0x000000000001976c                agge::pod_vector<agge::vertex>::~pod_vector()
                0x000000000001976c                agge::pod_vector<agge::vertex>::~pod_vector()
 .text._ZN4agge10pod_vectorINS_5pointIfEEEC2Ej
                0x000000000001979a       0x4a /home/wh/.HoneyGUI-SDK/realgui/3rd/nanovg/agge/stroke.o
                0x000000000001979a                agge::pod_vector<agge::point<float> >::pod_vector(unsigned int)
                0x000000000001979a                agge::pod_vector<agge::point<float> >::pod_vector(unsigned int)
 .text._ZN4agge10pod_vectorINS_5pointIfEEED2Ev
                0x00000000000197e4       0x2e /home/wh/.HoneyGUI-SDK/realgui/3rd/nanovg/agge/stroke.o
                0x00000000000197e4                agge::pod_vector<agge::point<float> >::~pod_vector()
                0x00000000000197e4                agge::pod_vector<agge::point<float> >::~pod_vector()
 .text._ZN4agge10pod_vectorINS_6vertexEE5clearEv
                0x0000000000019812       0x1e /home/wh/.HoneyGUI-SDK/realgui/3rd/nanovg/agge/stroke.o
                0x0000000000019812                agge::pod_vector<agge::vertex>::clear()
 .text._ZN4agge19add_polyline_vertexINS_6strokeEEEvRT_ffi
                0x0000000000019830       0x88 /home/wh/.HoneyGUI-SDK/realgui/3rd/nanovg/agge/stroke.o
                0x0000000000019830                void agge::add_polyline_vertex<agge::stroke>(agge::stroke&, float, float, int)
 .text._ZN4agge10pod_vectorINS_5pointIfEEE5clearEv
                0x00000000000198b8       0x1e /home/wh/.HoneyGUI-SDK/realgui/3rd/nanovg/agge/stroke.o
                0x00000000000198b8                agge::pod_vector<agge::point<float> >::clear()
 .text._ZN4agge10pod_vectorINS_5pointIfEEE5beginEv
                0x00000000000198d6       0x15 /home/wh/.HoneyGUI-SDK/realgui/3rd/nanovg/agge/stroke.o
                0x00000000000198d6                agge::pod_vector<agge::point<float> >::begin()
 *fill*         0x00000000000198eb        0x1 
 .text._ZNK4agge10pod_vectorINS_6vertexEE4sizeEv
                0x00000000000198ec       0x38 /home/wh/.HoneyGUI-SDK/realgui/3rd/nanovg/agge/stroke.o
                0x00000000000198ec                agge::pod_vector<agge::vertex>::size() const
 .text._ZN4agge10pod_vectorINS_6vertexEE4growEj
                0x0000000000019924      0x16e /home/wh/.HoneyGUI-SDK/realgui/3rd/nanovg/agge/stroke.o
                0x0000000000019924                agge::pod_vector<agge::vertex>::grow(unsigned int)
 .text._ZN4agge10pod_vectorINS_6vertexEE6resizeEj
                0x0000000000019a92       0x72 /home/wh/.HoneyGUI-SDK/realgui/3rd/nanovg/agge/stroke.o
                0x0000000000019a92                agge::pod_vector<agge::vertex>::resize(unsigned int)
 .text._ZN4agge10pod_vectorINS_5pointIfEEE6resizeEj
                0x0000000000019b04       0x68 /home/wh/.HoneyGUI-SDK/realgui/3rd/nanovg/agge/stroke.o
                0x0000000000019b04                agge::pod_vector<agge::point<float> >::resize(unsigned int)
 .text._ZNK4agge10pod_vectorINS_6vertexEE8capacityEv
                0x0000000000019b6c       0x38 /home/wh/.HoneyGUI-SDK/realgui/3rd/nanovg/agge/stroke.o
                0x0000000000019b6c                agge::pod_vector<agge::vertex>::capacity() const
 .text._ZN4agge8agge_maxIjEET_RKS1_S3_
                0x0000000000019ba4       0x30 /home/wh/.HoneyGUI-SDK/realgui/3rd/nanovg/agge/stroke.o
                0x0000000000019ba4                unsigned int agge::agge_max<unsigned int>(unsigned int const&, unsigned int const&)
 .text._ZNK4agge10pod_vectorINS_5pointIfEEE8capacityEv
                0x0000000000019bd4       0x27 /home/wh/.HoneyGUI-SDK/realgui/3rd/nanovg/agge/stroke.o
                0x0000000000019bd4                agge::pod_vector<agge::point<float> >::capacity() const
 *fill*         0x0000000000019bfb        0x1 
 .text._ZN4agge10pod_vectorINS_5pointIfEEE4growEj
                0x0000000000019bfc      0x14b /home/wh/.HoneyGUI-SDK/realgui/3rd/nanovg/agge/stroke.o
                0x0000000000019bfc                agge::pod_vector<agge::point<float> >::grow(unsigned int)
 *fill*         0x0000000000019d47        0x1 
 .text._ZNK4agge10pod_vectorINS_5pointIfEEE4sizeEv
                0x0000000000019d48       0x27 /home/wh/.HoneyGUI-SDK/realgui/3rd/nanovg/agge/stroke.o
                0x0000000000019d48                agge::pod_vector<agge::point<float> >::size() const
 *fill*         0x0000000000019d6f        0x1 
 .text          0x0000000000019d70     0x1c8f /home/wh/.HoneyGUI-SDK/realgui/3rd/nanovg/agge/stroke_features.o
                0x0000000000019d70                agge::caps::butt::calc(agge::pod_vector<agge::point<float> >&, float, agge::point<float> const&, float, agge::point<float> const&) const
                0x0000000000019ea0                agge::caps::square::calc(agge::pod_vector<agge::point<float> >&, float, agge::point<float> const&, float, agge::point<float> const&) const
                0x000000000001a1d8                agge::caps::round::calc(agge::pod_vector<agge::point<float> >&, float, agge::point<float> const&, float, agge::point<float> const&) const
                0x000000000001a454                agge::caps::triangle::triangle(float)
                0x000000000001a454                agge::caps::triangle::triangle(float)
                0x000000000001a494                agge::caps::triangle::calc(agge::pod_vector<agge::point<float> >&, float, agge::point<float> const&, float, agge::point<float> const&) const
                0x000000000001a628                agge::joins::bevel::calc(agge::pod_vector<agge::point<float> >&, float, agge::point<float> const&, float, agge::point<float> const&, float, agge::point<float> const&) const
                0x000000000001a7b5                agge::joins::get_lines_midpoint(agge::point<float> const&, float, agge::point<float> const&, float, agge::point<float> const&, float&, float&)
                0x000000000001aa72                agge::joins::round::calc(agge::pod_vector<agge::point<float> >&, float, agge::point<float> const&, float, agge::point<float> const&, float, agge::point<float> const&) const
                0x000000000001af6d                agge::joins::get_new_edge_point(agge::point<float> const&, agge::point<float> const&, agge::point<float> const&, float, float, float, float, float, float&, float&, bool&)
                0x000000000001b408                agge::joins::miter::calc(agge::pod_vector<agge::point<float> >&, float, agge::point<float> const&, float, agge::point<float> const&, float, agge::point<float> const&) const
 *fill*         0x000000000001b9ff        0x1 
 .text._ZN4agge6stroke3capD2Ev
                0x000000000001ba00       0x1d /home/wh/.HoneyGUI-SDK/realgui/3rd/nanovg/agge/stroke_features.o
                0x000000000001ba00                agge::stroke::cap::~cap()
                0x000000000001ba00                agge::stroke::cap::~cap()
 *fill*         0x000000000001ba1d        0x1 
 .text._ZN4agge6stroke3capD0Ev
                0x000000000001ba1e       0x2a /home/wh/.HoneyGUI-SDK/realgui/3rd/nanovg/agge/stroke_features.o
                0x000000000001ba1e                agge::stroke::cap::~cap()
 .text._ZN4agge6stroke4joinD2Ev
                0x000000000001ba48       0x1d /home/wh/.HoneyGUI-SDK/realgui/3rd/nanovg/agge/stroke_features.o
                0x000000000001ba48                agge::stroke::join::~join()
                0x000000000001ba48                agge::stroke::join::~join()
 *fill*         0x000000000001ba65        0x1 
 .text._ZN4agge6stroke4joinD0Ev
                0x000000000001ba66       0x2a /home/wh/.HoneyGUI-SDK/realgui/3rd/nanovg/agge/stroke_features.o
                0x000000000001ba66                agge::stroke::join::~join()
 .text._ZSt4atanf
                0x000000000001ba90       0x1f /home/wh/.HoneyGUI-SDK/realgui/3rd/nanovg/agge/stroke_features.o
                0x000000000001ba90                std::atan(float)
 .text._ZSt4fabsf
                0x000000000001baaf       0x1f /home/wh/.HoneyGUI-SDK/realgui/3rd/nanovg/agge/stroke_features.o
                0x000000000001baaf                std::fabs(float)
 .text._ZN4agge6stroke3capC2Ev
                0x000000000001bace       0x1d /home/wh/.HoneyGUI-SDK/realgui/3rd/nanovg/agge/stroke_features.o
                0x000000000001bace                agge::stroke::cap::cap()
                0x000000000001bace                agge::stroke::cap::cap()
 .text._ZN4agge12create_pointIfEENS_5pointIT_EES2_S2_
                0x000000000001baeb       0x5b /home/wh/.HoneyGUI-SDK/realgui/3rd/nanovg/agge/stroke_features.o
                0x000000000001baeb                agge::point<float> agge::create_point<float>(float, float)
 .text._ZN4agge10pod_vectorINS_5pointIfEEE9push_backERKS2_
                0x000000000001bb46       0x62 /home/wh/.HoneyGUI-SDK/realgui/3rd/nanovg/agge/stroke_features.o
                0x000000000001bb46                agge::pod_vector<agge::point<float> >::push_back(agge::point<float> const&)
 .text._ZN4agge5joins5miterD2Ev
                0x000000000001bba8       0x2d /home/wh/.HoneyGUI-SDK/realgui/3rd/nanovg/agge/stroke_features.o
                0x000000000001bba8                agge::joins::miter::~miter()
                0x000000000001bba8                agge::joins::miter::~miter()
 *fill*         0x000000000001bbd5        0x1 
 .text._ZN4agge5joins5miterD0Ev
                0x000000000001bbd6       0x2a /home/wh/.HoneyGUI-SDK/realgui/3rd/nanovg/agge/stroke_features.o
                0x000000000001bbd6                agge::joins::miter::~miter()
 .text._ZN4agge5joins5roundD2Ev
                0x000000000001bc00       0x2d /home/wh/.HoneyGUI-SDK/realgui/3rd/nanovg/agge/stroke_features.o
                0x000000000001bc00                agge::joins::round::~round()
                0x000000000001bc00                agge::joins::round::~round()
 *fill*         0x000000000001bc2d        0x1 
 .text._ZN4agge5joins5roundD0Ev
                0x000000000001bc2e       0x2a /home/wh/.HoneyGUI-SDK/realgui/3rd/nanovg/agge/stroke_features.o
                0x000000000001bc2e                agge::joins::round::~round()
 .text._ZN4agge5joins5bevelD2Ev
                0x000000000001bc58       0x2d /home/wh/.HoneyGUI-SDK/realgui/3rd/nanovg/agge/stroke_features.o
                0x000000000001bc58                agge::joins::bevel::~bevel()
                0x000000000001bc58                agge::joins::bevel::~bevel()
 *fill*         0x000000000001bc85        0x1 
 .text._ZN4agge5joins5bevelD0Ev
                0x000000000001bc86       0x2a /home/wh/.HoneyGUI-SDK/realgui/3rd/nanovg/agge/stroke_features.o
                0x000000000001bc86                agge::joins::bevel::~bevel()
 .text._ZN4agge4caps8triangleD2Ev
                0x000000000001bcb0       0x2d /home/wh/.HoneyGUI-SDK/realgui/3rd/nanovg/agge/stroke_features.o
                0x000000000001bcb0                agge::caps::triangle::~triangle()
                0x000000000001bcb0                agge::caps::triangle::~triangle()
 *fill*         0x000000000001bcdd        0x1 
 .text._ZN4agge4caps8triangleD0Ev
                0x000000000001bcde       0x2a /home/wh/.HoneyGUI-SDK/realgui/3rd/nanovg/agge/stroke_features.o
                0x000000000001bcde                agge::caps::triangle::~triangle()
 .text._ZN4agge4caps5roundD2Ev
                0x000000000001bd08       0x2d /home/wh/.HoneyGUI-SDK/realgui/3rd/nanovg/agge/stroke_features.o
                0x000000000001bd08                agge::caps::round::~round()
                0x000000000001bd08                agge::caps::round::~round()
 *fill*         0x000000000001bd35        0x1 
 .text._ZN4agge4caps5roundD0Ev
                0x000000000001bd36       0x2a /home/wh/.HoneyGUI-SDK/realgui/3rd/nanovg/agge/stroke_features.o
                0x000000000001bd36                agge::caps::round::~round()
 .text._ZN4agge4caps6squareD2Ev
                0x000000000001bd60       0x2d /home/wh/.HoneyGUI-SDK/realgui/3rd/nanovg/agge/stroke_features.o
                0x000000000001bd60                agge::caps::square::~square()
                0x000000000001bd60                agge::caps::square::~square()
 *fill*         0x000000000001bd8d        0x1 
 .text._ZN4agge4caps6squareD0Ev
                0x000000000001bd8e       0x2a /home/wh/.HoneyGUI-SDK/realgui/3rd/nanovg/agge/stroke_features.o
                0x000000000001bd8e                agge::caps::square::~square()
 .text._ZN4agge4caps4buttD2Ev
                0x000000000001bdb8       0x2d /home/wh/.HoneyGUI-SDK/realgui/3rd/nanovg/agge/stroke_features.o
                0x000000000001bdb8                agge::caps::butt::~butt()
                0x000000000001bdb8                agge::caps::butt::~butt()
 *fill*         0x000000000001bde5        0x1 
 .text._ZN4agge4caps4buttD0Ev
                0x000000000001bde6       0x2a /home/wh/.HoneyGUI-SDK/realgui/3rd/nanovg/agge/stroke_features.o
                0x000000000001bde6                agge::caps::butt::~butt()
 .text          0x000000000001be10     0x1d6b /home/wh/.HoneyGUI-SDK/realgui/3rd/nanovg/agge/vector_rasterizer.o
                0x000000000001bffa                agge::vector_rasterizer::vector_rasterizer()
                0x000000000001bffa                agge::vector_rasterizer::vector_rasterizer()
                0x000000000001c0d8                agge::vector_rasterizer::reset()
                0x000000000001c186                agge::vector_rasterizer::line(int, int, int, int)
                0x000000000001d28a                agge::vector_rasterizer::append(agge::vector_rasterizer const&, int, int)
                0x000000000001d47c                agge::vector_rasterizer::sort(bool)
                0x000000000001d9e4                agge::vector_rasterizer::extend_bounds(int, int)
 *fill*         0x000000000001db7b        0x1 
 .text._ZNK4agge17vector_rasterizer5emptyEv
                0x000000000001db7c       0x21 /home/wh/.HoneyGUI-SDK/realgui/3rd/nanovg/agge/vector_rasterizer.o
                0x000000000001db7c                agge::vector_rasterizer::empty() const
 *fill*         0x000000000001db9d        0x1 
 .text._ZNK4agge17vector_rasterizer5widthEv
                0x000000000001db9e       0x3e /home/wh/.HoneyGUI-SDK/realgui/3rd/nanovg/agge/vector_rasterizer.o
                0x000000000001db9e                agge::vector_rasterizer::width() const
 .text._ZNK4agge17vector_rasterizer6heightEv
                0x000000000001dbdc       0x3e /home/wh/.HoneyGUI-SDK/realgui/3rd/nanovg/agge/vector_rasterizer.o
                0x000000000001dbdc                agge::vector_rasterizer::height() const
 .text._ZN4agge13precise_delta8multiplyEi
                0x000000000001dc1a       0x26 /home/wh/.HoneyGUI-SDK/realgui/3rd/nanovg/agge/vector_rasterizer.o
                0x000000000001dc1a                agge::precise_delta::multiply(int)
 .text._ZN4agge13precise_delta4nextEv
                0x000000000001dc40       0x5a /home/wh/.HoneyGUI-SDK/realgui/3rd/nanovg/agge/vector_rasterizer.o
                0x000000000001dc40                agge::precise_delta::next()
 .text._ZNK4agge10pod_vectorINS_17vector_rasterizer4cellEE5beginEv
                0x000000000001dc9a       0x15 /home/wh/.HoneyGUI-SDK/realgui/3rd/nanovg/agge/vector_rasterizer.o
                0x000000000001dc9a                agge::pod_vector<agge::vector_rasterizer::cell>::begin() const
 *fill*         0x000000000001dcaf        0x1 
 .text._ZN4agge10pod_vectorINS_17vector_rasterizer4cellEEC2Ej
                0x000000000001dcb0       0x4a /home/wh/.HoneyGUI-SDK/realgui/3rd/nanovg/agge/vector_rasterizer.o
                0x000000000001dcb0                agge::pod_vector<agge::vector_rasterizer::cell>::pod_vector(unsigned int)
                0x000000000001dcb0                agge::pod_vector<agge::vector_rasterizer::cell>::pod_vector(unsigned int)
 .text._ZN4agge10pod_vectorINS_17vector_rasterizer4cellEED2Ev
                0x000000000001dcfa       0x2e /home/wh/.HoneyGUI-SDK/realgui/3rd/nanovg/agge/vector_rasterizer.o
                0x000000000001dcfa                agge::pod_vector<agge::vector_rasterizer::cell>::~pod_vector()
                0x000000000001dcfa                agge::pod_vector<agge::vector_rasterizer::cell>::~pod_vector()
 .text._ZN4agge10pod_vectorIjEC2Ej
                0x000000000001dd28       0x4a /home/wh/.HoneyGUI-SDK/realgui/3rd/nanovg/agge/vector_rasterizer.o
                0x000000000001dd28                agge::pod_vector<unsigned int>::pod_vector(unsigned int)
                0x000000000001dd28                agge::pod_vector<unsigned int>::pod_vector(unsigned int)
 .text._ZN4agge10pod_vectorIjED2Ev
                0x000000000001dd72       0x2e /home/wh/.HoneyGUI-SDK/realgui/3rd/nanovg/agge/vector_rasterizer.o
                0x000000000001dd72                agge::pod_vector<unsigned int>::~pod_vector()
                0x000000000001dd72                agge::pod_vector<unsigned int>::~pod_vector()
 .text._ZN4agge10pod_vectorINS_17vector_rasterizer4cellEE6assignEjRKS2_
                0x000000000001dda0       0x5e /home/wh/.HoneyGUI-SDK/realgui/3rd/nanovg/agge/vector_rasterizer.o
                0x000000000001dda0                agge::pod_vector<agge::vector_rasterizer::cell>::assign(unsigned int, agge::vector_rasterizer::cell const&)
 .text._ZN4agge10pod_vectorIjE5clearEv
                0x000000000001ddfe       0x1e /home/wh/.HoneyGUI-SDK/realgui/3rd/nanovg/agge/vector_rasterizer.o
                0x000000000001ddfe                agge::pod_vector<unsigned int>::clear()
 .text._ZN4agge8agge_maxIiEET_RKS1_S3_
                0x000000000001de1c       0x30 /home/wh/.HoneyGUI-SDK/realgui/3rd/nanovg/agge/vector_rasterizer.o
                0x000000000001de1c                int agge::agge_max<int>(int const&, int const&)
 .text._ZN4agge10pod_vectorINS_17vector_rasterizer4cellEE7set_endEPS2_
                0x000000000001de4c       0x1f /home/wh/.HoneyGUI-SDK/realgui/3rd/nanovg/agge/vector_rasterizer.o
                0x000000000001de4c                agge::pod_vector<agge::vector_rasterizer::cell>::set_end(agge::vector_rasterizer::cell*)
 *fill*         0x000000000001de6b        0x1 
 .text._ZN4agge10pod_vectorINS_17vector_rasterizer4cellEE3endEv
                0x000000000001de6c       0x16 /home/wh/.HoneyGUI-SDK/realgui/3rd/nanovg/agge/vector_rasterizer.o
                0x000000000001de6c                agge::pod_vector<agge::vector_rasterizer::cell>::end()
 .text._ZNK4agge10pod_vectorINS_17vector_rasterizer4cellEE4sizeEv
                0x000000000001de82       0x37 /home/wh/.HoneyGUI-SDK/realgui/3rd/nanovg/agge/vector_rasterizer.o
                0x000000000001de82                agge::pod_vector<agge::vector_rasterizer::cell>::size() const
 *fill*         0x000000000001deb9        0x1 
 .text._ZN4agge10pod_vectorINS_17vector_rasterizer4cellEE6resizeEj
                0x000000000001deba       0x72 /home/wh/.HoneyGUI-SDK/realgui/3rd/nanovg/agge/vector_rasterizer.o
                0x000000000001deba                agge::pod_vector<agge::vector_rasterizer::cell>::resize(unsigned int)
 .text._ZN4agge10pod_vectorIjE6assignEjRKj
                0x000000000001df2c       0x54 /home/wh/.HoneyGUI-SDK/realgui/3rd/nanovg/agge/vector_rasterizer.o
                0x000000000001df2c                agge::pod_vector<unsigned int>::assign(unsigned int, unsigned int const&)
 .text._ZN4agge10pod_vectorIjEixEj
                0x000000000001df80       0x22 /home/wh/.HoneyGUI-SDK/realgui/3rd/nanovg/agge/vector_rasterizer.o
                0x000000000001df80                agge::pod_vector<unsigned int>::operator[](unsigned int)
 .text._ZN4agge10pod_vectorINS_17vector_rasterizer4cellEE5beginEv
                0x000000000001dfa2       0x15 /home/wh/.HoneyGUI-SDK/realgui/3rd/nanovg/agge/vector_rasterizer.o
                0x000000000001dfa2                agge::pod_vector<agge::vector_rasterizer::cell>::begin()
 *fill*         0x000000000001dfb7        0x1 
 .text._ZN4agge10pod_vectorINS_17vector_rasterizer4cellEE4swapERS3_
                0x000000000001dfb8       0x87 /home/wh/.HoneyGUI-SDK/realgui/3rd/nanovg/agge/vector_rasterizer.o
                0x000000000001dfb8                agge::pod_vector<agge::vector_rasterizer::cell>::swap(agge::pod_vector<agge::vector_rasterizer::cell>&)
 *fill*         0x000000000001e03f        0x1 
 .text._ZN4agge10pod_vectorIjE5beginEv
                0x000000000001e040       0x15 /home/wh/.HoneyGUI-SDK/realgui/3rd/nanovg/agge/vector_rasterizer.o
                0x000000000001e040                agge::pod_vector<unsigned int>::begin()
 *fill*         0x000000000001e055        0x1 
 .text._ZN4agge10pod_vectorIjE3endEv
                0x000000000001e056       0x16 /home/wh/.HoneyGUI-SDK/realgui/3rd/nanovg/agge/vector_rasterizer.o
                0x000000000001e056                agge::pod_vector<unsigned int>::end()
 .text._ZN4agge10pod_vectorIjE6resizeEj
                0x000000000001e06c       0x68 /home/wh/.HoneyGUI-SDK/realgui/3rd/nanovg/agge/vector_rasterizer.o
                0x000000000001e06c                agge::pod_vector<unsigned int>::resize(unsigned int)
 .text._ZNK4agge10pod_vectorINS_17vector_rasterizer4cellEE8capacityEv
                0x000000000001e0d4       0x37 /home/wh/.HoneyGUI-SDK/realgui/3rd/nanovg/agge/vector_rasterizer.o
                0x000000000001e0d4                agge::pod_vector<agge::vector_rasterizer::cell>::capacity() const
 *fill*         0x000000000001e10b        0x1 
 .text._ZN4agge10pod_vectorINS_17vector_rasterizer4cellEE4growEj
                0x000000000001e10c      0x170 /home/wh/.HoneyGUI-SDK/realgui/3rd/nanovg/agge/vector_rasterizer.o
                0x000000000001e10c                agge::pod_vector<agge::vector_rasterizer::cell>::grow(unsigned int)
 .text._ZNK4agge10pod_vectorIjE8capacityEv
                0x000000000001e27c       0x27 /home/wh/.HoneyGUI-SDK/realgui/3rd/nanovg/agge/vector_rasterizer.o
                0x000000000001e27c                agge::pod_vector<unsigned int>::capacity() const
 *fill*         0x000000000001e2a3        0x1 
 .text._ZN4agge10pod_vectorIjE4growEj
                0x000000000001e2a4      0x149 /home/wh/.HoneyGUI-SDK/realgui/3rd/nanovg/agge/vector_rasterizer.o
                0x000000000001e2a4                agge::pod_vector<unsigned int>::grow(unsigned int)
 *fill*         0x000000000001e3ed        0x1 
 .text._ZNK4agge10pod_vectorIjE4sizeEv
                0x000000000001e3ee       0x27 /home/wh/.HoneyGUI-SDK/realgui/3rd/nanovg/agge/vector_rasterizer.o
                0x000000000001e3ee                agge::pod_vector<unsigned int>::size() const
 .text          0x000000000001e415      0xc0e /home/wh/.HoneyGUI-SDK/realgui/3rd/nanovg/agge/nanovg_agge.o
                0x000000000001ec55                nvgReinitAgge
                0x000000000001ee29                nvgCreateAGGE
                0x000000000001f004                nvgDeleteAGGE
 .text._ZSt4ceilf
                0x000000000001f023       0x67 /home/wh/.HoneyGUI-SDK/realgui/3rd/nanovg/agge/nanovg_agge.o
                0x000000000001f023                std::ceil(float)
 .text._ZSt5floorf
                0x000000000001f08a       0x67 /home/wh/.HoneyGUI-SDK/realgui/3rd/nanovg/agge/nanovg_agge.o
                0x000000000001f08a                std::floor(float)
 .text._ZN4agge6iroundEf
                0x000000000001f0f1       0x49 /home/wh/.HoneyGUI-SDK/realgui/3rd/nanovg/agge/nanovg_agge.o
                0x000000000001f0f1                agge::iround(float)
 .text._ZN4agge6muldivEiii
                0x000000000001f13a       0x2d /home/wh/.HoneyGUI-SDK/realgui/3rd/nanovg/agge/nanovg_agge.o
                0x000000000001f13a                agge::muldiv(int, int, int)
 *fill*         0x000000000001f167        0x1 
 .text._ZN4agge12pixel32_rgbaC2Ev
                0x000000000001f168       0x2e /home/wh/.HoneyGUI-SDK/realgui/3rd/nanovg/agge/nanovg_agge.o
                0x000000000001f168                agge::pixel32_rgba::pixel32_rgba()
                0x000000000001f168                agge::pixel32_rgba::pixel32_rgba()
 .text._ZN4agge12pixel32_rgbaC2Ehhhh
                0x000000000001f196       0x4f /home/wh/.HoneyGUI-SDK/realgui/3rd/nanovg/agge/nanovg_agge.o
                0x000000000001f196                agge::pixel32_rgba::pixel32_rgba(unsigned char, unsigned char, unsigned char, unsigned char)
                0x000000000001f196                agge::pixel32_rgba::pixel32_rgba(unsigned char, unsigned char, unsigned char, unsigned char)
 .text._ZN4agge7pixel_aINS_12pixel32_rgbaEEEhRKT_h
                0x000000000001f1e5       0x28 /home/wh/.HoneyGUI-SDK/realgui/3rd/nanovg/agge/nanovg_agge.o
                0x000000000001f1e5                unsigned char agge::pixel_a<agge::pixel32_rgba>(agge::pixel32_rgba const&, unsigned char)
 .text._ZN4agge13pixel_convertINS_12pixel32_rgbaES1_EEvRT_RKT0_
                0x000000000001f20d       0x1f /home/wh/.HoneyGUI-SDK/realgui/3rd/nanovg/agge/nanovg_agge.o
                0x000000000001f20d                void agge::pixel_convert<agge::pixel32_rgba, agge::pixel32_rgba>(agge::pixel32_rgba&, agge::pixel32_rgba const&)
 .text._ZN4agge13pixel_convertINS_12pixel32_rgbaENS_12pixel32_bgraEEEvRT_RKT0_
                0x000000000001f22c       0x4d /home/wh/.HoneyGUI-SDK/realgui/3rd/nanovg/agge/nanovg_agge.o
                0x000000000001f22c                void agge::pixel_convert<agge::pixel32_rgba, agge::pixel32_bgra>(agge::pixel32_rgba&, agge::pixel32_bgra const&)
 .text._ZN4agge13pixel_convertINS_12pixel32_rgbaENS_14pixel16_bgr565EEEvRT_RKT0_
                0x000000000001f279       0x6c /home/wh/.HoneyGUI-SDK/realgui/3rd/nanovg/agge/nanovg_agge.o
                0x000000000001f279                void agge::pixel_convert<agge::pixel32_rgba, agge::pixel16_bgr565>(agge::pixel32_rgba&, agge::pixel16_bgr565 const&)
 .text._ZN4agge11pixel_blendINS_14pixel16_bgr565ENS_12pixel32_rgbaEEEvRT_RKT0_h
                0x000000000001f2e5      0x1db /home/wh/.HoneyGUI-SDK/realgui/3rd/nanovg/agge/nanovg_agge.o
                0x000000000001f2e5                void agge::pixel_blend<agge::pixel16_bgr565, agge::pixel32_rgba>(agge::pixel16_bgr565&, agge::pixel32_rgba const&, unsigned char)
 .text._ZN4agge11pixel_blendINS_12pixel32_bgraENS_12pixel32_rgbaEEEvRT_RKT0_h
                0x000000000001f4c0      0x198 /home/wh/.HoneyGUI-SDK/realgui/3rd/nanovg/agge/nanovg_agge.o
                0x000000000001f4c0                void agge::pixel_blend<agge::pixel32_bgra, agge::pixel32_rgba>(agge::pixel32_bgra&, agge::pixel32_rgba const&, unsigned char)
 .text._ZN4agge17raw_memory_objectC2Ev
                0x000000000001f658       0x35 /home/wh/.HoneyGUI-SDK/realgui/3rd/nanovg/agge/nanovg_agge.o
                0x000000000001f658                agge::raw_memory_object::raw_memory_object()
                0x000000000001f658                agge::raw_memory_object::raw_memory_object()
 *fill*         0x000000000001f68d        0x1 
 .text._ZN4agge17raw_memory_objectD2Ev
                0x000000000001f68e       0x2e /home/wh/.HoneyGUI-SDK/realgui/3rd/nanovg/agge/nanovg_agge.o
                0x000000000001f68e                agge::raw_memory_object::~raw_memory_object()
                0x000000000001f68e                agge::raw_memory_object::~raw_memory_object()
 .text._ZNK4agge17vector_rasterizerixEi
                0x000000000001f6bc       0xd3 /home/wh/.HoneyGUI-SDK/realgui/3rd/nanovg/agge/nanovg_agge.o
                0x000000000001f6bc                agge::vector_rasterizer::operator[](int) const
 *fill*         0x000000000001f78f        0x1 
 .text._ZNK4agge17vector_rasterizer5min_yEv
                0x000000000001f790       0x15 /home/wh/.HoneyGUI-SDK/realgui/3rd/nanovg/agge/nanovg_agge.o
                0x000000000001f790                agge::vector_rasterizer::min_y() const
 .text._ZN4agge7scalingIiE6scale1EffRiS2_
                0x000000000001f7a5       0x69 /home/wh/.HoneyGUI-SDK/realgui/3rd/nanovg/agge/nanovg_agge.o
                0x000000000001f7a5                agge::scaling<int>::scale1(float, float, int&, int&)
 .text._ZN4agge7scalingIiE6scale2EiiiiRiS2_S2_S2_
                0x000000000001f80e       0x43 /home/wh/.HoneyGUI-SDK/realgui/3rd/nanovg/agge/nanovg_agge.o
                0x000000000001f80e                agge::scaling<int>::scale2(int, int, int, int, int&, int&, int&, int&)
 *fill*         0x000000000001f851        0x1 
 .text._ZN4agge10raw_bitmapD2Ev
                0x000000000001f852        0xf /home/wh/.HoneyGUI-SDK/realgui/3rd/nanovg/agge/nanovg_agge.o
                0x000000000001f852                agge::raw_bitmap::~raw_bitmap()
                0x000000000001f852                agge::raw_bitmap::~raw_bitmap()
 *fill*         0x000000000001f861        0x1 
 .text._ZN4agge10raw_bitmapC2EjjjNS_14bits_per_pixelEPh
                0x000000000001f862       0x6f /home/wh/.HoneyGUI-SDK/realgui/3rd/nanovg/agge/nanovg_agge.o
                0x000000000001f862                agge::raw_bitmap::raw_bitmap(unsigned int, unsigned int, unsigned int, agge::bits_per_pixel, unsigned char*)
                0x000000000001f862                agge::raw_bitmap::raw_bitmap(unsigned int, unsigned int, unsigned int, agge::bits_per_pixel, unsigned char*)
 *fill*         0x000000000001f8d1        0x1 
 .text._ZNK4agge10raw_bitmap5widthEv
                0x000000000001f8d2       0x15 /home/wh/.HoneyGUI-SDK/realgui/3rd/nanovg/agge/nanovg_agge.o
                0x000000000001f8d2                agge::raw_bitmap::width() const
 *fill*         0x000000000001f8e7        0x1 
 .text._ZNK4agge10raw_bitmap6heightEv
                0x000000000001f8e8       0x15 /home/wh/.HoneyGUI-SDK/realgui/3rd/nanovg/agge/nanovg_agge.o
                0x000000000001f8e8                agge::raw_bitmap::height() const
 *fill*         0x000000000001f8fd        0x1 
 .text._ZN4agge10raw_bitmap7row_ptrEj
                0x000000000001f8fe       0x28 /home/wh/.HoneyGUI-SDK/realgui/3rd/nanovg/agge/nanovg_agge.o
                0x000000000001f8fe                agge::raw_bitmap::row_ptr(unsigned int)
 .text._ZN4agge8rendererC2Ev
                0x000000000001f926       0x1f /home/wh/.HoneyGUI-SDK/realgui/3rd/nanovg/agge/nanovg_agge.o
                0x000000000001f926                agge::renderer::renderer()
                0x000000000001f926                agge::renderer::renderer()
 *fill*         0x000000000001f945        0x1 
 .text._ZN4agge8rendererD2Ev
                0x000000000001f946       0x1f /home/wh/.HoneyGUI-SDK/realgui/3rd/nanovg/agge/nanovg_agge.o
                0x000000000001f946                agge::renderer::~renderer()
                0x000000000001f946                agge::renderer::~renderer()
 *fill*         0x000000000001f965        0x1 
 .text._ZN4agge17vector_rasterizerD2Ev
                0x000000000001f966       0x4f /home/wh/.HoneyGUI-SDK/realgui/3rd/nanovg/agge/nanovg_agge.o
                0x000000000001f966                agge::vector_rasterizer::~vector_rasterizer()
                0x000000000001f966                agge::vector_rasterizer::~vector_rasterizer()
 *fill*         0x000000000001f9b5        0x1 
 .text._ZN4agge10rasterizerINS_7clipperIiEENS_7scalingIiEEEC2Ev
                0x000000000001f9b6       0x2f /home/wh/.HoneyGUI-SDK/realgui/3rd/nanovg/agge/nanovg_agge.o
                0x000000000001f9b6                agge::rasterizer<agge::clipper<int>, agge::scaling<int> >::rasterizer()
                0x000000000001f9b6                agge::rasterizer<agge::clipper<int>, agge::scaling<int> >::rasterizer()
 *fill*         0x000000000001f9e5        0x1 
 .text._ZN4agge10rasterizerINS_7clipperIiEENS_7scalingIiEEED2Ev
                0x000000000001f9e6       0x1f /home/wh/.HoneyGUI-SDK/realgui/3rd/nanovg/agge/nanovg_agge.o
                0x000000000001f9e6                agge::rasterizer<agge::clipper<int>, agge::scaling<int> >::~rasterizer()
                0x000000000001f9e6                agge::rasterizer<agge::clipper<int>, agge::scaling<int> >::~rasterizer()
 *fill*         0x000000000001fa05        0x1 
 .text._ZN4agge4caps5roundC2Ev
                0x000000000001fa06       0x2d /home/wh/.HoneyGUI-SDK/realgui/3rd/nanovg/agge/nanovg_agge.o
                0x000000000001fa06                agge::caps::round::round()
                0x000000000001fa06                agge::caps::round::round()
 *fill*         0x000000000001fa33        0x1 
 .text._ZN4agge6stroke4joinC2Ev
                0x000000000001fa34       0x1d /home/wh/.HoneyGUI-SDK/realgui/3rd/nanovg/agge/nanovg_agge.o
                0x000000000001fa34                agge::stroke::join::join()
                0x000000000001fa34                agge::stroke::join::join()
 *fill*         0x000000000001fa51        0x1 
 .text._ZN4agge5joins5bevelC2Ev
                0x000000000001fa52       0x2d /home/wh/.HoneyGUI-SDK/realgui/3rd/nanovg/agge/nanovg_agge.o
                0x000000000001fa52                agge::joins::bevel::bevel()
                0x000000000001fa52                agge::joins::bevel::bevel()
 *fill*         0x000000000001fa7f        0x1 
 .text._ZN14AGGENVGcontextC2Ev
                0x000000000001fa80      0x1cd /home/wh/.HoneyGUI-SDK/realgui/3rd/nanovg/agge/nanovg_agge.o
                0x000000000001fa80                AGGENVGcontext::AGGENVGcontext()
                0x000000000001fa80                AGGENVGcontext::AGGENVGcontext()
 *fill*         0x000000000001fc4d        0x1 
 .text._ZN14AGGENVGcontextD2Ev
                0x000000000001fc4e       0x61 /home/wh/.HoneyGUI-SDK/realgui/3rd/nanovg/agge/nanovg_agge.o
                0x000000000001fc4e                AGGENVGcontext::~AGGENVGcontext()
                0x000000000001fc4e                AGGENVGcontext::~AGGENVGcontext()
 *fill*         0x000000000001fcaf        0x1 
 .text._ZN4agge4caps4buttC2Ev
                0x000000000001fcb0       0x2d /home/wh/.HoneyGUI-SDK/realgui/3rd/nanovg/agge/nanovg_agge.o
                0x000000000001fcb0                agge::caps::butt::butt()
                0x000000000001fcb0                agge::caps::butt::butt()
 *fill*         0x000000000001fcdd        0x1 
 .text._ZN4agge4caps6squareC2Ev
                0x000000000001fcde       0x2d /home/wh/.HoneyGUI-SDK/realgui/3rd/nanovg/agge/nanovg_agge.o
                0x000000000001fcde                agge::caps::square::square()
                0x000000000001fcde                agge::caps::square::square()
 *fill*         0x000000000001fd0b        0x1 
 .text._ZNK4agge10pod_vectorIjE5beginEv
                0x000000000001fd0c       0x15 /home/wh/.HoneyGUI-SDK/realgui/3rd/nanovg/agge/nanovg_agge.o
                0x000000000001fd0c                agge::pod_vector<unsigned int>::begin() const
 *fill*         0x000000000001fd21        0x1 
 .text._ZN4agge7clipperIiEC2Ev
                0x000000000001fd22       0x17 /home/wh/.HoneyGUI-SDK/realgui/3rd/nanovg/agge/nanovg_agge.o
                0x000000000001fd22                agge::clipper<int>::clipper()
                0x000000000001fd22                agge::clipper<int>::clipper()
 *fill*         0x000000000001fd39        0x1 
 .text._ZN4agge6stroke3capC2ERKS1_
                0x000000000001fd3a       0x21 /home/wh/.HoneyGUI-SDK/realgui/3rd/nanovg/agge/nanovg_agge.o
                0x000000000001fd3a                agge::stroke::cap::cap(agge::stroke::cap const&)
                0x000000000001fd3a                agge::stroke::cap::cap(agge::stroke::cap const&)
 *fill*         0x000000000001fd5b        0x1 
 .text._ZN4agge4caps5roundC2ERKS1_
                0x000000000001fd5c       0x38 /home/wh/.HoneyGUI-SDK/realgui/3rd/nanovg/agge/nanovg_agge.o
                0x000000000001fd5c                agge::caps::round::round(agge::caps::round const&)
                0x000000000001fd5c                agge::caps::round::round(agge::caps::round const&)
 .text._ZN4agge6stroke7set_capINS_4caps5roundEEEvRKT_
                0x000000000001fd94       0x64 /home/wh/.HoneyGUI-SDK/realgui/3rd/nanovg/agge/nanovg_agge.o
                0x000000000001fd94                void agge::stroke::set_cap<agge::caps::round>(agge::caps::round const&)
 .text._ZN4agge6stroke4joinC2ERKS1_
                0x000000000001fdf8       0x21 /home/wh/.HoneyGUI-SDK/realgui/3rd/nanovg/agge/nanovg_agge.o
                0x000000000001fdf8                agge::stroke::join::join(agge::stroke::join const&)
                0x000000000001fdf8                agge::stroke::join::join(agge::stroke::join const&)
 *fill*         0x000000000001fe19        0x1 
 .text._ZN4agge5joins5bevelC2ERKS1_
                0x000000000001fe1a       0x38 /home/wh/.HoneyGUI-SDK/realgui/3rd/nanovg/agge/nanovg_agge.o
                0x000000000001fe1a                agge::joins::bevel::bevel(agge::joins::bevel const&)
                0x000000000001fe1a                agge::joins::bevel::bevel(agge::joins::bevel const&)
 .text._ZN4agge6stroke8set_joinINS_5joins5bevelEEEvRKT_
                0x000000000001fe52       0x64 /home/wh/.HoneyGUI-SDK/realgui/3rd/nanovg/agge/nanovg_agge.o
                0x000000000001fe52                void agge::stroke::set_join<agge::joins::bevel>(agge::joins::bevel const&)
 .text._Z6mkrectIfEN4agge4rectIT_EES2_S2_S2_S2_
                0x000000000001feb6       0x8a /home/wh/.HoneyGUI-SDK/realgui/3rd/nanovg/agge/nanovg_agge.o
                0x000000000001feb6                agge::rect<float> mkrect<float>(float, float, float, float)
 .text._ZN4agge10rasterizerINS_7clipperIiEENS_7scalingIiEEE12set_clippingERKNS_4rectIfEE
                0x000000000001ff40       0xb0 /home/wh/.HoneyGUI-SDK/realgui/3rd/nanovg/agge/nanovg_agge.o
                0x000000000001ff40                agge::rasterizer<agge::clipper<int>, agge::scaling<int> >::set_clipping(agge::rect<float> const&)
 .text._Z12renderStrokeIN4agge12pixel32_rgbaEEvPvP8NVGpaint26NVGcompositeOperationStateP10NVGscissorffPK7NVGpathi
                0x000000000001fff0      0x1ae /home/wh/.HoneyGUI-SDK/realgui/3rd/nanovg/agge/nanovg_agge.o
                0x000000000001fff0                void renderStroke<agge::pixel32_rgba>(void*, NVGpaint*, NVGcompositeOperationState, NVGscissor*, float, float, NVGpath const*, int)
 .text._Z10renderFillIN4agge12pixel32_rgbaEEvPvP8NVGpaint26NVGcompositeOperationStateP10NVGscissorfPKfPK7NVGpathi
                0x000000000002019e      0x144 /home/wh/.HoneyGUI-SDK/realgui/3rd/nanovg/agge/nanovg_agge.o
                0x000000000002019e                void renderFill<agge::pixel32_rgba>(void*, NVGpaint*, NVGcompositeOperationState, NVGscissor*, float, float const*, NVGpath const*, int)
 .text._Z12renderStrokeIN4agge12pixel32_bgraEEvPvP8NVGpaint26NVGcompositeOperationStateP10NVGscissorffPK7NVGpathi
                0x00000000000202e2      0x1ae /home/wh/.HoneyGUI-SDK/realgui/3rd/nanovg/agge/nanovg_agge.o
                0x00000000000202e2                void renderStroke<agge::pixel32_bgra>(void*, NVGpaint*, NVGcompositeOperationState, NVGscissor*, float, float, NVGpath const*, int)
 .text._Z10renderFillIN4agge12pixel32_bgraEEvPvP8NVGpaint26NVGcompositeOperationStateP10NVGscissorfPKfPK7NVGpathi
                0x0000000000020490      0x144 /home/wh/.HoneyGUI-SDK/realgui/3rd/nanovg/agge/nanovg_agge.o
                0x0000000000020490                void renderFill<agge::pixel32_bgra>(void*, NVGpaint*, NVGcompositeOperationState, NVGscissor*, float, float const*, NVGpath const*, int)
 .text._Z12renderStrokeIN4agge11pixel24_rgbEEvPvP8NVGpaint26NVGcompositeOperationStateP10NVGscissorffPK7NVGpathi
                0x00000000000205d4      0x1ae /home/wh/.HoneyGUI-SDK/realgui/3rd/nanovg/agge/nanovg_agge.o
                0x00000000000205d4                void renderStroke<agge::pixel24_rgb>(void*, NVGpaint*, NVGcompositeOperationState, NVGscissor*, float, float, NVGpath const*, int)
 .text._Z10renderFillIN4agge11pixel24_rgbEEvPvP8NVGpaint26NVGcompositeOperationStateP10NVGscissorfPKfPK7NVGpathi
                0x0000000000020782      0x144 /home/wh/.HoneyGUI-SDK/realgui/3rd/nanovg/agge/nanovg_agge.o
                0x0000000000020782                void renderFill<agge::pixel24_rgb>(void*, NVGpaint*, NVGcompositeOperationState, NVGscissor*, float, float const*, NVGpath const*, int)
 .text._Z12renderStrokeIN4agge11pixel24_bgrEEvPvP8NVGpaint26NVGcompositeOperationStateP10NVGscissorffPK7NVGpathi
                0x00000000000208c6      0x1ae /home/wh/.HoneyGUI-SDK/realgui/3rd/nanovg/agge/nanovg_agge.o
                0x00000000000208c6                void renderStroke<agge::pixel24_bgr>(void*, NVGpaint*, NVGcompositeOperationState, NVGscissor*, float, float, NVGpath const*, int)
 .text._Z10renderFillIN4agge11pixel24_bgrEEvPvP8NVGpaint26NVGcompositeOperationStateP10NVGscissorfPKfPK7NVGpathi
                0x0000000000020a74      0x144 /home/wh/.HoneyGUI-SDK/realgui/3rd/nanovg/agge/nanovg_agge.o
                0x0000000000020a74                void renderFill<agge::pixel24_bgr>(void*, NVGpaint*, NVGcompositeOperationState, NVGscissor*, float, float const*, NVGpath const*, int)
 .text._Z12renderStrokeIN4agge14pixel16_bgr565EEvPvP8NVGpaint26NVGcompositeOperationStateP10NVGscissorffPK7NVGpathi
                0x0000000000020bb8      0x1ae /home/wh/.HoneyGUI-SDK/realgui/3rd/nanovg/agge/nanovg_agge.o
                0x0000000000020bb8                void renderStroke<agge::pixel16_bgr565>(void*, NVGpaint*, NVGcompositeOperationState, NVGscissor*, float, float, NVGpath const*, int)
 .text._Z10renderFillIN4agge14pixel16_bgr565EEvPvP8NVGpaint26NVGcompositeOperationStateP10NVGscissorfPKfPK7NVGpathi
                0x0000000000020d66      0x144 /home/wh/.HoneyGUI-SDK/realgui/3rd/nanovg/agge/nanovg_agge.o
                0x0000000000020d66                void renderFill<agge::pixel16_bgr565>(void*, NVGpaint*, NVGcompositeOperationState, NVGscissor*, float, float const*, NVGpath const*, int)
 .text._ZN4agge4caps4buttC2ERKS1_
                0x0000000000020eaa       0x38 /home/wh/.HoneyGUI-SDK/realgui/3rd/nanovg/agge/nanovg_agge.o
                0x0000000000020eaa                agge::caps::butt::butt(agge::caps::butt const&)
                0x0000000000020eaa                agge::caps::butt::butt(agge::caps::butt const&)
 .text._ZN4agge6stroke7set_capINS_4caps4buttEEEvRKT_
                0x0000000000020ee2       0x64 /home/wh/.HoneyGUI-SDK/realgui/3rd/nanovg/agge/nanovg_agge.o
                0x0000000000020ee2                void agge::stroke::set_cap<agge::caps::butt>(agge::caps::butt const&)
 .text._ZN4agge4caps6squareC2ERKS1_
                0x0000000000020f46       0x38 /home/wh/.HoneyGUI-SDK/realgui/3rd/nanovg/agge/nanovg_agge.o
                0x0000000000020f46                agge::caps::square::square(agge::caps::square const&)
                0x0000000000020f46                agge::caps::square::square(agge::caps::square const&)
 .text._ZN4agge6stroke7set_capINS_4caps6squareEEEvRKT_
                0x0000000000020f7e       0x64 /home/wh/.HoneyGUI-SDK/realgui/3rd/nanovg/agge/nanovg_agge.o
                0x0000000000020f7e                void agge::stroke::set_cap<agge::caps::square>(agge::caps::square const&)
 .text._ZN4agge7clipperIiE3setERKNS_4rectIiEE
                0x0000000000020fe2       0x57 /home/wh/.HoneyGUI-SDK/realgui/3rd/nanovg/agge/nanovg_agge.o
                0x0000000000020fe2                agge::clipper<int>::set(agge::rect<int> const&)
 *fill*         0x0000000000021039        0x1 
 .text._ZN4agge22path_generator_adapterINS_13nanovg_vertex8iteratorENS_6strokeEEC2ERKS2_RS3_
                0x000000000002103a       0x44 /home/wh/.HoneyGUI-SDK/realgui/3rd/nanovg/agge/nanovg_agge.o
                0x000000000002103a                agge::path_generator_adapter<agge::nanovg_vertex::iterator, agge::stroke>::path_generator_adapter(agge::nanovg_vertex::iterator const&, agge::stroke&)
                0x000000000002103a                agge::path_generator_adapter<agge::nanovg_vertex::iterator, agge::stroke>::path_generator_adapter(agge::nanovg_vertex::iterator const&, agge::stroke&)
 .text._ZN4agge22path_generator_adapterINS_13nanovg_vertex8iteratorENS_6strokeEEC2ERKS4_
                0x000000000002107e       0x6b /home/wh/.HoneyGUI-SDK/realgui/3rd/nanovg/agge/nanovg_agge.o
                0x000000000002107e                agge::path_generator_adapter<agge::nanovg_vertex::iterator, agge::stroke>::path_generator_adapter(agge::path_generator_adapter<agge::nanovg_vertex::iterator, agge::stroke> const&)
                0x000000000002107e                agge::path_generator_adapter<agge::nanovg_vertex::iterator, agge::stroke>::path_generator_adapter(agge::path_generator_adapter<agge::nanovg_vertex::iterator, agge::stroke> const&)
 .text._ZN4agge8add_pathINS_10rasterizerINS_7clipperIiEENS_7scalingIiEEEENS_22path_generator_adapterINS_13nanovg_vertex8iteratorENS_6strokeEEEEEvRT_T0_
                0x00000000000210e9       0x92 /home/wh/.HoneyGUI-SDK/realgui/3rd/nanovg/agge/nanovg_agge.o
                0x00000000000210e9                void agge::add_path<agge::rasterizer<agge::clipper<int>, agge::scaling<int> >, agge::path_generator_adapter<agge::nanovg_vertex::iterator, agge::stroke> >(agge::rasterizer<agge::clipper<int>, agge::scaling<int> >&, agge::path_generator_adapter<agge::nanovg_vertex::iterator, agge::stroke>)
 *fill*         0x000000000002117b        0x1 
 .text._ZN4agge6bitmapINS_12pixel32_rgbaENS_10raw_bitmapEED2Ev
                0x000000000002117c       0x1f /home/wh/.HoneyGUI-SDK/realgui/3rd/nanovg/agge/nanovg_agge.o
                0x000000000002117c                agge::bitmap<agge::pixel32_rgba, agge::raw_bitmap>::~bitmap()
                0x000000000002117c                agge::bitmap<agge::pixel32_rgba, agge::raw_bitmap>::~bitmap()
 *fill*         0x000000000002119b        0x1 
 .text._ZN4agge6bitmapINS_12pixel32_bgraENS_10raw_bitmapEED2Ev
                0x000000000002119c       0x1f /home/wh/.HoneyGUI-SDK/realgui/3rd/nanovg/agge/nanovg_agge.o
                0x000000000002119c                agge::bitmap<agge::pixel32_bgra, agge::raw_bitmap>::~bitmap()
                0x000000000002119c                agge::bitmap<agge::pixel32_bgra, agge::raw_bitmap>::~bitmap()
 *fill*         0x00000000000211bb        0x1 
 .text._ZN4agge6bitmapINS_14pixel16_bgr565ENS_10raw_bitmapEED2Ev
                0x00000000000211bc       0x1f /home/wh/.HoneyGUI-SDK/realgui/3rd/nanovg/agge/nanovg_agge.o
                0x00000000000211bc                agge::bitmap<agge::pixel16_bgr565, agge::raw_bitmap>::~bitmap()
                0x00000000000211bc                agge::bitmap<agge::pixel16_bgr565, agge::raw_bitmap>::~bitmap()
 *fill*         0x00000000000211db        0x1 
 .text._ZN4agge6bitmapINS_11pixel24_rgbENS_10raw_bitmapEED2Ev
                0x00000000000211dc       0x1f /home/wh/.HoneyGUI-SDK/realgui/3rd/nanovg/agge/nanovg_agge.o
                0x00000000000211dc                agge::bitmap<agge::pixel24_rgb, agge::raw_bitmap>::~bitmap()
                0x00000000000211dc                agge::bitmap<agge::pixel24_rgb, agge::raw_bitmap>::~bitmap()
 .text._Z11renderPaintIN4agge12pixel32_rgbaEEvP14AGGENVGcontextP8NVGpaint
                0x00000000000211fb      0x842 /home/wh/.HoneyGUI-SDK/realgui/3rd/nanovg/agge/nanovg_agge.o
                0x00000000000211fb                void renderPaint<agge::pixel32_rgba>(AGGENVGcontext*, NVGpaint*)
 *fill*         0x0000000000021a3d        0x1 
 .text._ZN4agge10rasterizerINS_7clipperIiEENS_7scalingIiEEE7move_toEff
                0x0000000000021a3e       0x73 /home/wh/.HoneyGUI-SDK/realgui/3rd/nanovg/agge/nanovg_agge.o
                0x0000000000021a3e                agge::rasterizer<agge::clipper<int>, agge::scaling<int> >::move_to(float, float)
 *fill*         0x0000000000021ab1        0x1 
 .text._ZN4agge10rasterizerINS_7clipperIiEENS_7scalingIiEEE7line_toEff
                0x0000000000021ab2       0x7c /home/wh/.HoneyGUI-SDK/realgui/3rd/nanovg/agge/nanovg_agge.o
                0x0000000000021ab2                agge::rasterizer<agge::clipper<int>, agge::scaling<int> >::line_to(float, float)
 .text._ZN4agge10rasterizerINS_7clipperIiEENS_7scalingIiEEE13close_polygonEv
                0x0000000000021b2e       0x3b /home/wh/.HoneyGUI-SDK/realgui/3rd/nanovg/agge/nanovg_agge.o
                0x0000000000021b2e                agge::rasterizer<agge::clipper<int>, agge::scaling<int> >::close_polygon()
 .text._Z11renderPaintIN4agge12pixel32_bgraEEvP14AGGENVGcontextP8NVGpaint
                0x0000000000021b69      0x842 /home/wh/.HoneyGUI-SDK/realgui/3rd/nanovg/agge/nanovg_agge.o
                0x0000000000021b69                void renderPaint<agge::pixel32_bgra>(AGGENVGcontext*, NVGpaint*)
 .text._Z11renderPaintIN4agge11pixel24_rgbEEvP14AGGENVGcontextP8NVGpaint
                0x00000000000223ab      0x842 /home/wh/.HoneyGUI-SDK/realgui/3rd/nanovg/agge/nanovg_agge.o
                0x00000000000223ab                void renderPaint<agge::pixel24_rgb>(AGGENVGcontext*, NVGpaint*)
 *fill*         0x0000000000022bed        0x1 
 .text._ZN4agge6bitmapINS_11pixel24_bgrENS_10raw_bitmapEED2Ev
                0x0000000000022bee       0x1f /home/wh/.HoneyGUI-SDK/realgui/3rd/nanovg/agge/nanovg_agge.o
                0x0000000000022bee                agge::bitmap<agge::pixel24_bgr, agge::raw_bitmap>::~bitmap()
                0x0000000000022bee                agge::bitmap<agge::pixel24_bgr, agge::raw_bitmap>::~bitmap()
 .text._Z11renderPaintIN4agge11pixel24_bgrEEvP14AGGENVGcontextP8NVGpaint
                0x0000000000022c0d      0x842 /home/wh/.HoneyGUI-SDK/realgui/3rd/nanovg/agge/nanovg_agge.o
                0x0000000000022c0d                void renderPaint<agge::pixel24_bgr>(AGGENVGcontext*, NVGpaint*)
 .text._Z11renderPaintIN4agge14pixel16_bgr565EEvP14AGGENVGcontextP8NVGpaint
                0x000000000002344f      0x842 /home/wh/.HoneyGUI-SDK/realgui/3rd/nanovg/agge/nanovg_agge.o
                0x000000000002344f                void renderPaint<agge::pixel16_bgr565>(AGGENVGcontext*, NVGpaint*)
 .text._ZN4agge8clippingIiEEiT_S1_RKNS_4rectIS1_EE
                0x0000000000023c91       0x5b /home/wh/.HoneyGUI-SDK/realgui/3rd/nanovg/agge/nanovg_agge.o
                0x0000000000023c91                int agge::clipping<int>(int, int, agge::rect<int> const&)
 .text._ZN4agge22path_generator_adapterINS_13nanovg_vertex8iteratorENS_6strokeEE6rewindEi
                0x0000000000023cec       0x12 /home/wh/.HoneyGUI-SDK/realgui/3rd/nanovg/agge/nanovg_agge.o
                0x0000000000023cec                agge::path_generator_adapter<agge::nanovg_vertex::iterator, agge::stroke>::rewind(int)
 .text._ZN4agge22path_generator_adapterINS_13nanovg_vertex8iteratorENS_6strokeEE6vertexEPfS5_
                0x0000000000023cfe      0x1bd /home/wh/.HoneyGUI-SDK/realgui/3rd/nanovg/agge/nanovg_agge.o
                0x0000000000023cfe                agge::path_generator_adapter<agge::nanovg_vertex::iterator, agge::stroke>::vertex(float*, float*)
 .text._ZN4agge19add_polyline_vertexINS_10rasterizerINS_7clipperIiEENS_7scalingIiEEEEEEvRT_ffi
                0x0000000000023ebb       0x88 /home/wh/.HoneyGUI-SDK/realgui/3rd/nanovg/agge/nanovg_agge.o
                0x0000000000023ebb                void agge::add_polyline_vertex<agge::rasterizer<agge::clipper<int>, agge::scaling<int> > >(agge::rasterizer<agge::clipper<int>, agge::scaling<int> >&, float, float, int)
 *fill*         0x0000000000023f43        0x1 
 .text._ZN4agge6bitmapINS_12pixel32_rgbaENS_10raw_bitmapEEC2EjjjPh
                0x0000000000023f44       0x42 /home/wh/.HoneyGUI-SDK/realgui/3rd/nanovg/agge/nanovg_agge.o
                0x0000000000023f44                agge::bitmap<agge::pixel32_rgba, agge::raw_bitmap>::bitmap(unsigned int, unsigned int, unsigned int, unsigned char*)
                0x0000000000023f44                agge::bitmap<agge::pixel32_rgba, agge::raw_bitmap>::bitmap(unsigned int, unsigned int, unsigned int, unsigned char*)
 .text._ZN4agge20nanovg_image_blenderINS_12pixel32_rgbaENS_6bitmapIS1_NS_10raw_bitmapEEEEC2EPS4_Pf
                0x0000000000023f86       0x5c /home/wh/.HoneyGUI-SDK/realgui/3rd/nanovg/agge/nanovg_agge.o
                0x0000000000023f86                agge::nanovg_image_blender<agge::pixel32_rgba, agge::bitmap<agge::pixel32_rgba, agge::raw_bitmap> >::nanovg_image_blender(agge::bitmap<agge::pixel32_rgba, agge::raw_bitmap>*, float*)
                0x0000000000023f86                agge::nanovg_image_blender<agge::pixel32_rgba, agge::bitmap<agge::pixel32_rgba, agge::raw_bitmap> >::nanovg_image_blender(agge::bitmap<agge::pixel32_rgba, agge::raw_bitmap>*, float*)
 .text._ZN4agge8rendererclINS_6bitmapINS_12pixel32_rgbaENS_10raw_bitmapEEENS_10rasterizerINS_7clipperIiEENS_7scalingIiEEEENS_20nanovg_image_blenderIS3_S5_EENS_7windingILh8EEEEEvRT_PKNS_4rectIiEERKT0_RKT1_RKT2_
                0x0000000000023fe2      0x611 /home/wh/.HoneyGUI-SDK/realgui/3rd/nanovg/agge/nanovg_agge.o
                0x0000000000023fe2                void agge::renderer::operator()<agge::bitmap<agge::pixel32_rgba, agge::raw_bitmap>, agge::rasterizer<agge::clipper<int>, agge::scaling<int> >, agge::nanovg_image_blender<agge::pixel32_rgba, agge::bitmap<agge::pixel32_rgba, agge::raw_bitmap> >, agge::winding<(unsigned char)8> >(agge::bitmap<agge::pixel32_rgba, agge::raw_bitmap>&, agge::rect<int> const*, agge::rasterizer<agge::clipper<int>, agge::scaling<int> > const&, agge::nanovg_image_blender<agge::pixel32_rgba, agge::bitmap<agge::pixel32_rgba, agge::raw_bitmap> > const&, agge::winding<(unsigned char)8> const&)
 *fill*         0x00000000000245f3        0x1 
 .text._ZN4agge6bitmapINS_12pixel32_bgraENS_10raw_bitmapEEC2EjjjPh
                0x00000000000245f4       0x42 /home/wh/.HoneyGUI-SDK/realgui/3rd/nanovg/agge/nanovg_agge.o
                0x00000000000245f4                agge::bitmap<agge::pixel32_bgra, agge::raw_bitmap>::bitmap(unsigned int, unsigned int, unsigned int, unsigned char*)
                0x00000000000245f4                agge::bitmap<agge::pixel32_bgra, agge::raw_bitmap>::bitmap(unsigned int, unsigned int, unsigned int, unsigned char*)
 .text._ZN4agge20nanovg_image_blenderINS_12pixel32_rgbaENS_6bitmapINS_12pixel32_bgraENS_10raw_bitmapEEEEC2EPS5_Pf
                0x0000000000024636       0x5c /home/wh/.HoneyGUI-SDK/realgui/3rd/nanovg/agge/nanovg_agge.o
                0x0000000000024636                agge::nanovg_image_blender<agge::pixel32_rgba, agge::bitmap<agge::pixel32_bgra, agge::raw_bitmap> >::nanovg_image_blender(agge::bitmap<agge::pixel32_bgra, agge::raw_bitmap>*, float*)
                0x0000000000024636                agge::nanovg_image_blender<agge::pixel32_rgba, agge::bitmap<agge::pixel32_bgra, agge::raw_bitmap> >::nanovg_image_blender(agge::bitmap<agge::pixel32_bgra, agge::raw_bitmap>*, float*)
 .text._ZN4agge8rendererclINS_6bitmapINS_12pixel32_rgbaENS_10raw_bitmapEEENS_10rasterizerINS_7clipperIiEENS_7scalingIiEEEENS_20nanovg_image_blenderIS3_NS2_INS_12pixel32_bgraES4_EEEENS_7windingILh8EEEEEvRT_PKNS_4rectIiEERKT0_RKT1_RKT2_
                0x0000000000024692      0x611 /home/wh/.HoneyGUI-SDK/realgui/3rd/nanovg/agge/nanovg_agge.o
                0x0000000000024692                void agge::renderer::operator()<agge::bitmap<agge::pixel32_rgba, agge::raw_bitmap>, agge::rasterizer<agge::clipper<int>, agge::scaling<int> >, agge::nanovg_image_blender<agge::pixel32_rgba, agge::bitmap<agge::pixel32_bgra, agge::raw_bitmap> >, agge::winding<(unsigned char)8> >(agge::bitmap<agge::pixel32_rgba, agge::raw_bitmap>&, agge::rect<int> const*, agge::rasterizer<agge::clipper<int>, agge::scaling<int> > const&, agge::nanovg_image_blender<agge::pixel32_rgba, agge::bitmap<agge::pixel32_bgra, agge::raw_bitmap> > const&, agge::winding<(unsigned char)8> const&)
 *fill*         0x0000000000024ca3        0x1 
 .text._ZN4agge6bitmapINS_14pixel16_bgr565ENS_10raw_bitmapEEC2EjjjPh
                0x0000000000024ca4       0x42 /home/wh/.HoneyGUI-SDK/realgui/3rd/nanovg/agge/nanovg_agge.o
                0x0000000000024ca4                agge::bitmap<agge::pixel16_bgr565, agge::raw_bitmap>::bitmap(unsigned int, unsigned int, unsigned int, unsigned char*)
                0x0000000000024ca4                agge::bitmap<agge::pixel16_bgr565, agge::raw_bitmap>::bitmap(unsigned int, unsigned int, unsigned int, unsigned char*)
 .text._ZN4agge20nanovg_image_blenderINS_12pixel32_rgbaENS_6bitmapINS_14pixel16_bgr565ENS_10raw_bitmapEEEEC2EPS5_Pf
                0x0000000000024ce6       0x5c /home/wh/.HoneyGUI-SDK/realgui/3rd/nanovg/agge/nanovg_agge.o
                0x0000000000024ce6                agge::nanovg_image_blender<agge::pixel32_rgba, agge::bitmap<agge::pixel16_bgr565, agge::raw_bitmap> >::nanovg_image_blender(agge::bitmap<agge::pixel16_bgr565, agge::raw_bitmap>*, float*)
                0x0000000000024ce6                agge::nanovg_image_blender<agge::pixel32_rgba, agge::bitmap<agge::pixel16_bgr565, agge::raw_bitmap> >::nanovg_image_blender(agge::bitmap<agge::pixel16_bgr565, agge::raw_bitmap>*, float*)
 .text._ZN4agge8rendererclINS_6bitmapINS_12pixel32_rgbaENS_10raw_bitmapEEENS_10rasterizerINS_7clipperIiEENS_7scalingIiEEEENS_20nanovg_image_blenderIS3_NS2_INS_14pixel16_bgr565ES4_EEEENS_7windingILh8EEEEEvRT_PKNS_4rectIiEERKT0_RKT1_RKT2_
                0x0000000000024d42      0x611 /home/wh/.HoneyGUI-SDK/realgui/3rd/nanovg/agge/nanovg_agge.o
                0x0000000000024d42                void agge::renderer::operator()<agge::bitmap<agge::pixel32_rgba, agge::raw_bitmap>, agge::rasterizer<agge::clipper<int>, agge::scaling<int> >, agge::nanovg_image_blender<agge::pixel32_rgba, agge::bitmap<agge::pixel16_bgr565, agge::raw_bitmap> >, agge::winding<(unsigned char)8> >(agge::bitmap<agge::pixel32_rgba, agge::raw_bitmap>&, agge::rect<int> const*, agge::rasterizer<agge::clipper<int>, agge::scaling<int> > const&, agge::nanovg_image_blender<agge::pixel32_rgba, agge::bitmap<agge::pixel16_bgr565, agge::raw_bitmap> > const&, agge::winding<(unsigned char)8> const&)
 *fill*         0x0000000000025353        0x1 
 .text._ZN4agge6bitmapINS_11pixel24_rgbENS_10raw_bitmapEEC2EjjjPh
                0x0000000000025354       0x42 /home/wh/.HoneyGUI-SDK/realgui/3rd/nanovg/agge/nanovg_agge.o
                0x0000000000025354                agge::bitmap<agge::pixel24_rgb, agge::raw_bitmap>::bitmap(unsigned int, unsigned int, unsigned int, unsigned char*)
                0x0000000000025354                agge::bitmap<agge::pixel24_rgb, agge::raw_bitmap>::bitmap(unsigned int, unsigned int, unsigned int, unsigned char*)
 .text._ZN4agge20nanovg_image_blenderINS_12pixel32_rgbaENS_6bitmapINS_11pixel24_rgbENS_10raw_bitmapEEEEC2EPS5_Pf
                0x0000000000025396       0x5c /home/wh/.HoneyGUI-SDK/realgui/3rd/nanovg/agge/nanovg_agge.o
                0x0000000000025396                agge::nanovg_image_blender<agge::pixel32_rgba, agge::bitmap<agge::pixel24_rgb, agge::raw_bitmap> >::nanovg_image_blender(agge::bitmap<agge::pixel24_rgb, agge::raw_bitmap>*, float*)
                0x0000000000025396                agge::nanovg_image_blender<agge::pixel32_rgba, agge::bitmap<agge::pixel24_rgb, agge::raw_bitmap> >::nanovg_image_blender(agge::bitmap<agge::pixel24_rgb, agge::raw_bitmap>*, float*)
 .text._ZN4agge8rendererclINS_6bitmapINS_12pixel32_rgbaENS_10raw_bitmapEEENS_10rasterizerINS_7clipperIiEENS_7scalingIiEEEENS_20nanovg_image_blenderIS3_NS2_INS_11pixel24_rgbES4_EEEENS_7windingILh8EEEEEvRT_PKNS_4rectIiEERKT0_RKT1_RKT2_
                0x00000000000253f2      0x611 /home/wh/.HoneyGUI-SDK/realgui/3rd/nanovg/agge/nanovg_agge.o
                0x00000000000253f2                void agge::renderer::operator()<agge::bitmap<agge::pixel32_rgba, agge::raw_bitmap>, agge::rasterizer<agge::clipper<int>, agge::scaling<int> >, agge::nanovg_image_blender<agge::pixel32_rgba, agge::bitmap<agge::pixel24_rgb, agge::raw_bitmap> >, agge::winding<(unsigned char)8> >(agge::bitmap<agge::pixel32_rgba, agge::raw_bitmap>&, agge::rect<int> const*, agge::rasterizer<agge::clipper<int>, agge::scaling<int> > const&, agge::nanovg_image_blender<agge::pixel32_rgba, agge::bitmap<agge::pixel24_rgb, agge::raw_bitmap> > const&, agge::winding<(unsigned char)8> const&)
 *fill*         0x0000000000025a03        0x1 
 .text._ZN4agge23blender_solid_color_rgbINS_12pixel32_rgbaEEC2Ehhhh
                0x0000000000025a04       0x4f /home/wh/.HoneyGUI-SDK/realgui/3rd/nanovg/agge/nanovg_agge.o
                0x0000000000025a04                agge::blender_solid_color_rgb<agge::pixel32_rgba>::blender_solid_color_rgb(unsigned char, unsigned char, unsigned char, unsigned char)
                0x0000000000025a04                agge::blender_solid_color_rgb<agge::pixel32_rgba>::blender_solid_color_rgb(unsigned char, unsigned char, unsigned char, unsigned char)
 *fill*         0x0000000000025a53        0x1 
 .text._ZN4agge8rendererclINS_6bitmapINS_12pixel32_rgbaENS_10raw_bitmapEEENS_10rasterizerINS_7clipperIiEENS_7scalingIiEEEENS_23blender_solid_color_rgbIS3_EENS_7windingILh8EEEEEvRT_PKNS_4rectIiEERKT0_RKT1_RKT2_
                0x0000000000025a54      0x611 /home/wh/.HoneyGUI-SDK/realgui/3rd/nanovg/agge/nanovg_agge.o
                0x0000000000025a54                void agge::renderer::operator()<agge::bitmap<agge::pixel32_rgba, agge::raw_bitmap>, agge::rasterizer<agge::clipper<int>, agge::scaling<int> >, agge::blender_solid_color_rgb<agge::pixel32_rgba>, agge::winding<(unsigned char)8> >(agge::bitmap<agge::pixel32_rgba, agge::raw_bitmap>&, agge::rect<int> const*, agge::rasterizer<agge::clipper<int>, agge::scaling<int> > const&, agge::blender_solid_color_rgb<agge::pixel32_rgba> const&, agge::winding<(unsigned char)8> const&)
 *fill*         0x0000000000026065        0x1 
 .text._ZN4agge23blender_linear_gradientINS_12pixel32_rgbaEEC2EffffS1_S1_
                0x0000000000026066      0x137 /home/wh/.HoneyGUI-SDK/realgui/3rd/nanovg/agge/nanovg_agge.o
                0x0000000000026066                agge::blender_linear_gradient<agge::pixel32_rgba>::blender_linear_gradient(float, float, float, float, agge::pixel32_rgba, agge::pixel32_rgba)
                0x0000000000026066                agge::blender_linear_gradient<agge::pixel32_rgba>::blender_linear_gradient(float, float, float, float, agge::pixel32_rgba, agge::pixel32_rgba)
 *fill*         0x000000000002619d        0x1 
 .text._ZN4agge8rendererclINS_6bitmapINS_12pixel32_rgbaENS_10raw_bitmapEEENS_10rasterizerINS_7clipperIiEENS_7scalingIiEEEENS_23blender_linear_gradientIS3_EENS_7windingILh8EEEEEvRT_PKNS_4rectIiEERKT0_RKT1_RKT2_
                0x000000000002619e      0x611 /home/wh/.HoneyGUI-SDK/realgui/3rd/nanovg/agge/nanovg_agge.o
                0x000000000002619e                void agge::renderer::operator()<agge::bitmap<agge::pixel32_rgba, agge::raw_bitmap>, agge::rasterizer<agge::clipper<int>, agge::scaling<int> >, agge::blender_linear_gradient<agge::pixel32_rgba>, agge::winding<(unsigned char)8> >(agge::bitmap<agge::pixel32_rgba, agge::raw_bitmap>&, agge::rect<int> const*, agge::rasterizer<agge::clipper<int>, agge::scaling<int> > const&, agge::blender_linear_gradient<agge::pixel32_rgba> const&, agge::winding<(unsigned char)8> const&)
 *fill*         0x00000000000267af        0x1 
 .text._ZN4agge23blender_radial_gradientINS_12pixel32_rgbaEEC2EffffS1_S1_
                0x00000000000267b0       0x74 /home/wh/.HoneyGUI-SDK/realgui/3rd/nanovg/agge/nanovg_agge.o
                0x00000000000267b0                agge::blender_radial_gradient<agge::pixel32_rgba>::blender_radial_gradient(float, float, float, float, agge::pixel32_rgba, agge::pixel32_rgba)
                0x00000000000267b0                agge::blender_radial_gradient<agge::pixel32_rgba>::blender_radial_gradient(float, float, float, float, agge::pixel32_rgba, agge::pixel32_rgba)
 .text._ZN4agge8rendererclINS_6bitmapINS_12pixel32_rgbaENS_10raw_bitmapEEENS_10rasterizerINS_7clipperIiEENS_7scalingIiEEEENS_23blender_radial_gradientIS3_EENS_7windingILh8EEEEEvRT_PKNS_4rectIiEERKT0_RKT1_RKT2_
                0x0000000000026824      0x611 /home/wh/.HoneyGUI-SDK/realgui/3rd/nanovg/agge/nanovg_agge.o
                0x0000000000026824                void agge::renderer::operator()<agge::bitmap<agge::pixel32_rgba, agge::raw_bitmap>, agge::rasterizer<agge::clipper<int>, agge::scaling<int> >, agge::blender_radial_gradient<agge::pixel32_rgba>, agge::winding<(unsigned char)8> >(agge::bitmap<agge::pixel32_rgba, agge::raw_bitmap>&, agge::rect<int> const*, agge::rasterizer<agge::clipper<int>, agge::scaling<int> > const&, agge::blender_radial_gradient<agge::pixel32_rgba> const&, agge::winding<(unsigned char)8> const&)
 *fill*         0x0000000000026e35        0x1 
 .text._ZN4agge7clipperIiE7move_toEii
                0x0000000000026e36       0x47 /home/wh/.HoneyGUI-SDK/realgui/3rd/nanovg/agge/nanovg_agge.o
                0x0000000000026e36                agge::clipper<int>::move_to(int, int)
 *fill*         0x0000000000026e7d        0x1 
 .text._ZN4agge7clipperIiE7line_toINS_10rasterizerIS1_NS_7scalingIiEEEEEEvRT_ii
                0x0000000000026e7e      0x754 /home/wh/.HoneyGUI-SDK/realgui/3rd/nanovg/agge/nanovg_agge.o
                0x0000000000026e7e                void agge::clipper<int>::line_to<agge::rasterizer<agge::clipper<int>, agge::scaling<int> > >(agge::rasterizer<agge::clipper<int>, agge::scaling<int> >&, int, int)
 .text._ZN4agge20nanovg_image_blenderINS_12pixel32_bgraENS_6bitmapINS_12pixel32_rgbaENS_10raw_bitmapEEEEC2EPS5_Pf
                0x00000000000275d2       0x5c /home/wh/.HoneyGUI-SDK/realgui/3rd/nanovg/agge/nanovg_agge.o
                0x00000000000275d2                agge::nanovg_image_blender<agge::pixel32_bgra, agge::bitmap<agge::pixel32_rgba, agge::raw_bitmap> >::nanovg_image_blender(agge::bitmap<agge::pixel32_rgba, agge::raw_bitmap>*, float*)
                0x00000000000275d2                agge::nanovg_image_blender<agge::pixel32_bgra, agge::bitmap<agge::pixel32_rgba, agge::raw_bitmap> >::nanovg_image_blender(agge::bitmap<agge::pixel32_rgba, agge::raw_bitmap>*, float*)
 .text._ZN4agge8rendererclINS_6bitmapINS_12pixel32_bgraENS_10raw_bitmapEEENS_10rasterizerINS_7clipperIiEENS_7scalingIiEEEENS_20nanovg_image_blenderIS3_NS2_INS_12pixel32_rgbaES4_EEEENS_7windingILh8EEEEEvRT_PKNS_4rectIiEERKT0_RKT1_RKT2_
                0x000000000002762e      0x611 /home/wh/.HoneyGUI-SDK/realgui/3rd/nanovg/agge/nanovg_agge.o
                0x000000000002762e                void agge::renderer::operator()<agge::bitmap<agge::pixel32_bgra, agge::raw_bitmap>, agge::rasterizer<agge::clipper<int>, agge::scaling<int> >, agge::nanovg_image_blender<agge::pixel32_bgra, agge::bitmap<agge::pixel32_rgba, agge::raw_bitmap> >, agge::winding<(unsigned char)8> >(agge::bitmap<agge::pixel32_bgra, agge::raw_bitmap>&, agge::rect<int> const*, agge::rasterizer<agge::clipper<int>, agge::scaling<int> > const&, agge::nanovg_image_blender<agge::pixel32_bgra, agge::bitmap<agge::pixel32_rgba, agge::raw_bitmap> > const&, agge::winding<(unsigned char)8> const&)
 *fill*         0x0000000000027c3f        0x1 
 .text._ZN4agge20nanovg_image_blenderINS_12pixel32_bgraENS_6bitmapIS1_NS_10raw_bitmapEEEEC2EPS4_Pf
                0x0000000000027c40       0x5c /home/wh/.HoneyGUI-SDK/realgui/3rd/nanovg/agge/nanovg_agge.o
                0x0000000000027c40                agge::nanovg_image_blender<agge::pixel32_bgra, agge::bitmap<agge::pixel32_bgra, agge::raw_bitmap> >::nanovg_image_blender(agge::bitmap<agge::pixel32_bgra, agge::raw_bitmap>*, float*)
                0x0000000000027c40                agge::nanovg_image_blender<agge::pixel32_bgra, agge::bitmap<agge::pixel32_bgra, agge::raw_bitmap> >::nanovg_image_blender(agge::bitmap<agge::pixel32_bgra, agge::raw_bitmap>*, float*)
 .text._ZN4agge8rendererclINS_6bitmapINS_12pixel32_bgraENS_10raw_bitmapEEENS_10rasterizerINS_7clipperIiEENS_7scalingIiEEEENS_20nanovg_image_blenderIS3_S5_EENS_7windingILh8EEEEEvRT_PKNS_4rectIiEERKT0_RKT1_RKT2_
                0x0000000000027c9c      0x611 /home/wh/.HoneyGUI-SDK/realgui/3rd/nanovg/agge/nanovg_agge.o
                0x0000000000027c9c                void agge::renderer::operator()<agge::bitmap<agge::pixel32_bgra, agge::raw_bitmap>, agge::rasterizer<agge::clipper<int>, agge::scaling<int> >, agge::nanovg_image_blender<agge::pixel32_bgra, agge::bitmap<agge::pixel32_bgra, agge::raw_bitmap> >, agge::winding<(unsigned char)8> >(agge::bitmap<agge::pixel32_bgra, agge::raw_bitmap>&, agge::rect<int> const*, agge::rasterizer<agge::clipper<int>, agge::scaling<int> > const&, agge::nanovg_image_blender<agge::pixel32_bgra, agge::bitmap<agge::pixel32_bgra, agge::raw_bitmap> > const&, agge::winding<(unsigned char)8> const&)
 *fill*         0x00000000000282ad        0x1 
 .text._ZN4agge20nanovg_image_blenderINS_12pixel32_bgraENS_6bitmapINS_14pixel16_bgr565ENS_10raw_bitmapEEEEC2EPS5_Pf
                0x00000000000282ae       0x5c /home/wh/.HoneyGUI-SDK/realgui/3rd/nanovg/agge/nanovg_agge.o
                0x00000000000282ae                agge::nanovg_image_blender<agge::pixel32_bgra, agge::bitmap<agge::pixel16_bgr565, agge::raw_bitmap> >::nanovg_image_blender(agge::bitmap<agge::pixel16_bgr565, agge::raw_bitmap>*, float*)
                0x00000000000282ae                agge::nanovg_image_blender<agge::pixel32_bgra, agge::bitmap<agge::pixel16_bgr565, agge::raw_bitmap> >::nanovg_image_blender(agge::bitmap<agge::pixel16_bgr565, agge::raw_bitmap>*, float*)
 .text._ZN4agge8rendererclINS_6bitmapINS_12pixel32_bgraENS_10raw_bitmapEEENS_10rasterizerINS_7clipperIiEENS_7scalingIiEEEENS_20nanovg_image_blenderIS3_NS2_INS_14pixel16_bgr565ES4_EEEENS_7windingILh8EEEEEvRT_PKNS_4rectIiEERKT0_RKT1_RKT2_
                0x000000000002830a      0x611 /home/wh/.HoneyGUI-SDK/realgui/3rd/nanovg/agge/nanovg_agge.o
                0x000000000002830a                void agge::renderer::operator()<agge::bitmap<agge::pixel32_bgra, agge::raw_bitmap>, agge::rasterizer<agge::clipper<int>, agge::scaling<int> >, agge::nanovg_image_blender<agge::pixel32_bgra, agge::bitmap<agge::pixel16_bgr565, agge::raw_bitmap> >, agge::winding<(unsigned char)8> >(agge::bitmap<agge::pixel32_bgra, agge::raw_bitmap>&, agge::rect<int> const*, agge::rasterizer<agge::clipper<int>, agge::scaling<int> > const&, agge::nanovg_image_blender<agge::pixel32_bgra, agge::bitmap<agge::pixel16_bgr565, agge::raw_bitmap> > const&, agge::winding<(unsigned char)8> const&)
 *fill*         0x000000000002891b        0x1 
 .text._ZN4agge20nanovg_image_blenderINS_12pixel32_bgraENS_6bitmapINS_11pixel24_rgbENS_10raw_bitmapEEEEC2EPS5_Pf
                0x000000000002891c       0x5c /home/wh/.HoneyGUI-SDK/realgui/3rd/nanovg/agge/nanovg_agge.o
                0x000000000002891c                agge::nanovg_image_blender<agge::pixel32_bgra, agge::bitmap<agge::pixel24_rgb, agge::raw_bitmap> >::nanovg_image_blender(agge::bitmap<agge::pixel24_rgb, agge::raw_bitmap>*, float*)
                0x000000000002891c                agge::nanovg_image_blender<agge::pixel32_bgra, agge::bitmap<agge::pixel24_rgb, agge::raw_bitmap> >::nanovg_image_blender(agge::bitmap<agge::pixel24_rgb, agge::raw_bitmap>*, float*)
 .text._ZN4agge8rendererclINS_6bitmapINS_12pixel32_bgraENS_10raw_bitmapEEENS_10rasterizerINS_7clipperIiEENS_7scalingIiEEEENS_20nanovg_image_blenderIS3_NS2_INS_11pixel24_rgbES4_EEEENS_7windingILh8EEEEEvRT_PKNS_4rectIiEERKT0_RKT1_RKT2_
                0x0000000000028978      0x611 /home/wh/.HoneyGUI-SDK/realgui/3rd/nanovg/agge/nanovg_agge.o
                0x0000000000028978                void agge::renderer::operator()<agge::bitmap<agge::pixel32_bgra, agge::raw_bitmap>, agge::rasterizer<agge::clipper<int>, agge::scaling<int> >, agge::nanovg_image_blender<agge::pixel32_bgra, agge::bitmap<agge::pixel24_rgb, agge::raw_bitmap> >, agge::winding<(unsigned char)8> >(agge::bitmap<agge::pixel32_bgra, agge::raw_bitmap>&, agge::rect<int> const*, agge::rasterizer<agge::clipper<int>, agge::scaling<int> > const&, agge::nanovg_image_blender<agge::pixel32_bgra, agge::bitmap<agge::pixel24_rgb, agge::raw_bitmap> > const&, agge::winding<(unsigned char)8> const&)
 *fill*         0x0000000000028f89        0x1 
 .text._ZN4agge23blender_solid_color_rgbINS_12pixel32_bgraEEC2Ehhhh
                0x0000000000028f8a       0x4f /home/wh/.HoneyGUI-SDK/realgui/3rd/nanovg/agge/nanovg_agge.o
                0x0000000000028f8a                agge::blender_solid_color_rgb<agge::pixel32_bgra>::blender_solid_color_rgb(unsigned char, unsigned char, unsigned char, unsigned char)
                0x0000000000028f8a                agge::blender_solid_color_rgb<agge::pixel32_bgra>::blender_solid_color_rgb(unsigned char, unsigned char, unsigned char, unsigned char)
 *fill*         0x0000000000028fd9        0x1 
 .text._ZN4agge8rendererclINS_6bitmapINS_12pixel32_bgraENS_10raw_bitmapEEENS_10rasterizerINS_7clipperIiEENS_7scalingIiEEEENS_23blender_solid_color_rgbIS3_EENS_7windingILh8EEEEEvRT_PKNS_4rectIiEERKT0_RKT1_RKT2_
                0x0000000000028fda      0x611 /home/wh/.HoneyGUI-SDK/realgui/3rd/nanovg/agge/nanovg_agge.o
                0x0000000000028fda                void agge::renderer::operator()<agge::bitmap<agge::pixel32_bgra, agge::raw_bitmap>, agge::rasterizer<agge::clipper<int>, agge::scaling<int> >, agge::blender_solid_color_rgb<agge::pixel32_bgra>, agge::winding<(unsigned char)8> >(agge::bitmap<agge::pixel32_bgra, agge::raw_bitmap>&, agge::rect<int> const*, agge::rasterizer<agge::clipper<int>, agge::scaling<int> > const&, agge::blender_solid_color_rgb<agge::pixel32_bgra> const&, agge::winding<(unsigned char)8> const&)
 *fill*         0x00000000000295eb        0x1 
 .text._ZN4agge23blender_linear_gradientINS_12pixel32_bgraEEC2EffffNS_12pixel32_rgbaES3_
                0x00000000000295ec      0x137 /home/wh/.HoneyGUI-SDK/realgui/3rd/nanovg/agge/nanovg_agge.o
                0x00000000000295ec                agge::blender_linear_gradient<agge::pixel32_bgra>::blender_linear_gradient(float, float, float, float, agge::pixel32_rgba, agge::pixel32_rgba)
                0x00000000000295ec                agge::blender_linear_gradient<agge::pixel32_bgra>::blender_linear_gradient(float, float, float, float, agge::pixel32_rgba, agge::pixel32_rgba)
 *fill*         0x0000000000029723        0x1 
 .text._ZN4agge8rendererclINS_6bitmapINS_12pixel32_bgraENS_10raw_bitmapEEENS_10rasterizerINS_7clipperIiEENS_7scalingIiEEEENS_23blender_linear_gradientIS3_EENS_7windingILh8EEEEEvRT_PKNS_4rectIiEERKT0_RKT1_RKT2_
                0x0000000000029724      0x611 /home/wh/.HoneyGUI-SDK/realgui/3rd/nanovg/agge/nanovg_agge.o
                0x0000000000029724                void agge::renderer::operator()<agge::bitmap<agge::pixel32_bgra, agge::raw_bitmap>, agge::rasterizer<agge::clipper<int>, agge::scaling<int> >, agge::blender_linear_gradient<agge::pixel32_bgra>, agge::winding<(unsigned char)8> >(agge::bitmap<agge::pixel32_bgra, agge::raw_bitmap>&, agge::rect<int> const*, agge::rasterizer<agge::clipper<int>, agge::scaling<int> > const&, agge::blender_linear_gradient<agge::pixel32_bgra> const&, agge::winding<(unsigned char)8> const&)
 *fill*         0x0000000000029d35        0x1 
 .text._ZN4agge23blender_radial_gradientINS_12pixel32_bgraEEC2EffffNS_12pixel32_rgbaES3_
                0x0000000000029d36       0x74 /home/wh/.HoneyGUI-SDK/realgui/3rd/nanovg/agge/nanovg_agge.o
                0x0000000000029d36                agge::blender_radial_gradient<agge::pixel32_bgra>::blender_radial_gradient(float, float, float, float, agge::pixel32_rgba, agge::pixel32_rgba)
                0x0000000000029d36                agge::blender_radial_gradient<agge::pixel32_bgra>::blender_radial_gradient(float, float, float, float, agge::pixel32_rgba, agge::pixel32_rgba)
 .text._ZN4agge8rendererclINS_6bitmapINS_12pixel32_bgraENS_10raw_bitmapEEENS_10rasterizerINS_7clipperIiEENS_7scalingIiEEEENS_23blender_radial_gradientIS3_EENS_7windingILh8EEEEEvRT_PKNS_4rectIiEERKT0_RKT1_RKT2_
                0x0000000000029daa      0x611 /home/wh/.HoneyGUI-SDK/realgui/3rd/nanovg/agge/nanovg_agge.o
                0x0000000000029daa                void agge::renderer::operator()<agge::bitmap<agge::pixel32_bgra, agge::raw_bitmap>, agge::rasterizer<agge::clipper<int>, agge::scaling<int> >, agge::blender_radial_gradient<agge::pixel32_bgra>, agge::winding<(unsigned char)8> >(agge::bitmap<agge::pixel32_bgra, agge::raw_bitmap>&, agge::rect<int> const*, agge::rasterizer<agge::clipper<int>, agge::scaling<int> > const&, agge::blender_radial_gradient<agge::pixel32_bgra> const&, agge::winding<(unsigned char)8> const&)
 *fill*         0x000000000002a3bb        0x1 
 .text._ZN4agge20nanovg_image_blenderINS_11pixel24_rgbENS_6bitmapINS_12pixel32_rgbaENS_10raw_bitmapEEEEC2EPS5_Pf
                0x000000000002a3bc       0x5c /home/wh/.HoneyGUI-SDK/realgui/3rd/nanovg/agge/nanovg_agge.o
                0x000000000002a3bc                agge::nanovg_image_blender<agge::pixel24_rgb, agge::bitmap<agge::pixel32_rgba, agge::raw_bitmap> >::nanovg_image_blender(agge::bitmap<agge::pixel32_rgba, agge::raw_bitmap>*, float*)
                0x000000000002a3bc                agge::nanovg_image_blender<agge::pixel24_rgb, agge::bitmap<agge::pixel32_rgba, agge::raw_bitmap> >::nanovg_image_blender(agge::bitmap<agge::pixel32_rgba, agge::raw_bitmap>*, float*)
 .text._ZN4agge8rendererclINS_6bitmapINS_11pixel24_rgbENS_10raw_bitmapEEENS_10rasterizerINS_7clipperIiEENS_7scalingIiEEEENS_20nanovg_image_blenderIS3_NS2_INS_12pixel32_rgbaES4_EEEENS_7windingILh8EEEEEvRT_PKNS_4rectIiEERKT0_RKT1_RKT2_
                0x000000000002a418      0x611 /home/wh/.HoneyGUI-SDK/realgui/3rd/nanovg/agge/nanovg_agge.o
                0x000000000002a418                void agge::renderer::operator()<agge::bitmap<agge::pixel24_rgb, agge::raw_bitmap>, agge::rasterizer<agge::clipper<int>, agge::scaling<int> >, agge::nanovg_image_blender<agge::pixel24_rgb, agge::bitmap<agge::pixel32_rgba, agge::raw_bitmap> >, agge::winding<(unsigned char)8> >(agge::bitmap<agge::pixel24_rgb, agge::raw_bitmap>&, agge::rect<int> const*, agge::rasterizer<agge::clipper<int>, agge::scaling<int> > const&, agge::nanovg_image_blender<agge::pixel24_rgb, agge::bitmap<agge::pixel32_rgba, agge::raw_bitmap> > const&, agge::winding<(unsigned char)8> const&)
 *fill*         0x000000000002aa29        0x1 
 .text._ZN4agge20nanovg_image_blenderINS_11pixel24_rgbENS_6bitmapINS_12pixel32_bgraENS_10raw_bitmapEEEEC2EPS5_Pf
                0x000000000002aa2a       0x5c /home/wh/.HoneyGUI-SDK/realgui/3rd/nanovg/agge/nanovg_agge.o
                0x000000000002aa2a                agge::nanovg_image_blender<agge::pixel24_rgb, agge::bitmap<agge::pixel32_bgra, agge::raw_bitmap> >::nanovg_image_blender(agge::bitmap<agge::pixel32_bgra, agge::raw_bitmap>*, float*)
                0x000000000002aa2a                agge::nanovg_image_blender<agge::pixel24_rgb, agge::bitmap<agge::pixel32_bgra, agge::raw_bitmap> >::nanovg_image_blender(agge::bitmap<agge::pixel32_bgra, agge::raw_bitmap>*, float*)
 .text._ZN4agge8rendererclINS_6bitmapINS_11pixel24_rgbENS_10raw_bitmapEEENS_10rasterizerINS_7clipperIiEENS_7scalingIiEEEENS_20nanovg_image_blenderIS3_NS2_INS_12pixel32_bgraES4_EEEENS_7windingILh8EEEEEvRT_PKNS_4rectIiEERKT0_RKT1_RKT2_
                0x000000000002aa86      0x611 /home/wh/.HoneyGUI-SDK/realgui/3rd/nanovg/agge/nanovg_agge.o
                0x000000000002aa86                void agge::renderer::operator()<agge::bitmap<agge::pixel24_rgb, agge::raw_bitmap>, agge::rasterizer<agge::clipper<int>, agge::scaling<int> >, agge::nanovg_image_blender<agge::pixel24_rgb, agge::bitmap<agge::pixel32_bgra, agge::raw_bitmap> >, agge::winding<(unsigned char)8> >(agge::bitmap<agge::pixel24_rgb, agge::raw_bitmap>&, agge::rect<int> const*, agge::rasterizer<agge::clipper<int>, agge::scaling<int> > const&, agge::nanovg_image_blender<agge::pixel24_rgb, agge::bitmap<agge::pixel32_bgra, agge::raw_bitmap> > const&, agge::winding<(unsigned char)8> const&)
 *fill*         0x000000000002b097        0x1 
 .text._ZN4agge20nanovg_image_blenderINS_11pixel24_rgbENS_6bitmapINS_14pixel16_bgr565ENS_10raw_bitmapEEEEC2EPS5_Pf
                0x000000000002b098       0x5c /home/wh/.HoneyGUI-SDK/realgui/3rd/nanovg/agge/nanovg_agge.o
                0x000000000002b098                agge::nanovg_image_blender<agge::pixel24_rgb, agge::bitmap<agge::pixel16_bgr565, agge::raw_bitmap> >::nanovg_image_blender(agge::bitmap<agge::pixel16_bgr565, agge::raw_bitmap>*, float*)
                0x000000000002b098                agge::nanovg_image_blender<agge::pixel24_rgb, agge::bitmap<agge::pixel16_bgr565, agge::raw_bitmap> >::nanovg_image_blender(agge::bitmap<agge::pixel16_bgr565, agge::raw_bitmap>*, float*)
 .text._ZN4agge8rendererclINS_6bitmapINS_11pixel24_rgbENS_10raw_bitmapEEENS_10rasterizerINS_7clipperIiEENS_7scalingIiEEEENS_20nanovg_image_blenderIS3_NS2_INS_14pixel16_bgr565ES4_EEEENS_7windingILh8EEEEEvRT_PKNS_4rectIiEERKT0_RKT1_RKT2_
                0x000000000002b0f4      0x611 /home/wh/.HoneyGUI-SDK/realgui/3rd/nanovg/agge/nanovg_agge.o
                0x000000000002b0f4                void agge::renderer::operator()<agge::bitmap<agge::pixel24_rgb, agge::raw_bitmap>, agge::rasterizer<agge::clipper<int>, agge::scaling<int> >, agge::nanovg_image_blender<agge::pixel24_rgb, agge::bitmap<agge::pixel16_bgr565, agge::raw_bitmap> >, agge::winding<(unsigned char)8> >(agge::bitmap<agge::pixel24_rgb, agge::raw_bitmap>&, agge::rect<int> const*, agge::rasterizer<agge::clipper<int>, agge::scaling<int> > const&, agge::nanovg_image_blender<agge::pixel24_rgb, agge::bitmap<agge::pixel16_bgr565, agge::raw_bitmap> > const&, agge::winding<(unsigned char)8> const&)
 *fill*         0x000000000002b705        0x1 
 .text._ZN4agge20nanovg_image_blenderINS_11pixel24_rgbENS_6bitmapIS1_NS_10raw_bitmapEEEEC2EPS4_Pf
                0x000000000002b706       0x5c /home/wh/.HoneyGUI-SDK/realgui/3rd/nanovg/agge/nanovg_agge.o
                0x000000000002b706                agge::nanovg_image_blender<agge::pixel24_rgb, agge::bitmap<agge::pixel24_rgb, agge::raw_bitmap> >::nanovg_image_blender(agge::bitmap<agge::pixel24_rgb, agge::raw_bitmap>*, float*)
                0x000000000002b706                agge::nanovg_image_blender<agge::pixel24_rgb, agge::bitmap<agge::pixel24_rgb, agge::raw_bitmap> >::nanovg_image_blender(agge::bitmap<agge::pixel24_rgb, agge::raw_bitmap>*, float*)
 .text._ZN4agge8rendererclINS_6bitmapINS_11pixel24_rgbENS_10raw_bitmapEEENS_10rasterizerINS_7clipperIiEENS_7scalingIiEEEENS_20nanovg_image_blenderIS3_S5_EENS_7windingILh8EEEEEvRT_PKNS_4rectIiEERKT0_RKT1_RKT2_
                0x000000000002b762      0x611 /home/wh/.HoneyGUI-SDK/realgui/3rd/nanovg/agge/nanovg_agge.o
                0x000000000002b762                void agge::renderer::operator()<agge::bitmap<agge::pixel24_rgb, agge::raw_bitmap>, agge::rasterizer<agge::clipper<int>, agge::scaling<int> >, agge::nanovg_image_blender<agge::pixel24_rgb, agge::bitmap<agge::pixel24_rgb, agge::raw_bitmap> >, agge::winding<(unsigned char)8> >(agge::bitmap<agge::pixel24_rgb, agge::raw_bitmap>&, agge::rect<int> const*, agge::rasterizer<agge::clipper<int>, agge::scaling<int> > const&, agge::nanovg_image_blender<agge::pixel24_rgb, agge::bitmap<agge::pixel24_rgb, agge::raw_bitmap> > const&, agge::winding<(unsigned char)8> const&)
 *fill*         0x000000000002bd73        0x1 
 .text._ZN4agge23blender_solid_color_rgbINS_11pixel24_rgbEEC2Ehhhh
                0x000000000002bd74       0x4f /home/wh/.HoneyGUI-SDK/realgui/3rd/nanovg/agge/nanovg_agge.o
                0x000000000002bd74                agge::blender_solid_color_rgb<agge::pixel24_rgb>::blender_solid_color_rgb(unsigned char, unsigned char, unsigned char, unsigned char)
                0x000000000002bd74                agge::blender_solid_color_rgb<agge::pixel24_rgb>::blender_solid_color_rgb(unsigned char, unsigned char, unsigned char, unsigned char)
 *fill*         0x000000000002bdc3        0x1 
 .text._ZN4agge8rendererclINS_6bitmapINS_11pixel24_rgbENS_10raw_bitmapEEENS_10rasterizerINS_7clipperIiEENS_7scalingIiEEEENS_23blender_solid_color_rgbIS3_EENS_7windingILh8EEEEEvRT_PKNS_4rectIiEERKT0_RKT1_RKT2_
                0x000000000002bdc4      0x611 /home/wh/.HoneyGUI-SDK/realgui/3rd/nanovg/agge/nanovg_agge.o
                0x000000000002bdc4                void agge::renderer::operator()<agge::bitmap<agge::pixel24_rgb, agge::raw_bitmap>, agge::rasterizer<agge::clipper<int>, agge::scaling<int> >, agge::blender_solid_color_rgb<agge::pixel24_rgb>, agge::winding<(unsigned char)8> >(agge::bitmap<agge::pixel24_rgb, agge::raw_bitmap>&, agge::rect<int> const*, agge::rasterizer<agge::clipper<int>, agge::scaling<int> > const&, agge::blender_solid_color_rgb<agge::pixel24_rgb> const&, agge::winding<(unsigned char)8> const&)
 *fill*         0x000000000002c3d5        0x1 
 .text._ZN4agge23blender_linear_gradientINS_11pixel24_rgbEEC2EffffNS_12pixel32_rgbaES3_
                0x000000000002c3d6      0x137 /home/wh/.HoneyGUI-SDK/realgui/3rd/nanovg/agge/nanovg_agge.o
                0x000000000002c3d6                agge::blender_linear_gradient<agge::pixel24_rgb>::blender_linear_gradient(float, float, float, float, agge::pixel32_rgba, agge::pixel32_rgba)
                0x000000000002c3d6                agge::blender_linear_gradient<agge::pixel24_rgb>::blender_linear_gradient(float, float, float, float, agge::pixel32_rgba, agge::pixel32_rgba)
 *fill*         0x000000000002c50d        0x1 
 .text._ZN4agge8rendererclINS_6bitmapINS_11pixel24_rgbENS_10raw_bitmapEEENS_10rasterizerINS_7clipperIiEENS_7scalingIiEEEENS_23blender_linear_gradientIS3_EENS_7windingILh8EEEEEvRT_PKNS_4rectIiEERKT0_RKT1_RKT2_
                0x000000000002c50e      0x611 /home/wh/.HoneyGUI-SDK/realgui/3rd/nanovg/agge/nanovg_agge.o
                0x000000000002c50e                void agge::renderer::operator()<agge::bitmap<agge::pixel24_rgb, agge::raw_bitmap>, agge::rasterizer<agge::clipper<int>, agge::scaling<int> >, agge::blender_linear_gradient<agge::pixel24_rgb>, agge::winding<(unsigned char)8> >(agge::bitmap<agge::pixel24_rgb, agge::raw_bitmap>&, agge::rect<int> const*, agge::rasterizer<agge::clipper<int>, agge::scaling<int> > const&, agge::blender_linear_gradient<agge::pixel24_rgb> const&, agge::winding<(unsigned char)8> const&)
 *fill*         0x000000000002cb1f        0x1 
 .text._ZN4agge23blender_radial_gradientINS_11pixel24_rgbEEC2EffffNS_12pixel32_rgbaES3_
                0x000000000002cb20       0x74 /home/wh/.HoneyGUI-SDK/realgui/3rd/nanovg/agge/nanovg_agge.o
                0x000000000002cb20                agge::blender_radial_gradient<agge::pixel24_rgb>::blender_radial_gradient(float, float, float, float, agge::pixel32_rgba, agge::pixel32_rgba)
                0x000000000002cb20                agge::blender_radial_gradient<agge::pixel24_rgb>::blender_radial_gradient(float, float, float, float, agge::pixel32_rgba, agge::pixel32_rgba)
 .text._ZN4agge8rendererclINS_6bitmapINS_11pixel24_rgbENS_10raw_bitmapEEENS_10rasterizerINS_7clipperIiEENS_7scalingIiEEEENS_23blender_radial_gradientIS3_EENS_7windingILh8EEEEEvRT_PKNS_4rectIiEERKT0_RKT1_RKT2_
                0x000000000002cb94      0x611 /home/wh/.HoneyGUI-SDK/realgui/3rd/nanovg/agge/nanovg_agge.o
                0x000000000002cb94                void agge::renderer::operator()<agge::bitmap<agge::pixel24_rgb, agge::raw_bitmap>, agge::rasterizer<agge::clipper<int>, agge::scaling<int> >, agge::blender_radial_gradient<agge::pixel24_rgb>, agge::winding<(unsigned char)8> >(agge::bitmap<agge::pixel24_rgb, agge::raw_bitmap>&, agge::rect<int> const*, agge::rasterizer<agge::clipper<int>, agge::scaling<int> > const&, agge::blender_radial_gradient<agge::pixel24_rgb> const&, agge::winding<(unsigned char)8> const&)
 *fill*         0x000000000002d1a5        0x1 
 .text._ZN4agge6bitmapINS_11pixel24_bgrENS_10raw_bitmapEEC2EjjjPh
                0x000000000002d1a6       0x42 /home/wh/.HoneyGUI-SDK/realgui/3rd/nanovg/agge/nanovg_agge.o
                0x000000000002d1a6                agge::bitmap<agge::pixel24_bgr, agge::raw_bitmap>::bitmap(unsigned int, unsigned int, unsigned int, unsigned char*)
                0x000000000002d1a6                agge::bitmap<agge::pixel24_bgr, agge::raw_bitmap>::bitmap(unsigned int, unsigned int, unsigned int, unsigned char*)
 .text._ZN4agge20nanovg_image_blenderINS_11pixel24_bgrENS_6bitmapINS_12pixel32_rgbaENS_10raw_bitmapEEEEC2EPS5_Pf
                0x000000000002d1e8       0x5c /home/wh/.HoneyGUI-SDK/realgui/3rd/nanovg/agge/nanovg_agge.o
                0x000000000002d1e8                agge::nanovg_image_blender<agge::pixel24_bgr, agge::bitmap<agge::pixel32_rgba, agge::raw_bitmap> >::nanovg_image_blender(agge::bitmap<agge::pixel32_rgba, agge::raw_bitmap>*, float*)
                0x000000000002d1e8                agge::nanovg_image_blender<agge::pixel24_bgr, agge::bitmap<agge::pixel32_rgba, agge::raw_bitmap> >::nanovg_image_blender(agge::bitmap<agge::pixel32_rgba, agge::raw_bitmap>*, float*)
 .text._ZN4agge8rendererclINS_6bitmapINS_11pixel24_bgrENS_10raw_bitmapEEENS_10rasterizerINS_7clipperIiEENS_7scalingIiEEEENS_20nanovg_image_blenderIS3_NS2_INS_12pixel32_rgbaES4_EEEENS_7windingILh8EEEEEvRT_PKNS_4rectIiEERKT0_RKT1_RKT2_
                0x000000000002d244      0x611 /home/wh/.HoneyGUI-SDK/realgui/3rd/nanovg/agge/nanovg_agge.o
                0x000000000002d244                void agge::renderer::operator()<agge::bitmap<agge::pixel24_bgr, agge::raw_bitmap>, agge::rasterizer<agge::clipper<int>, agge::scaling<int> >, agge::nanovg_image_blender<agge::pixel24_bgr, agge::bitmap<agge::pixel32_rgba, agge::raw_bitmap> >, agge::winding<(unsigned char)8> >(agge::bitmap<agge::pixel24_bgr, agge::raw_bitmap>&, agge::rect<int> const*, agge::rasterizer<agge::clipper<int>, agge::scaling<int> > const&, agge::nanovg_image_blender<agge::pixel24_bgr, agge::bitmap<agge::pixel32_rgba, agge::raw_bitmap> > const&, agge::winding<(unsigned char)8> const&)
 *fill*         0x000000000002d855        0x1 
 .text._ZN4agge20nanovg_image_blenderINS_11pixel24_bgrENS_6bitmapINS_12pixel32_bgraENS_10raw_bitmapEEEEC2EPS5_Pf
                0x000000000002d856       0x5c /home/wh/.HoneyGUI-SDK/realgui/3rd/nanovg/agge/nanovg_agge.o
                0x000000000002d856                agge::nanovg_image_blender<agge::pixel24_bgr, agge::bitmap<agge::pixel32_bgra, agge::raw_bitmap> >::nanovg_image_blender(agge::bitmap<agge::pixel32_bgra, agge::raw_bitmap>*, float*)
                0x000000000002d856                agge::nanovg_image_blender<agge::pixel24_bgr, agge::bitmap<agge::pixel32_bgra, agge::raw_bitmap> >::nanovg_image_blender(agge::bitmap<agge::pixel32_bgra, agge::raw_bitmap>*, float*)
 .text._ZN4agge8rendererclINS_6bitmapINS_11pixel24_bgrENS_10raw_bitmapEEENS_10rasterizerINS_7clipperIiEENS_7scalingIiEEEENS_20nanovg_image_blenderIS3_NS2_INS_12pixel32_bgraES4_EEEENS_7windingILh8EEEEEvRT_PKNS_4rectIiEERKT0_RKT1_RKT2_
                0x000000000002d8b2      0x611 /home/wh/.HoneyGUI-SDK/realgui/3rd/nanovg/agge/nanovg_agge.o
                0x000000000002d8b2                void agge::renderer::operator()<agge::bitmap<agge::pixel24_bgr, agge::raw_bitmap>, agge::rasterizer<agge::clipper<int>, agge::scaling<int> >, agge::nanovg_image_blender<agge::pixel24_bgr, agge::bitmap<agge::pixel32_bgra, agge::raw_bitmap> >, agge::winding<(unsigned char)8> >(agge::bitmap<agge::pixel24_bgr, agge::raw_bitmap>&, agge::rect<int> const*, agge::rasterizer<agge::clipper<int>, agge::scaling<int> > const&, agge::nanovg_image_blender<agge::pixel24_bgr, agge::bitmap<agge::pixel32_bgra, agge::raw_bitmap> > const&, agge::winding<(unsigned char)8> const&)
 *fill*         0x000000000002dec3        0x1 
 .text._ZN4agge20nanovg_image_blenderINS_11pixel24_bgrENS_6bitmapINS_14pixel16_bgr565ENS_10raw_bitmapEEEEC2EPS5_Pf
                0x000000000002dec4       0x5c /home/wh/.HoneyGUI-SDK/realgui/3rd/nanovg/agge/nanovg_agge.o
                0x000000000002dec4                agge::nanovg_image_blender<agge::pixel24_bgr, agge::bitmap<agge::pixel16_bgr565, agge::raw_bitmap> >::nanovg_image_blender(agge::bitmap<agge::pixel16_bgr565, agge::raw_bitmap>*, float*)
                0x000000000002dec4                agge::nanovg_image_blender<agge::pixel24_bgr, agge::bitmap<agge::pixel16_bgr565, agge::raw_bitmap> >::nanovg_image_blender(agge::bitmap<agge::pixel16_bgr565, agge::raw_bitmap>*, float*)
 .text._ZN4agge8rendererclINS_6bitmapINS_11pixel24_bgrENS_10raw_bitmapEEENS_10rasterizerINS_7clipperIiEENS_7scalingIiEEEENS_20nanovg_image_blenderIS3_NS2_INS_14pixel16_bgr565ES4_EEEENS_7windingILh8EEEEEvRT_PKNS_4rectIiEERKT0_RKT1_RKT2_
                0x000000000002df20      0x611 /home/wh/.HoneyGUI-SDK/realgui/3rd/nanovg/agge/nanovg_agge.o
                0x000000000002df20                void agge::renderer::operator()<agge::bitmap<agge::pixel24_bgr, agge::raw_bitmap>, agge::rasterizer<agge::clipper<int>, agge::scaling<int> >, agge::nanovg_image_blender<agge::pixel24_bgr, agge::bitmap<agge::pixel16_bgr565, agge::raw_bitmap> >, agge::winding<(unsigned char)8> >(agge::bitmap<agge::pixel24_bgr, agge::raw_bitmap>&, agge::rect<int> const*, agge::rasterizer<agge::clipper<int>, agge::scaling<int> > const&, agge::nanovg_image_blender<agge::pixel24_bgr, agge::bitmap<agge::pixel16_bgr565, agge::raw_bitmap> > const&, agge::winding<(unsigned char)8> const&)
 *fill*         0x000000000002e531        0x1 
 .text._ZN4agge20nanovg_image_blenderINS_11pixel24_bgrENS_6bitmapINS_11pixel24_rgbENS_10raw_bitmapEEEEC2EPS5_Pf
                0x000000000002e532       0x5c /home/wh/.HoneyGUI-SDK/realgui/3rd/nanovg/agge/nanovg_agge.o
                0x000000000002e532                agge::nanovg_image_blender<agge::pixel24_bgr, agge::bitmap<agge::pixel24_rgb, agge::raw_bitmap> >::nanovg_image_blender(agge::bitmap<agge::pixel24_rgb, agge::raw_bitmap>*, float*)
                0x000000000002e532                agge::nanovg_image_blender<agge::pixel24_bgr, agge::bitmap<agge::pixel24_rgb, agge::raw_bitmap> >::nanovg_image_blender(agge::bitmap<agge::pixel24_rgb, agge::raw_bitmap>*, float*)
 .text._ZN4agge8rendererclINS_6bitmapINS_11pixel24_bgrENS_10raw_bitmapEEENS_10rasterizerINS_7clipperIiEENS_7scalingIiEEEENS_20nanovg_image_blenderIS3_NS2_INS_11pixel24_rgbES4_EEEENS_7windingILh8EEEEEvRT_PKNS_4rectIiEERKT0_RKT1_RKT2_
                0x000000000002e58e      0x611 /home/wh/.HoneyGUI-SDK/realgui/3rd/nanovg/agge/nanovg_agge.o
                0x000000000002e58e                void agge::renderer::operator()<agge::bitmap<agge::pixel24_bgr, agge::raw_bitmap>, agge::rasterizer<agge::clipper<int>, agge::scaling<int> >, agge::nanovg_image_blender<agge::pixel24_bgr, agge::bitmap<agge::pixel24_rgb, agge::raw_bitmap> >, agge::winding<(unsigned char)8> >(agge::bitmap<agge::pixel24_bgr, agge::raw_bitmap>&, agge::rect<int> const*, agge::rasterizer<agge::clipper<int>, agge::scaling<int> > const&, agge::nanovg_image_blender<agge::pixel24_bgr, agge::bitmap<agge::pixel24_rgb, agge::raw_bitmap> > const&, agge::winding<(unsigned char)8> const&)
 *fill*         0x000000000002eb9f        0x1 
 .text._ZN4agge23blender_solid_color_rgbINS_11pixel24_bgrEEC2Ehhhh
                0x000000000002eba0       0x4f /home/wh/.HoneyGUI-SDK/realgui/3rd/nanovg/agge/nanovg_agge.o
                0x000000000002eba0                agge::blender_solid_color_rgb<agge::pixel24_bgr>::blender_solid_color_rgb(unsigned char, unsigned char, unsigned char, unsigned char)
                0x000000000002eba0                agge::blender_solid_color_rgb<agge::pixel24_bgr>::blender_solid_color_rgb(unsigned char, unsigned char, unsigned char, unsigned char)
 *fill*         0x000000000002ebef        0x1 
 .text._ZN4agge8rendererclINS_6bitmapINS_11pixel24_bgrENS_10raw_bitmapEEENS_10rasterizerINS_7clipperIiEENS_7scalingIiEEEENS_23blender_solid_color_rgbIS3_EENS_7windingILh8EEEEEvRT_PKNS_4rectIiEERKT0_RKT1_RKT2_
                0x000000000002ebf0      0x611 /home/wh/.HoneyGUI-SDK/realgui/3rd/nanovg/agge/nanovg_agge.o
                0x000000000002ebf0                void agge::renderer::operator()<agge::bitmap<agge::pixel24_bgr, agge::raw_bitmap>, agge::rasterizer<agge::clipper<int>, agge::scaling<int> >, agge::blender_solid_color_rgb<agge::pixel24_bgr>, agge::winding<(unsigned char)8> >(agge::bitmap<agge::pixel24_bgr, agge::raw_bitmap>&, agge::rect<int> const*, agge::rasterizer<agge::clipper<int>, agge::scaling<int> > const&, agge::blender_solid_color_rgb<agge::pixel24_bgr> const&, agge::winding<(unsigned char)8> const&)
 *fill*         0x000000000002f201        0x1 
 .text._ZN4agge23blender_linear_gradientINS_11pixel24_bgrEEC2EffffNS_12pixel32_rgbaES3_
                0x000000000002f202      0x137 /home/wh/.HoneyGUI-SDK/realgui/3rd/nanovg/agge/nanovg_agge.o
                0x000000000002f202                agge::blender_linear_gradient<agge::pixel24_bgr>::blender_linear_gradient(float, float, float, float, agge::pixel32_rgba, agge::pixel32_rgba)
                0x000000000002f202                agge::blender_linear_gradient<agge::pixel24_bgr>::blender_linear_gradient(float, float, float, float, agge::pixel32_rgba, agge::pixel32_rgba)
 *fill*         0x000000000002f339        0x1 
 .text._ZN4agge8rendererclINS_6bitmapINS_11pixel24_bgrENS_10raw_bitmapEEENS_10rasterizerINS_7clipperIiEENS_7scalingIiEEEENS_23blender_linear_gradientIS3_EENS_7windingILh8EEEEEvRT_PKNS_4rectIiEERKT0_RKT1_RKT2_
                0x000000000002f33a      0x611 /home/wh/.HoneyGUI-SDK/realgui/3rd/nanovg/agge/nanovg_agge.o
                0x000000000002f33a                void agge::renderer::operator()<agge::bitmap<agge::pixel24_bgr, agge::raw_bitmap>, agge::rasterizer<agge::clipper<int>, agge::scaling<int> >, agge::blender_linear_gradient<agge::pixel24_bgr>, agge::winding<(unsigned char)8> >(agge::bitmap<agge::pixel24_bgr, agge::raw_bitmap>&, agge::rect<int> const*, agge::rasterizer<agge::clipper<int>, agge::scaling<int> > const&, agge::blender_linear_gradient<agge::pixel24_bgr> const&, agge::winding<(unsigned char)8> const&)
 *fill*         0x000000000002f94b        0x1 
 .text._ZN4agge23blender_radial_gradientINS_11pixel24_bgrEEC2EffffNS_12pixel32_rgbaES3_
                0x000000000002f94c       0x74 /home/wh/.HoneyGUI-SDK/realgui/3rd/nanovg/agge/nanovg_agge.o
                0x000000000002f94c                agge::blender_radial_gradient<agge::pixel24_bgr>::blender_radial_gradient(float, float, float, float, agge::pixel32_rgba, agge::pixel32_rgba)
                0x000000000002f94c                agge::blender_radial_gradient<agge::pixel24_bgr>::blender_radial_gradient(float, float, float, float, agge::pixel32_rgba, agge::pixel32_rgba)
 .text._ZN4agge8rendererclINS_6bitmapINS_11pixel24_bgrENS_10raw_bitmapEEENS_10rasterizerINS_7clipperIiEENS_7scalingIiEEEENS_23blender_radial_gradientIS3_EENS_7windingILh8EEEEEvRT_PKNS_4rectIiEERKT0_RKT1_RKT2_
                0x000000000002f9c0      0x611 /home/wh/.HoneyGUI-SDK/realgui/3rd/nanovg/agge/nanovg_agge.o
                0x000000000002f9c0                void agge::renderer::operator()<agge::bitmap<agge::pixel24_bgr, agge::raw_bitmap>, agge::rasterizer<agge::clipper<int>, agge::scaling<int> >, agge::blender_radial_gradient<agge::pixel24_bgr>, agge::winding<(unsigned char)8> >(agge::bitmap<agge::pixel24_bgr, agge::raw_bitmap>&, agge::rect<int> const*, agge::rasterizer<agge::clipper<int>, agge::scaling<int> > const&, agge::blender_radial_gradient<agge::pixel24_bgr> const&, agge::winding<(unsigned char)8> const&)
 *fill*         0x000000000002ffd1        0x1 
 .text._ZN4agge20nanovg_image_blenderINS_14pixel16_bgr565ENS_6bitmapINS_12pixel32_rgbaENS_10raw_bitmapEEEEC2EPS5_Pf
                0x000000000002ffd2       0x5c /home/wh/.HoneyGUI-SDK/realgui/3rd/nanovg/agge/nanovg_agge.o
                0x000000000002ffd2                agge::nanovg_image_blender<agge::pixel16_bgr565, agge::bitmap<agge::pixel32_rgba, agge::raw_bitmap> >::nanovg_image_blender(agge::bitmap<agge::pixel32_rgba, agge::raw_bitmap>*, float*)
                0x000000000002ffd2                agge::nanovg_image_blender<agge::pixel16_bgr565, agge::bitmap<agge::pixel32_rgba, agge::raw_bitmap> >::nanovg_image_blender(agge::bitmap<agge::pixel32_rgba, agge::raw_bitmap>*, float*)
 .text._ZN4agge8rendererclINS_6bitmapINS_14pixel16_bgr565ENS_10raw_bitmapEEENS_10rasterizerINS_7clipperIiEENS_7scalingIiEEEENS_20nanovg_image_blenderIS3_NS2_INS_12pixel32_rgbaES4_EEEENS_7windingILh8EEEEEvRT_PKNS_4rectIiEERKT0_RKT1_RKT2_
                0x000000000003002e      0x611 /home/wh/.HoneyGUI-SDK/realgui/3rd/nanovg/agge/nanovg_agge.o
                0x000000000003002e                void agge::renderer::operator()<agge::bitmap<agge::pixel16_bgr565, agge::raw_bitmap>, agge::rasterizer<agge::clipper<int>, agge::scaling<int> >, agge::nanovg_image_blender<agge::pixel16_bgr565, agge::bitmap<agge::pixel32_rgba, agge::raw_bitmap> >, agge::winding<(unsigned char)8> >(agge::bitmap<agge::pixel16_bgr565, agge::raw_bitmap>&, agge::rect<int> const*, agge::rasterizer<agge::clipper<int>, agge::scaling<int> > const&, agge::nanovg_image_blender<agge::pixel16_bgr565, agge::bitmap<agge::pixel32_rgba, agge::raw_bitmap> > const&, agge::winding<(unsigned char)8> const&)
 *fill*         0x000000000003063f        0x1 
 .text._ZN4agge20nanovg_image_blenderINS_14pixel16_bgr565ENS_6bitmapINS_12pixel32_bgraENS_10raw_bitmapEEEEC2EPS5_Pf
                0x0000000000030640       0x5c /home/wh/.HoneyGUI-SDK/realgui/3rd/nanovg/agge/nanovg_agge.o
                0x0000000000030640                agge::nanovg_image_blender<agge::pixel16_bgr565, agge::bitmap<agge::pixel32_bgra, agge::raw_bitmap> >::nanovg_image_blender(agge::bitmap<agge::pixel32_bgra, agge::raw_bitmap>*, float*)
                0x0000000000030640                agge::nanovg_image_blender<agge::pixel16_bgr565, agge::bitmap<agge::pixel32_bgra, agge::raw_bitmap> >::nanovg_image_blender(agge::bitmap<agge::pixel32_bgra, agge::raw_bitmap>*, float*)
 .text._ZN4agge8rendererclINS_6bitmapINS_14pixel16_bgr565ENS_10raw_bitmapEEENS_10rasterizerINS_7clipperIiEENS_7scalingIiEEEENS_20nanovg_image_blenderIS3_NS2_INS_12pixel32_bgraES4_EEEENS_7windingILh8EEEEEvRT_PKNS_4rectIiEERKT0_RKT1_RKT2_
                0x000000000003069c      0x611 /home/wh/.HoneyGUI-SDK/realgui/3rd/nanovg/agge/nanovg_agge.o
                0x000000000003069c                void agge::renderer::operator()<agge::bitmap<agge::pixel16_bgr565, agge::raw_bitmap>, agge::rasterizer<agge::clipper<int>, agge::scaling<int> >, agge::nanovg_image_blender<agge::pixel16_bgr565, agge::bitmap<agge::pixel32_bgra, agge::raw_bitmap> >, agge::winding<(unsigned char)8> >(agge::bitmap<agge::pixel16_bgr565, agge::raw_bitmap>&, agge::rect<int> const*, agge::rasterizer<agge::clipper<int>, agge::scaling<int> > const&, agge::nanovg_image_blender<agge::pixel16_bgr565, agge::bitmap<agge::pixel32_bgra, agge::raw_bitmap> > const&, agge::winding<(unsigned char)8> const&)
 *fill*         0x0000000000030cad        0x1 
 .text._ZN4agge20nanovg_image_blenderINS_14pixel16_bgr565ENS_6bitmapIS1_NS_10raw_bitmapEEEEC2EPS4_Pf
                0x0000000000030cae       0x5c /home/wh/.HoneyGUI-SDK/realgui/3rd/nanovg/agge/nanovg_agge.o
                0x0000000000030cae                agge::nanovg_image_blender<agge::pixel16_bgr565, agge::bitmap<agge::pixel16_bgr565, agge::raw_bitmap> >::nanovg_image_blender(agge::bitmap<agge::pixel16_bgr565, agge::raw_bitmap>*, float*)
                0x0000000000030cae                agge::nanovg_image_blender<agge::pixel16_bgr565, agge::bitmap<agge::pixel16_bgr565, agge::raw_bitmap> >::nanovg_image_blender(agge::bitmap<agge::pixel16_bgr565, agge::raw_bitmap>*, float*)
 .text._ZN4agge8rendererclINS_6bitmapINS_14pixel16_bgr565ENS_10raw_bitmapEEENS_10rasterizerINS_7clipperIiEENS_7scalingIiEEEENS_20nanovg_image_blenderIS3_S5_EENS_7windingILh8EEEEEvRT_PKNS_4rectIiEERKT0_RKT1_RKT2_
                0x0000000000030d0a      0x611 /home/wh/.HoneyGUI-SDK/realgui/3rd/nanovg/agge/nanovg_agge.o
                0x0000000000030d0a                void agge::renderer::operator()<agge::bitmap<agge::pixel16_bgr565, agge::raw_bitmap>, agge::rasterizer<agge::clipper<int>, agge::scaling<int> >, agge::nanovg_image_blender<agge::pixel16_bgr565, agge::bitmap<agge::pixel16_bgr565, agge::raw_bitmap> >, agge::winding<(unsigned char)8> >(agge::bitmap<agge::pixel16_bgr565, agge::raw_bitmap>&, agge::rect<int> const*, agge::rasterizer<agge::clipper<int>, agge::scaling<int> > const&, agge::nanovg_image_blender<agge::pixel16_bgr565, agge::bitmap<agge::pixel16_bgr565, agge::raw_bitmap> > const&, agge::winding<(unsigned char)8> const&)
 *fill*         0x000000000003131b        0x1 
 .text._ZN4agge20nanovg_image_blenderINS_14pixel16_bgr565ENS_6bitmapINS_11pixel24_rgbENS_10raw_bitmapEEEEC2EPS5_Pf
                0x000000000003131c       0x5c /home/wh/.HoneyGUI-SDK/realgui/3rd/nanovg/agge/nanovg_agge.o
                0x000000000003131c                agge::nanovg_image_blender<agge::pixel16_bgr565, agge::bitmap<agge::pixel24_rgb, agge::raw_bitmap> >::nanovg_image_blender(agge::bitmap<agge::pixel24_rgb, agge::raw_bitmap>*, float*)
                0x000000000003131c                agge::nanovg_image_blender<agge::pixel16_bgr565, agge::bitmap<agge::pixel24_rgb, agge::raw_bitmap> >::nanovg_image_blender(agge::bitmap<agge::pixel24_rgb, agge::raw_bitmap>*, float*)
 .text._ZN4agge8rendererclINS_6bitmapINS_14pixel16_bgr565ENS_10raw_bitmapEEENS_10rasterizerINS_7clipperIiEENS_7scalingIiEEEENS_20nanovg_image_blenderIS3_NS2_INS_11pixel24_rgbES4_EEEENS_7windingILh8EEEEEvRT_PKNS_4rectIiEERKT0_RKT1_RKT2_
                0x0000000000031378      0x611 /home/wh/.HoneyGUI-SDK/realgui/3rd/nanovg/agge/nanovg_agge.o
                0x0000000000031378                void agge::renderer::operator()<agge::bitmap<agge::pixel16_bgr565, agge::raw_bitmap>, agge::rasterizer<agge::clipper<int>, agge::scaling<int> >, agge::nanovg_image_blender<agge::pixel16_bgr565, agge::bitmap<agge::pixel24_rgb, agge::raw_bitmap> >, agge::winding<(unsigned char)8> >(agge::bitmap<agge::pixel16_bgr565, agge::raw_bitmap>&, agge::rect<int> const*, agge::rasterizer<agge::clipper<int>, agge::scaling<int> > const&, agge::nanovg_image_blender<agge::pixel16_bgr565, agge::bitmap<agge::pixel24_rgb, agge::raw_bitmap> > const&, agge::winding<(unsigned char)8> const&)
 *fill*         0x0000000000031989        0x1 
 .text._ZN4agge23blender_solid_color_rgbINS_14pixel16_bgr565EEC2Ehhhh
                0x000000000003198a       0x4f /home/wh/.HoneyGUI-SDK/realgui/3rd/nanovg/agge/nanovg_agge.o
                0x000000000003198a                agge::blender_solid_color_rgb<agge::pixel16_bgr565>::blender_solid_color_rgb(unsigned char, unsigned char, unsigned char, unsigned char)
                0x000000000003198a                agge::blender_solid_color_rgb<agge::pixel16_bgr565>::blender_solid_color_rgb(unsigned char, unsigned char, unsigned char, unsigned char)
 *fill*         0x00000000000319d9        0x1 
 .text._ZN4agge8rendererclINS_6bitmapINS_14pixel16_bgr565ENS_10raw_bitmapEEENS_10rasterizerINS_7clipperIiEENS_7scalingIiEEEENS_23blender_solid_color_rgbIS3_EENS_7windingILh8EEEEEvRT_PKNS_4rectIiEERKT0_RKT1_RKT2_
                0x00000000000319da      0x611 /home/wh/.HoneyGUI-SDK/realgui/3rd/nanovg/agge/nanovg_agge.o
                0x00000000000319da                void agge::renderer::operator()<agge::bitmap<agge::pixel16_bgr565, agge::raw_bitmap>, agge::rasterizer<agge::clipper<int>, agge::scaling<int> >, agge::blender_solid_color_rgb<agge::pixel16_bgr565>, agge::winding<(unsigned char)8> >(agge::bitmap<agge::pixel16_bgr565, agge::raw_bitmap>&, agge::rect<int> const*, agge::rasterizer<agge::clipper<int>, agge::scaling<int> > const&, agge::blender_solid_color_rgb<agge::pixel16_bgr565> const&, agge::winding<(unsigned char)8> const&)
 *fill*         0x0000000000031feb        0x1 
 .text._ZN4agge23blender_linear_gradientINS_14pixel16_bgr565EEC2EffffNS_12pixel32_rgbaES3_
                0x0000000000031fec      0x137 /home/wh/.HoneyGUI-SDK/realgui/3rd/nanovg/agge/nanovg_agge.o
                0x0000000000031fec                agge::blender_linear_gradient<agge::pixel16_bgr565>::blender_linear_gradient(float, float, float, float, agge::pixel32_rgba, agge::pixel32_rgba)
                0x0000000000031fec                agge::blender_linear_gradient<agge::pixel16_bgr565>::blender_linear_gradient(float, float, float, float, agge::pixel32_rgba, agge::pixel32_rgba)
 *fill*         0x0000000000032123        0x1 
 .text._ZN4agge8rendererclINS_6bitmapINS_14pixel16_bgr565ENS_10raw_bitmapEEENS_10rasterizerINS_7clipperIiEENS_7scalingIiEEEENS_23blender_linear_gradientIS3_EENS_7windingILh8EEEEEvRT_PKNS_4rectIiEERKT0_RKT1_RKT2_
                0x0000000000032124      0x611 /home/wh/.HoneyGUI-SDK/realgui/3rd/nanovg/agge/nanovg_agge.o
                0x0000000000032124                void agge::renderer::operator()<agge::bitmap<agge::pixel16_bgr565, agge::raw_bitmap>, agge::rasterizer<agge::clipper<int>, agge::scaling<int> >, agge::blender_linear_gradient<agge::pixel16_bgr565>, agge::winding<(unsigned char)8> >(agge::bitmap<agge::pixel16_bgr565, agge::raw_bitmap>&, agge::rect<int> const*, agge::rasterizer<agge::clipper<int>, agge::scaling<int> > const&, agge::blender_linear_gradient<agge::pixel16_bgr565> const&, agge::winding<(unsigned char)8> const&)
 *fill*         0x0000000000032735        0x1 
 .text._ZN4agge23blender_radial_gradientINS_14pixel16_bgr565EEC2EffffNS_12pixel32_rgbaES3_
                0x0000000000032736       0x74 /home/wh/.HoneyGUI-SDK/realgui/3rd/nanovg/agge/nanovg_agge.o
                0x0000000000032736                agge::blender_radial_gradient<agge::pixel16_bgr565>::blender_radial_gradient(float, float, float, float, agge::pixel32_rgba, agge::pixel32_rgba)
                0x0000000000032736                agge::blender_radial_gradient<agge::pixel16_bgr565>::blender_radial_gradient(float, float, float, float, agge::pixel32_rgba, agge::pixel32_rgba)
 .text._ZN4agge8rendererclINS_6bitmapINS_14pixel16_bgr565ENS_10raw_bitmapEEENS_10rasterizerINS_7clipperIiEENS_7scalingIiEEEENS_23blender_radial_gradientIS3_EENS_7windingILh8EEEEEvRT_PKNS_4rectIiEERKT0_RKT1_RKT2_
                0x00000000000327aa      0x611 /home/wh/.HoneyGUI-SDK/realgui/3rd/nanovg/agge/nanovg_agge.o
                0x00000000000327aa                void agge::renderer::operator()<agge::bitmap<agge::pixel16_bgr565, agge::raw_bitmap>, agge::rasterizer<agge::clipper<int>, agge::scaling<int> >, agge::blender_radial_gradient<agge::pixel16_bgr565>, agge::winding<(unsigned char)8> >(agge::bitmap<agge::pixel16_bgr565, agge::raw_bitmap>&, agge::rect<int> const*, agge::rasterizer<agge::clipper<int>, agge::scaling<int> > const&, agge::blender_radial_gradient<agge::pixel16_bgr565> const&, agge::winding<(unsigned char)8> const&)
 .text._ZN4agge10clipping_yIiEEiT_RKNS_4rectIS1_EE
                0x0000000000032dbb       0x43 /home/wh/.HoneyGUI-SDK/realgui/3rd/nanovg/agge/nanovg_agge.o
                0x0000000000032dbb                int agge::clipping_y<int>(int, agge::rect<int> const&)
 .text._ZN4agge22path_generator_adapterINS_13nanovg_vertex8iteratorENS_6strokeEE9set_stageENS4_5stateEb
                0x0000000000032dfe       0x3f /home/wh/.HoneyGUI-SDK/realgui/3rd/nanovg/agge/nanovg_agge.o
                0x0000000000032dfe                agge::path_generator_adapter<agge::nanovg_vertex::iterator, agge::stroke>::set_stage(agge::path_generator_adapter<agge::nanovg_vertex::iterator, agge::stroke>::state, bool)
 *fill*         0x0000000000032e3d        0x1 
 .text._ZN4agge8renderer7adapterINS_6bitmapINS_12pixel32_rgbaENS_10raw_bitmapEEENS_20nanovg_image_blenderIS3_S5_EEEC2ERS5_PKNS_4rectIiEERKS7_
                0x0000000000032e3e      0x11c /home/wh/.HoneyGUI-SDK/realgui/3rd/nanovg/agge/nanovg_agge.o
                0x0000000000032e3e                agge::renderer::adapter<agge::bitmap<agge::pixel32_rgba, agge::raw_bitmap>, agge::nanovg_image_blender<agge::pixel32_rgba, agge::bitmap<agge::pixel32_rgba, agge::raw_bitmap> > >::adapter(agge::bitmap<agge::pixel32_rgba, agge::raw_bitmap>&, agge::rect<int> const*, agge::nanovg_image_blender<agge::pixel32_rgba, agge::bitmap<agge::pixel32_rgba, agge::raw_bitmap> > const&)
                0x0000000000032e3e                agge::renderer::adapter<agge::bitmap<agge::pixel32_rgba, agge::raw_bitmap>, agge::nanovg_image_blender<agge::pixel32_rgba, agge::bitmap<agge::pixel32_rgba, agge::raw_bitmap> > >::adapter(agge::bitmap<agge::pixel32_rgba, agge::raw_bitmap>&, agge::rect<int> const*, agge::nanovg_image_blender<agge::pixel32_rgba, agge::bitmap<agge::pixel32_rgba, agge::raw_bitmap> > const&)
 .text._ZN4agge16scanline_adapterINS_8renderer7adapterINS_6bitmapINS_12pixel32_rgbaENS_10raw_bitmapEEENS_20nanovg_image_blenderIS4_S6_EEEEEC2ERS9_RNS_17raw_memory_objectEj
                0x0000000000032f5a       0x7b /home/wh/.HoneyGUI-SDK/realgui/3rd/nanovg/agge/nanovg_agge.o
                0x0000000000032f5a                agge::scanline_adapter<agge::renderer::adapter<agge::bitmap<agge::pixel32_rgba, agge::raw_bitmap>, agge::nanovg_image_blender<agge::pixel32_rgba, agge::bitmap<agge::pixel32_rgba, agge::raw_bitmap> > > >::scanline_adapter(agge::renderer::adapter<agge::bitmap<agge::pixel32_rgba, agge::raw_bitmap>, agge::nanovg_image_blender<agge::pixel32_rgba, agge::bitmap<agge::pixel32_rgba, agge::raw_bitmap> > >&, agge::raw_memory_object&, unsigned int)
                0x0000000000032f5a                agge::scanline_adapter<agge::renderer::adapter<agge::bitmap<agge::pixel32_rgba, agge::raw_bitmap>, agge::nanovg_image_blender<agge::pixel32_rgba, agge::bitmap<agge::pixel32_rgba, agge::raw_bitmap> > > >::scanline_adapter(agge::renderer::adapter<agge::bitmap<agge::pixel32_rgba, agge::raw_bitmap>, agge::nanovg_image_blender<agge::pixel32_rgba, agge::bitmap<agge::pixel32_rgba, agge::raw_bitmap> > >&, agge::raw_memory_object&, unsigned int)
 *fill*         0x0000000000032fd5        0x1 
 .text._ZN4agge8renderer7adapterINS_6bitmapINS_12pixel32_rgbaENS_10raw_bitmapEEENS_20nanovg_image_blenderIS3_NS2_INS_12pixel32_bgraES4_EEEEEC2ERS5_PKNS_4rectIiEERKS9_
                0x0000000000032fd6      0x11c /home/wh/.HoneyGUI-SDK/realgui/3rd/nanovg/agge/nanovg_agge.o
                0x0000000000032fd6                agge::renderer::adapter<agge::bitmap<agge::pixel32_rgba, agge::raw_bitmap>, agge::nanovg_image_blender<agge::pixel32_rgba, agge::bitmap<agge::pixel32_bgra, agge::raw_bitmap> > >::adapter(agge::bitmap<agge::pixel32_rgba, agge::raw_bitmap>&, agge::rect<int> const*, agge::nanovg_image_blender<agge::pixel32_rgba, agge::bitmap<agge::pixel32_bgra, agge::raw_bitmap> > const&)
                0x0000000000032fd6                agge::renderer::adapter<agge::bitmap<agge::pixel32_rgba, agge::raw_bitmap>, agge::nanovg_image_blender<agge::pixel32_rgba, agge::bitmap<agge::pixel32_bgra, agge::raw_bitmap> > >::adapter(agge::bitmap<agge::pixel32_rgba, agge::raw_bitmap>&, agge::rect<int> const*, agge::nanovg_image_blender<agge::pixel32_rgba, agge::bitmap<agge::pixel32_bgra, agge::raw_bitmap> > const&)
 .text._ZN4agge16scanline_adapterINS_8renderer7adapterINS_6bitmapINS_12pixel32_rgbaENS_10raw_bitmapEEENS_20nanovg_image_blenderIS4_NS3_INS_12pixel32_bgraES5_EEEEEEEC2ERSB_RNS_17raw_memory_objectEj
                0x00000000000330f2       0x7b /home/wh/.HoneyGUI-SDK/realgui/3rd/nanovg/agge/nanovg_agge.o
                0x00000000000330f2                agge::scanline_adapter<agge::renderer::adapter<agge::bitmap<agge::pixel32_rgba, agge::raw_bitmap>, agge::nanovg_image_blender<agge::pixel32_rgba, agge::bitmap<agge::pixel32_bgra, agge::raw_bitmap> > > >::scanline_adapter(agge::renderer::adapter<agge::bitmap<agge::pixel32_rgba, agge::raw_bitmap>, agge::nanovg_image_blender<agge::pixel32_rgba, agge::bitmap<agge::pixel32_bgra, agge::raw_bitmap> > >&, agge::raw_memory_object&, unsigned int)
                0x00000000000330f2                agge::scanline_adapter<agge::renderer::adapter<agge::bitmap<agge::pixel32_rgba, agge::raw_bitmap>, agge::nanovg_image_blender<agge::pixel32_rgba, agge::bitmap<agge::pixel32_bgra, agge::raw_bitmap> > > >::scanline_adapter(agge::renderer::adapter<agge::bitmap<agge::pixel32_rgba, agge::raw_bitmap>, agge::nanovg_image_blender<agge::pixel32_rgba, agge::bitmap<agge::pixel32_bgra, agge::raw_bitmap> > >&, agge::raw_memory_object&, unsigned int)
 *fill*         0x000000000003316d        0x1 
 .text._ZN4agge8renderer7adapterINS_6bitmapINS_12pixel32_rgbaENS_10raw_bitmapEEENS_20nanovg_image_blenderIS3_NS2_INS_14pixel16_bgr565ES4_EEEEEC2ERS5_PKNS_4rectIiEERKS9_
                0x000000000003316e      0x11c /home/wh/.HoneyGUI-SDK/realgui/3rd/nanovg/agge/nanovg_agge.o
                0x000000000003316e                agge::renderer::adapter<agge::bitmap<agge::pixel32_rgba, agge::raw_bitmap>, agge::nanovg_image_blender<agge::pixel32_rgba, agge::bitmap<agge::pixel16_bgr565, agge::raw_bitmap> > >::adapter(agge::bitmap<agge::pixel32_rgba, agge::raw_bitmap>&, agge::rect<int> const*, agge::nanovg_image_blender<agge::pixel32_rgba, agge::bitmap<agge::pixel16_bgr565, agge::raw_bitmap> > const&)
                0x000000000003316e                agge::renderer::adapter<agge::bitmap<agge::pixel32_rgba, agge::raw_bitmap>, agge::nanovg_image_blender<agge::pixel32_rgba, agge::bitmap<agge::pixel16_bgr565, agge::raw_bitmap> > >::adapter(agge::bitmap<agge::pixel32_rgba, agge::raw_bitmap>&, agge::rect<int> const*, agge::nanovg_image_blender<agge::pixel32_rgba, agge::bitmap<agge::pixel16_bgr565, agge::raw_bitmap> > const&)
 .text._ZN4agge16scanline_adapterINS_8renderer7adapterINS_6bitmapINS_12pixel32_rgbaENS_10raw_bitmapEEENS_20nanovg_image_blenderIS4_NS3_INS_14pixel16_bgr565ES5_EEEEEEEC2ERSB_RNS_17raw_memory_objectEj
                0x000000000003328a       0x7b /home/wh/.HoneyGUI-SDK/realgui/3rd/nanovg/agge/nanovg_agge.o
                0x000000000003328a                agge::scanline_adapter<agge::renderer::adapter<agge::bitmap<agge::pixel32_rgba, agge::raw_bitmap>, agge::nanovg_image_blender<agge::pixel32_rgba, agge::bitmap<agge::pixel16_bgr565, agge::raw_bitmap> > > >::scanline_adapter(agge::renderer::adapter<agge::bitmap<agge::pixel32_rgba, agge::raw_bitmap>, agge::nanovg_image_blender<agge::pixel32_rgba, agge::bitmap<agge::pixel16_bgr565, agge::raw_bitmap> > >&, agge::raw_memory_object&, unsigned int)
                0x000000000003328a                agge::scanline_adapter<agge::renderer::adapter<agge::bitmap<agge::pixel32_rgba, agge::raw_bitmap>, agge::nanovg_image_blender<agge::pixel32_rgba, agge::bitmap<agge::pixel16_bgr565, agge::raw_bitmap> > > >::scanline_adapter(agge::renderer::adapter<agge::bitmap<agge::pixel32_rgba, agge::raw_bitmap>, agge::nanovg_image_blender<agge::pixel32_rgba, agge::bitmap<agge::pixel16_bgr565, agge::raw_bitmap> > >&, agge::raw_memory_object&, unsigned int)
 *fill*         0x0000000000033305        0x1 
 .text._ZN4agge8renderer7adapterINS_6bitmapINS_12pixel32_rgbaENS_10raw_bitmapEEENS_20nanovg_image_blenderIS3_NS2_INS_11pixel24_rgbES4_EEEEEC2ERS5_PKNS_4rectIiEERKS9_
                0x0000000000033306      0x11c /home/wh/.HoneyGUI-SDK/realgui/3rd/nanovg/agge/nanovg_agge.o
                0x0000000000033306                agge::renderer::adapter<agge::bitmap<agge::pixel32_rgba, agge::raw_bitmap>, agge::nanovg_image_blender<agge::pixel32_rgba, agge::bitmap<agge::pixel24_rgb, agge::raw_bitmap> > >::adapter(agge::bitmap<agge::pixel32_rgba, agge::raw_bitmap>&, agge::rect<int> const*, agge::nanovg_image_blender<agge::pixel32_rgba, agge::bitmap<agge::pixel24_rgb, agge::raw_bitmap> > const&)
                0x0000000000033306                agge::renderer::adapter<agge::bitmap<agge::pixel32_rgba, agge::raw_bitmap>, agge::nanovg_image_blender<agge::pixel32_rgba, agge::bitmap<agge::pixel24_rgb, agge::raw_bitmap> > >::adapter(agge::bitmap<agge::pixel32_rgba, agge::raw_bitmap>&, agge::rect<int> const*, agge::nanovg_image_blender<agge::pixel32_rgba, agge::bitmap<agge::pixel24_rgb, agge::raw_bitmap> > const&)
 .text._ZN4agge16scanline_adapterINS_8renderer7adapterINS_6bitmapINS_12pixel32_rgbaENS_10raw_bitmapEEENS_20nanovg_image_blenderIS4_NS3_INS_11pixel24_rgbES5_EEEEEEEC2ERSB_RNS_17raw_memory_objectEj
                0x0000000000033422       0x7b /home/wh/.HoneyGUI-SDK/realgui/3rd/nanovg/agge/nanovg_agge.o
                0x0000000000033422                agge::scanline_adapter<agge::renderer::adapter<agge::bitmap<agge::pixel32_rgba, agge::raw_bitmap>, agge::nanovg_image_blender<agge::pixel32_rgba, agge::bitmap<agge::pixel24_rgb, agge::raw_bitmap> > > >::scanline_adapter(agge::renderer::adapter<agge::bitmap<agge::pixel32_rgba, agge::raw_bitmap>, agge::nanovg_image_blender<agge::pixel32_rgba, agge::bitmap<agge::pixel24_rgb, agge::raw_bitmap> > >&, agge::raw_memory_object&, unsigned int)
                0x0000000000033422                agge::scanline_adapter<agge::renderer::adapter<agge::bitmap<agge::pixel32_rgba, agge::raw_bitmap>, agge::nanovg_image_blender<agge::pixel32_rgba, agge::bitmap<agge::pixel24_rgb, agge::raw_bitmap> > > >::scanline_adapter(agge::renderer::adapter<agge::bitmap<agge::pixel32_rgba, agge::raw_bitmap>, agge::nanovg_image_blender<agge::pixel32_rgba, agge::bitmap<agge::pixel24_rgb, agge::raw_bitmap> > >&, agge::raw_memory_object&, unsigned int)
 *fill*         0x000000000003349d        0x1 
 .text._ZN4agge8renderer7adapterINS_6bitmapINS_12pixel32_rgbaENS_10raw_bitmapEEENS_23blender_solid_color_rgbIS3_EEEC2ERS5_PKNS_4rectIiEERKS7_
                0x000000000003349e      0x11c /home/wh/.HoneyGUI-SDK/realgui/3rd/nanovg/agge/nanovg_agge.o
                0x000000000003349e                agge::renderer::adapter<agge::bitmap<agge::pixel32_rgba, agge::raw_bitmap>, agge::blender_solid_color_rgb<agge::pixel32_rgba> >::adapter(agge::bitmap<agge::pixel32_rgba, agge::raw_bitmap>&, agge::rect<int> const*, agge::blender_solid_color_rgb<agge::pixel32_rgba> const&)
                0x000000000003349e                agge::renderer::adapter<agge::bitmap<agge::pixel32_rgba, agge::raw_bitmap>, agge::blender_solid_color_rgb<agge::pixel32_rgba> >::adapter(agge::bitmap<agge::pixel32_rgba, agge::raw_bitmap>&, agge::rect<int> const*, agge::blender_solid_color_rgb<agge::pixel32_rgba> const&)
 .text._ZN4agge16scanline_adapterINS_8renderer7adapterINS_6bitmapINS_12pixel32_rgbaENS_10raw_bitmapEEENS_23blender_solid_color_rgbIS4_EEEEEC2ERS9_RNS_17raw_memory_objectEj
                0x00000000000335ba       0x7b /home/wh/.HoneyGUI-SDK/realgui/3rd/nanovg/agge/nanovg_agge.o
                0x00000000000335ba                agge::scanline_adapter<agge::renderer::adapter<agge::bitmap<agge::pixel32_rgba, agge::raw_bitmap>, agge::blender_solid_color_rgb<agge::pixel32_rgba> > >::scanline_adapter(agge::renderer::adapter<agge::bitmap<agge::pixel32_rgba, agge::raw_bitmap>, agge::blender_solid_color_rgb<agge::pixel32_rgba> >&, agge::raw_memory_object&, unsigned int)
                0x00000000000335ba                agge::scanline_adapter<agge::renderer::adapter<agge::bitmap<agge::pixel32_rgba, agge::raw_bitmap>, agge::blender_solid_color_rgb<agge::pixel32_rgba> > >::scanline_adapter(agge::renderer::adapter<agge::bitmap<agge::pixel32_rgba, agge::raw_bitmap>, agge::blender_solid_color_rgb<agge::pixel32_rgba> >&, agge::raw_memory_object&, unsigned int)
 *fill*         0x0000000000033635        0x1 
 .text._ZN4agge8renderer7adapterINS_6bitmapINS_12pixel32_rgbaENS_10raw_bitmapEEENS_23blender_linear_gradientIS3_EEEC2ERS5_PKNS_4rectIiEERKS7_
                0x0000000000033636      0x11c /home/wh/.HoneyGUI-SDK/realgui/3rd/nanovg/agge/nanovg_agge.o
                0x0000000000033636                agge::renderer::adapter<agge::bitmap<agge::pixel32_rgba, agge::raw_bitmap>, agge::blender_linear_gradient<agge::pixel32_rgba> >::adapter(agge::bitmap<agge::pixel32_rgba, agge::raw_bitmap>&, agge::rect<int> const*, agge::blender_linear_gradient<agge::pixel32_rgba> const&)
                0x0000000000033636                agge::renderer::adapter<agge::bitmap<agge::pixel32_rgba, agge::raw_bitmap>, agge::blender_linear_gradient<agge::pixel32_rgba> >::adapter(agge::bitmap<agge::pixel32_rgba, agge::raw_bitmap>&, agge::rect<int> const*, agge::blender_linear_gradient<agge::pixel32_rgba> const&)
 .text._ZN4agge16scanline_adapterINS_8renderer7adapterINS_6bitmapINS_12pixel32_rgbaENS_10raw_bitmapEEENS_23blender_linear_gradientIS4_EEEEEC2ERS9_RNS_17raw_memory_objectEj
                0x0000000000033752       0x7b /home/wh/.HoneyGUI-SDK/realgui/3rd/nanovg/agge/nanovg_agge.o
                0x0000000000033752                agge::scanline_adapter<agge::renderer::adapter<agge::bitmap<agge::pixel32_rgba, agge::raw_bitmap>, agge::blender_linear_gradient<agge::pixel32_rgba> > >::scanline_adapter(agge::renderer::adapter<agge::bitmap<agge::pixel32_rgba, agge::raw_bitmap>, agge::blender_linear_gradient<agge::pixel32_rgba> >&, agge::raw_memory_object&, unsigned int)
                0x0000000000033752                agge::scanline_adapter<agge::renderer::adapter<agge::bitmap<agge::pixel32_rgba, agge::raw_bitmap>, agge::blender_linear_gradient<agge::pixel32_rgba> > >::scanline_adapter(agge::renderer::adapter<agge::bitmap<agge::pixel32_rgba, agge::raw_bitmap>, agge::blender_linear_gradient<agge::pixel32_rgba> >&, agge::raw_memory_object&, unsigned int)
 *fill*         0x00000000000337cd        0x1 
 .text._ZN4agge8renderer7adapterINS_6bitmapINS_12pixel32_rgbaENS_10raw_bitmapEEENS_23blender_radial_gradientIS3_EEEC2ERS5_PKNS_4rectIiEERKS7_
                0x00000000000337ce      0x11c /home/wh/.HoneyGUI-SDK/realgui/3rd/nanovg/agge/nanovg_agge.o
                0x00000000000337ce                agge::renderer::adapter<agge::bitmap<agge::pixel32_rgba, agge::raw_bitmap>, agge::blender_radial_gradient<agge::pixel32_rgba> >::adapter(agge::bitmap<agge::pixel32_rgba, agge::raw_bitmap>&, agge::rect<int> const*, agge::blender_radial_gradient<agge::pixel32_rgba> const&)
                0x00000000000337ce                agge::renderer::adapter<agge::bitmap<agge::pixel32_rgba, agge::raw_bitmap>, agge::blender_radial_gradient<agge::pixel32_rgba> >::adapter(agge::bitmap<agge::pixel32_rgba, agge::raw_bitmap>&, agge::rect<int> const*, agge::blender_radial_gradient<agge::pixel32_rgba> const&)
 .text._ZN4agge16scanline_adapterINS_8renderer7adapterINS_6bitmapINS_12pixel32_rgbaENS_10raw_bitmapEEENS_23blender_radial_gradientIS4_EEEEEC2ERS9_RNS_17raw_memory_objectEj
                0x00000000000338ea       0x7b /home/wh/.HoneyGUI-SDK/realgui/3rd/nanovg/agge/nanovg_agge.o
                0x00000000000338ea                agge::scanline_adapter<agge::renderer::adapter<agge::bitmap<agge::pixel32_rgba, agge::raw_bitmap>, agge::blender_radial_gradient<agge::pixel32_rgba> > >::scanline_adapter(agge::renderer::adapter<agge::bitmap<agge::pixel32_rgba, agge::raw_bitmap>, agge::blender_radial_gradient<agge::pixel32_rgba> >&, agge::raw_memory_object&, unsigned int)
                0x00000000000338ea                agge::scanline_adapter<agge::renderer::adapter<agge::bitmap<agge::pixel32_rgba, agge::raw_bitmap>, agge::blender_radial_gradient<agge::pixel32_rgba> > >::scanline_adapter(agge::renderer::adapter<agge::bitmap<agge::pixel32_rgba, agge::raw_bitmap>, agge::blender_radial_gradient<agge::pixel32_rgba> >&, agge::raw_memory_object&, unsigned int)
 *fill*         0x0000000000033965        0x1 
 .text._ZNK4agge7clipperIiE11line_clip_yINS_10rasterizerIS1_NS_7scalingIiEEEEEEvRT_iiiiii
                0x0000000000033966      0x195 /home/wh/.HoneyGUI-SDK/realgui/3rd/nanovg/agge/nanovg_agge.o
                0x0000000000033966                void agge::clipper<int>::line_clip_y<agge::rasterizer<agge::clipper<int>, agge::scaling<int> > >(agge::rasterizer<agge::clipper<int>, agge::scaling<int> >&, int, int, int, int, int, int) const
 *fill*         0x0000000000033afb        0x1 
 .text._ZN4agge10rasterizerINS_7clipperIiEENS_7scalingIiEEE4lineEiiii
                0x0000000000033afc       0x87 /home/wh/.HoneyGUI-SDK/realgui/3rd/nanovg/agge/nanovg_agge.o
                0x0000000000033afc                agge::rasterizer<agge::clipper<int>, agge::scaling<int> >::line(int, int, int, int)
 *fill*         0x0000000000033b83        0x1 
 .text._ZN4agge8renderer7adapterINS_6bitmapINS_12pixel32_bgraENS_10raw_bitmapEEENS_20nanovg_image_blenderIS3_NS2_INS_12pixel32_rgbaES4_EEEEEC2ERS5_PKNS_4rectIiEERKS9_
                0x0000000000033b84      0x11c /home/wh/.HoneyGUI-SDK/realgui/3rd/nanovg/agge/nanovg_agge.o
                0x0000000000033b84                agge::renderer::adapter<agge::bitmap<agge::pixel32_bgra, agge::raw_bitmap>, agge::nanovg_image_blender<agge::pixel32_bgra, agge::bitmap<agge::pixel32_rgba, agge::raw_bitmap> > >::adapter(agge::bitmap<agge::pixel32_bgra, agge::raw_bitmap>&, agge::rect<int> const*, agge::nanovg_image_blender<agge::pixel32_bgra, agge::bitmap<agge::pixel32_rgba, agge::raw_bitmap> > const&)
                0x0000000000033b84                agge::renderer::adapter<agge::bitmap<agge::pixel32_bgra, agge::raw_bitmap>, agge::nanovg_image_blender<agge::pixel32_bgra, agge::bitmap<agge::pixel32_rgba, agge::raw_bitmap> > >::adapter(agge::bitmap<agge::pixel32_bgra, agge::raw_bitmap>&, agge::rect<int> const*, agge::nanovg_image_blender<agge::pixel32_bgra, agge::bitmap<agge::pixel32_rgba, agge::raw_bitmap> > const&)
 .text._ZN4agge16scanline_adapterINS_8renderer7adapterINS_6bitmapINS_12pixel32_bgraENS_10raw_bitmapEEENS_20nanovg_image_blenderIS4_NS3_INS_12pixel32_rgbaES5_EEEEEEEC2ERSB_RNS_17raw_memory_objectEj
                0x0000000000033ca0       0x7b /home/wh/.HoneyGUI-SDK/realgui/3rd/nanovg/agge/nanovg_agge.o
                0x0000000000033ca0                agge::scanline_adapter<agge::renderer::adapter<agge::bitmap<agge::pixel32_bgra, agge::raw_bitmap>, agge::nanovg_image_blender<agge::pixel32_bgra, agge::bitmap<agge::pixel32_rgba, agge::raw_bitmap> > > >::scanline_adapter(agge::renderer::adapter<agge::bitmap<agge::pixel32_bgra, agge::raw_bitmap>, agge::nanovg_image_blender<agge::pixel32_bgra, agge::bitmap<agge::pixel32_rgba, agge::raw_bitmap> > >&, agge::raw_memory_object&, unsigned int)
                0x0000000000033ca0                agge::scanline_adapter<agge::renderer::adapter<agge::bitmap<agge::pixel32_bgra, agge::raw_bitmap>, agge::nanovg_image_blender<agge::pixel32_bgra, agge::bitmap<agge::pixel32_rgba, agge::raw_bitmap> > > >::scanline_adapter(agge::renderer::adapter<agge::bitmap<agge::pixel32_bgra, agge::raw_bitmap>, agge::nanovg_image_blender<agge::pixel32_bgra, agge::bitmap<agge::pixel32_rgba, agge::raw_bitmap> > >&, agge::raw_memory_object&, unsigned int)
 *fill*         0x0000000000033d1b        0x1 
 .text._ZN4agge8renderer7adapterINS_6bitmapINS_12pixel32_bgraENS_10raw_bitmapEEENS_20nanovg_image_blenderIS3_S5_EEEC2ERS5_PKNS_4rectIiEERKS7_
                0x0000000000033d1c      0x11c /home/wh/.HoneyGUI-SDK/realgui/3rd/nanovg/agge/nanovg_agge.o
                0x0000000000033d1c                agge::renderer::adapter<agge::bitmap<agge::pixel32_bgra, agge::raw_bitmap>, agge::nanovg_image_blender<agge::pixel32_bgra, agge::bitmap<agge::pixel32_bgra, agge::raw_bitmap> > >::adapter(agge::bitmap<agge::pixel32_bgra, agge::raw_bitmap>&, agge::rect<int> const*, agge::nanovg_image_blender<agge::pixel32_bgra, agge::bitmap<agge::pixel32_bgra, agge::raw_bitmap> > const&)
                0x0000000000033d1c                agge::renderer::adapter<agge::bitmap<agge::pixel32_bgra, agge::raw_bitmap>, agge::nanovg_image_blender<agge::pixel32_bgra, agge::bitmap<agge::pixel32_bgra, agge::raw_bitmap> > >::adapter(agge::bitmap<agge::pixel32_bgra, agge::raw_bitmap>&, agge::rect<int> const*, agge::nanovg_image_blender<agge::pixel32_bgra, agge::bitmap<agge::pixel32_bgra, agge::raw_bitmap> > const&)
 .text._ZN4agge16scanline_adapterINS_8renderer7adapterINS_6bitmapINS_12pixel32_bgraENS_10raw_bitmapEEENS_20nanovg_image_blenderIS4_S6_EEEEEC2ERS9_RNS_17raw_memory_objectEj
                0x0000000000033e38       0x7b /home/wh/.HoneyGUI-SDK/realgui/3rd/nanovg/agge/nanovg_agge.o
                0x0000000000033e38                agge::scanline_adapter<agge::renderer::adapter<agge::bitmap<agge::pixel32_bgra, agge::raw_bitmap>, agge::nanovg_image_blender<agge::pixel32_bgra, agge::bitmap<agge::pixel32_bgra, agge::raw_bitmap> > > >::scanline_adapter(agge::renderer::adapter<agge::bitmap<agge::pixel32_bgra, agge::raw_bitmap>, agge::nanovg_image_blender<agge::pixel32_bgra, agge::bitmap<agge::pixel32_bgra, agge::raw_bitmap> > >&, agge::raw_memory_object&, unsigned int)
                0x0000000000033e38                agge::scanline_adapter<agge::renderer::adapter<agge::bitmap<agge::pixel32_bgra, agge::raw_bitmap>, agge::nanovg_image_blender<agge::pixel32_bgra, agge::bitmap<agge::pixel32_bgra, agge::raw_bitmap> > > >::scanline_adapter(agge::renderer::adapter<agge::bitmap<agge::pixel32_bgra, agge::raw_bitmap>, agge::nanovg_image_blender<agge::pixel32_bgra, agge::bitmap<agge::pixel32_bgra, agge::raw_bitmap> > >&, agge::raw_memory_object&, unsigned int)
 *fill*         0x0000000000033eb3        0x1 
 .text._ZN4agge8renderer7adapterINS_6bitmapINS_12pixel32_bgraENS_10raw_bitmapEEENS_20nanovg_image_blenderIS3_NS2_INS_14pixel16_bgr565ES4_EEEEEC2ERS5_PKNS_4rectIiEERKS9_
                0x0000000000033eb4      0x11c /home/wh/.HoneyGUI-SDK/realgui/3rd/nanovg/agge/nanovg_agge.o
                0x0000000000033eb4                agge::renderer::adapter<agge::bitmap<agge::pixel32_bgra, agge::raw_bitmap>, agge::nanovg_image_blender<agge::pixel32_bgra, agge::bitmap<agge::pixel16_bgr565, agge::raw_bitmap> > >::adapter(agge::bitmap<agge::pixel32_bgra, agge::raw_bitmap>&, agge::rect<int> const*, agge::nanovg_image_blender<agge::pixel32_bgra, agge::bitmap<agge::pixel16_bgr565, agge::raw_bitmap> > const&)
                0x0000000000033eb4                agge::renderer::adapter<agge::bitmap<agge::pixel32_bgra, agge::raw_bitmap>, agge::nanovg_image_blender<agge::pixel32_bgra, agge::bitmap<agge::pixel16_bgr565, agge::raw_bitmap> > >::adapter(agge::bitmap<agge::pixel32_bgra, agge::raw_bitmap>&, agge::rect<int> const*, agge::nanovg_image_blender<agge::pixel32_bgra, agge::bitmap<agge::pixel16_bgr565, agge::raw_bitmap> > const&)
 .text._ZN4agge16scanline_adapterINS_8renderer7adapterINS_6bitmapINS_12pixel32_bgraENS_10raw_bitmapEEENS_20nanovg_image_blenderIS4_NS3_INS_14pixel16_bgr565ES5_EEEEEEEC2ERSB_RNS_17raw_memory_objectEj
                0x0000000000033fd0       0x7b /home/wh/.HoneyGUI-SDK/realgui/3rd/nanovg/agge/nanovg_agge.o
                0x0000000000033fd0                agge::scanline_adapter<agge::renderer::adapter<agge::bitmap<agge::pixel32_bgra, agge::raw_bitmap>, agge::nanovg_image_blender<agge::pixel32_bgra, agge::bitmap<agge::pixel16_bgr565, agge::raw_bitmap> > > >::scanline_adapter(agge::renderer::adapter<agge::bitmap<agge::pixel32_bgra, agge::raw_bitmap>, agge::nanovg_image_blender<agge::pixel32_bgra, agge::bitmap<agge::pixel16_bgr565, agge::raw_bitmap> > >&, agge::raw_memory_object&, unsigned int)
                0x0000000000033fd0                agge::scanline_adapter<agge::renderer::adapter<agge::bitmap<agge::pixel32_bgra, agge::raw_bitmap>, agge::nanovg_image_blender<agge::pixel32_bgra, agge::bitmap<agge::pixel16_bgr565, agge::raw_bitmap> > > >::scanline_adapter(agge::renderer::adapter<agge::bitmap<agge::pixel32_bgra, agge::raw_bitmap>, agge::nanovg_image_blender<agge::pixel32_bgra, agge::bitmap<agge::pixel16_bgr565, agge::raw_bitmap> > >&, agge::raw_memory_object&, unsigned int)
 *fill*         0x000000000003404b        0x1 
 .text._ZN4agge8renderer7adapterINS_6bitmapINS_12pixel32_bgraENS_10raw_bitmapEEENS_20nanovg_image_blenderIS3_NS2_INS_11pixel24_rgbES4_EEEEEC2ERS5_PKNS_4rectIiEERKS9_
                0x000000000003404c      0x11c /home/wh/.HoneyGUI-SDK/realgui/3rd/nanovg/agge/nanovg_agge.o
                0x000000000003404c                agge::renderer::adapter<agge::bitmap<agge::pixel32_bgra, agge::raw_bitmap>, agge::nanovg_image_blender<agge::pixel32_bgra, agge::bitmap<agge::pixel24_rgb, agge::raw_bitmap> > >::adapter(agge::bitmap<agge::pixel32_bgra, agge::raw_bitmap>&, agge::rect<int> const*, agge::nanovg_image_blender<agge::pixel32_bgra, agge::bitmap<agge::pixel24_rgb, agge::raw_bitmap> > const&)
                0x000000000003404c                agge::renderer::adapter<agge::bitmap<agge::pixel32_bgra, agge::raw_bitmap>, agge::nanovg_image_blender<agge::pixel32_bgra, agge::bitmap<agge::pixel24_rgb, agge::raw_bitmap> > >::adapter(agge::bitmap<agge::pixel32_bgra, agge::raw_bitmap>&, agge::rect<int> const*, agge::nanovg_image_blender<agge::pixel32_bgra, agge::bitmap<agge::pixel24_rgb, agge::raw_bitmap> > const&)
 .text._ZN4agge16scanline_adapterINS_8renderer7adapterINS_6bitmapINS_12pixel32_bgraENS_10raw_bitmapEEENS_20nanovg_image_blenderIS4_NS3_INS_11pixel24_rgbES5_EEEEEEEC2ERSB_RNS_17raw_memory_objectEj
                0x0000000000034168       0x7b /home/wh/.HoneyGUI-SDK/realgui/3rd/nanovg/agge/nanovg_agge.o
                0x0000000000034168                agge::scanline_adapter<agge::renderer::adapter<agge::bitmap<agge::pixel32_bgra, agge::raw_bitmap>, agge::nanovg_image_blender<agge::pixel32_bgra, agge::bitmap<agge::pixel24_rgb, agge::raw_bitmap> > > >::scanline_adapter(agge::renderer::adapter<agge::bitmap<agge::pixel32_bgra, agge::raw_bitmap>, agge::nanovg_image_blender<agge::pixel32_bgra, agge::bitmap<agge::pixel24_rgb, agge::raw_bitmap> > >&, agge::raw_memory_object&, unsigned int)
                0x0000000000034168                agge::scanline_adapter<agge::renderer::adapter<agge::bitmap<agge::pixel32_bgra, agge::raw_bitmap>, agge::nanovg_image_blender<agge::pixel32_bgra, agge::bitmap<agge::pixel24_rgb, agge::raw_bitmap> > > >::scanline_adapter(agge::renderer::adapter<agge::bitmap<agge::pixel32_bgra, agge::raw_bitmap>, agge::nanovg_image_blender<agge::pixel32_bgra, agge::bitmap<agge::pixel24_rgb, agge::raw_bitmap> > >&, agge::raw_memory_object&, unsigned int)
 *fill*         0x00000000000341e3        0x1 
 .text._ZN4agge8renderer7adapterINS_6bitmapINS_12pixel32_bgraENS_10raw_bitmapEEENS_23blender_solid_color_rgbIS3_EEEC2ERS5_PKNS_4rectIiEERKS7_
                0x00000000000341e4      0x11c /home/wh/.HoneyGUI-SDK/realgui/3rd/nanovg/agge/nanovg_agge.o
                0x00000000000341e4                agge::renderer::adapter<agge::bitmap<agge::pixel32_bgra, agge::raw_bitmap>, agge::blender_solid_color_rgb<agge::pixel32_bgra> >::adapter(agge::bitmap<agge::pixel32_bgra, agge::raw_bitmap>&, agge::rect<int> const*, agge::blender_solid_color_rgb<agge::pixel32_bgra> const&)
                0x00000000000341e4                agge::renderer::adapter<agge::bitmap<agge::pixel32_bgra, agge::raw_bitmap>, agge::blender_solid_color_rgb<agge::pixel32_bgra> >::adapter(agge::bitmap<agge::pixel32_bgra, agge::raw_bitmap>&, agge::rect<int> const*, agge::blender_solid_color_rgb<agge::pixel32_bgra> const&)
 .text._ZN4agge16scanline_adapterINS_8renderer7adapterINS_6bitmapINS_12pixel32_bgraENS_10raw_bitmapEEENS_23blender_solid_color_rgbIS4_EEEEEC2ERS9_RNS_17raw_memory_objectEj
                0x0000000000034300       0x7b /home/wh/.HoneyGUI-SDK/realgui/3rd/nanovg/agge/nanovg_agge.o
                0x0000000000034300                agge::scanline_adapter<agge::renderer::adapter<agge::bitmap<agge::pixel32_bgra, agge::raw_bitmap>, agge::blender_solid_color_rgb<agge::pixel32_bgra> > >::scanline_adapter(agge::renderer::adapter<agge::bitmap<agge::pixel32_bgra, agge::raw_bitmap>, agge::blender_solid_color_rgb<agge::pixel32_bgra> >&, agge::raw_memory_object&, unsigned int)
                0x0000000000034300                agge::scanline_adapter<agge::renderer::adapter<agge::bitmap<agge::pixel32_bgra, agge::raw_bitmap>, agge::blender_solid_color_rgb<agge::pixel32_bgra> > >::scanline_adapter(agge::renderer::adapter<agge::bitmap<agge::pixel32_bgra, agge::raw_bitmap>, agge::blender_solid_color_rgb<agge::pixel32_bgra> >&, agge::raw_memory_object&, unsigned int)
 *fill*         0x000000000003437b        0x1 
 .text._ZN4agge8renderer7adapterINS_6bitmapINS_12pixel32_bgraENS_10raw_bitmapEEENS_23blender_linear_gradientIS3_EEEC2ERS5_PKNS_4rectIiEERKS7_
                0x000000000003437c      0x11c /home/wh/.HoneyGUI-SDK/realgui/3rd/nanovg/agge/nanovg_agge.o
                0x000000000003437c                agge::renderer::adapter<agge::bitmap<agge::pixel32_bgra, agge::raw_bitmap>, agge::blender_linear_gradient<agge::pixel32_bgra> >::adapter(agge::bitmap<agge::pixel32_bgra, agge::raw_bitmap>&, agge::rect<int> const*, agge::blender_linear_gradient<agge::pixel32_bgra> const&)
                0x000000000003437c                agge::renderer::adapter<agge::bitmap<agge::pixel32_bgra, agge::raw_bitmap>, agge::blender_linear_gradient<agge::pixel32_bgra> >::adapter(agge::bitmap<agge::pixel32_bgra, agge::raw_bitmap>&, agge::rect<int> const*, agge::blender_linear_gradient<agge::pixel32_bgra> const&)
 .text._ZN4agge16scanline_adapterINS_8renderer7adapterINS_6bitmapINS_12pixel32_bgraENS_10raw_bitmapEEENS_23blender_linear_gradientIS4_EEEEEC2ERS9_RNS_17raw_memory_objectEj
                0x0000000000034498       0x7b /home/wh/.HoneyGUI-SDK/realgui/3rd/nanovg/agge/nanovg_agge.o
                0x0000000000034498                agge::scanline_adapter<agge::renderer::adapter<agge::bitmap<agge::pixel32_bgra, agge::raw_bitmap>, agge::blender_linear_gradient<agge::pixel32_bgra> > >::scanline_adapter(agge::renderer::adapter<agge::bitmap<agge::pixel32_bgra, agge::raw_bitmap>, agge::blender_linear_gradient<agge::pixel32_bgra> >&, agge::raw_memory_object&, unsigned int)
                0x0000000000034498                agge::scanline_adapter<agge::renderer::adapter<agge::bitmap<agge::pixel32_bgra, agge::raw_bitmap>, agge::blender_linear_gradient<agge::pixel32_bgra> > >::scanline_adapter(agge::renderer::adapter<agge::bitmap<agge::pixel32_bgra, agge::raw_bitmap>, agge::blender_linear_gradient<agge::pixel32_bgra> >&, agge::raw_memory_object&, unsigned int)
 *fill*         0x0000000000034513        0x1 
 .text._ZN4agge8renderer7adapterINS_6bitmapINS_12pixel32_bgraENS_10raw_bitmapEEENS_23blender_radial_gradientIS3_EEEC2ERS5_PKNS_4rectIiEERKS7_
                0x0000000000034514      0x11c /home/wh/.HoneyGUI-SDK/realgui/3rd/nanovg/agge/nanovg_agge.o
                0x0000000000034514                agge::renderer::adapter<agge::bitmap<agge::pixel32_bgra, agge::raw_bitmap>, agge::blender_radial_gradient<agge::pixel32_bgra> >::adapter(agge::bitmap<agge::pixel32_bgra, agge::raw_bitmap>&, agge::rect<int> const*, agge::blender_radial_gradient<agge::pixel32_bgra> const&)
                0x0000000000034514                agge::renderer::adapter<agge::bitmap<agge::pixel32_bgra, agge::raw_bitmap>, agge::blender_radial_gradient<agge::pixel32_bgra> >::adapter(agge::bitmap<agge::pixel32_bgra, agge::raw_bitmap>&, agge::rect<int> const*, agge::blender_radial_gradient<agge::pixel32_bgra> const&)
 .text._ZN4agge16scanline_adapterINS_8renderer7adapterINS_6bitmapINS_12pixel32_bgraENS_10raw_bitmapEEENS_23blender_radial_gradientIS4_EEEEEC2ERS9_RNS_17raw_memory_objectEj
                0x0000000000034630       0x7b /home/wh/.HoneyGUI-SDK/realgui/3rd/nanovg/agge/nanovg_agge.o
                0x0000000000034630                agge::scanline_adapter<agge::renderer::adapter<agge::bitmap<agge::pixel32_bgra, agge::raw_bitmap>, agge::blender_radial_gradient<agge::pixel32_bgra> > >::scanline_adapter(agge::renderer::adapter<agge::bitmap<agge::pixel32_bgra, agge::raw_bitmap>, agge::blender_radial_gradient<agge::pixel32_bgra> >&, agge::raw_memory_object&, unsigned int)
                0x0000000000034630                agge::scanline_adapter<agge::renderer::adapter<agge::bitmap<agge::pixel32_bgra, agge::raw_bitmap>, agge::blender_radial_gradient<agge::pixel32_bgra> > >::scanline_adapter(agge::renderer::adapter<agge::bitmap<agge::pixel32_bgra, agge::raw_bitmap>, agge::blender_radial_gradient<agge::pixel32_bgra> >&, agge::raw_memory_object&, unsigned int)
 *fill*         0x00000000000346ab        0x1 
 .text._ZN4agge8renderer7adapterINS_6bitmapINS_11pixel24_rgbENS_10raw_bitmapEEENS_20nanovg_image_blenderIS3_NS2_INS_12pixel32_rgbaES4_EEEEEC2ERS5_PKNS_4rectIiEERKS9_
                0x00000000000346ac      0x11c /home/wh/.HoneyGUI-SDK/realgui/3rd/nanovg/agge/nanovg_agge.o
                0x00000000000346ac                agge::renderer::adapter<agge::bitmap<agge::pixel24_rgb, agge::raw_bitmap>, agge::nanovg_image_blender<agge::pixel24_rgb, agge::bitmap<agge::pixel32_rgba, agge::raw_bitmap> > >::adapter(agge::bitmap<agge::pixel24_rgb, agge::raw_bitmap>&, agge::rect<int> const*, agge::nanovg_image_blender<agge::pixel24_rgb, agge::bitmap<agge::pixel32_rgba, agge::raw_bitmap> > const&)
                0x00000000000346ac                agge::renderer::adapter<agge::bitmap<agge::pixel24_rgb, agge::raw_bitmap>, agge::nanovg_image_blender<agge::pixel24_rgb, agge::bitmap<agge::pixel32_rgba, agge::raw_bitmap> > >::adapter(agge::bitmap<agge::pixel24_rgb, agge::raw_bitmap>&, agge::rect<int> const*, agge::nanovg_image_blender<agge::pixel24_rgb, agge::bitmap<agge::pixel32_rgba, agge::raw_bitmap> > const&)
 .text._ZN4agge16scanline_adapterINS_8renderer7adapterINS_6bitmapINS_11pixel24_rgbENS_10raw_bitmapEEENS_20nanovg_image_blenderIS4_NS3_INS_12pixel32_rgbaES5_EEEEEEEC2ERSB_RNS_17raw_memory_objectEj
                0x00000000000347c8       0x7b /home/wh/.HoneyGUI-SDK/realgui/3rd/nanovg/agge/nanovg_agge.o
                0x00000000000347c8                agge::scanline_adapter<agge::renderer::adapter<agge::bitmap<agge::pixel24_rgb, agge::raw_bitmap>, agge::nanovg_image_blender<agge::pixel24_rgb, agge::bitmap<agge::pixel32_rgba, agge::raw_bitmap> > > >::scanline_adapter(agge::renderer::adapter<agge::bitmap<agge::pixel24_rgb, agge::raw_bitmap>, agge::nanovg_image_blender<agge::pixel24_rgb, agge::bitmap<agge::pixel32_rgba, agge::raw_bitmap> > >&, agge::raw_memory_object&, unsigned int)
                0x00000000000347c8                agge::scanline_adapter<agge::renderer::adapter<agge::bitmap<agge::pixel24_rgb, agge::raw_bitmap>, agge::nanovg_image_blender<agge::pixel24_rgb, agge::bitmap<agge::pixel32_rgba, agge::raw_bitmap> > > >::scanline_adapter(agge::renderer::adapter<agge::bitmap<agge::pixel24_rgb, agge::raw_bitmap>, agge::nanovg_image_blender<agge::pixel24_rgb, agge::bitmap<agge::pixel32_rgba, agge::raw_bitmap> > >&, agge::raw_memory_object&, unsigned int)
 *fill*         0x0000000000034843        0x1 
 .text._ZN4agge8renderer7adapterINS_6bitmapINS_11pixel24_rgbENS_10raw_bitmapEEENS_20nanovg_image_blenderIS3_NS2_INS_12pixel32_bgraES4_EEEEEC2ERS5_PKNS_4rectIiEERKS9_
                0x0000000000034844      0x11c /home/wh/.HoneyGUI-SDK/realgui/3rd/nanovg/agge/nanovg_agge.o
                0x0000000000034844                agge::renderer::adapter<agge::bitmap<agge::pixel24_rgb, agge::raw_bitmap>, agge::nanovg_image_blender<agge::pixel24_rgb, agge::bitmap<agge::pixel32_bgra, agge::raw_bitmap> > >::adapter(agge::bitmap<agge::pixel24_rgb, agge::raw_bitmap>&, agge::rect<int> const*, agge::nanovg_image_blender<agge::pixel24_rgb, agge::bitmap<agge::pixel32_bgra, agge::raw_bitmap> > const&)
                0x0000000000034844                agge::renderer::adapter<agge::bitmap<agge::pixel24_rgb, agge::raw_bitmap>, agge::nanovg_image_blender<agge::pixel24_rgb, agge::bitmap<agge::pixel32_bgra, agge::raw_bitmap> > >::adapter(agge::bitmap<agge::pixel24_rgb, agge::raw_bitmap>&, agge::rect<int> const*, agge::nanovg_image_blender<agge::pixel24_rgb, agge::bitmap<agge::pixel32_bgra, agge::raw_bitmap> > const&)
 .text._ZN4agge16scanline_adapterINS_8renderer7adapterINS_6bitmapINS_11pixel24_rgbENS_10raw_bitmapEEENS_20nanovg_image_blenderIS4_NS3_INS_12pixel32_bgraES5_EEEEEEEC2ERSB_RNS_17raw_memory_objectEj
                0x0000000000034960       0x7b /home/wh/.HoneyGUI-SDK/realgui/3rd/nanovg/agge/nanovg_agge.o
                0x0000000000034960                agge::scanline_adapter<agge::renderer::adapter<agge::bitmap<agge::pixel24_rgb, agge::raw_bitmap>, agge::nanovg_image_blender<agge::pixel24_rgb, agge::bitmap<agge::pixel32_bgra, agge::raw_bitmap> > > >::scanline_adapter(agge::renderer::adapter<agge::bitmap<agge::pixel24_rgb, agge::raw_bitmap>, agge::nanovg_image_blender<agge::pixel24_rgb, agge::bitmap<agge::pixel32_bgra, agge::raw_bitmap> > >&, agge::raw_memory_object&, unsigned int)
                0x0000000000034960                agge::scanline_adapter<agge::renderer::adapter<agge::bitmap<agge::pixel24_rgb, agge::raw_bitmap>, agge::nanovg_image_blender<agge::pixel24_rgb, agge::bitmap<agge::pixel32_bgra, agge::raw_bitmap> > > >::scanline_adapter(agge::renderer::adapter<agge::bitmap<agge::pixel24_rgb, agge::raw_bitmap>, agge::nanovg_image_blender<agge::pixel24_rgb, agge::bitmap<agge::pixel32_bgra, agge::raw_bitmap> > >&, agge::raw_memory_object&, unsigned int)
 *fill*         0x00000000000349db        0x1 
 .text._ZN4agge8renderer7adapterINS_6bitmapINS_11pixel24_rgbENS_10raw_bitmapEEENS_20nanovg_image_blenderIS3_NS2_INS_14pixel16_bgr565ES4_EEEEEC2ERS5_PKNS_4rectIiEERKS9_
                0x00000000000349dc      0x11c /home/wh/.HoneyGUI-SDK/realgui/3rd/nanovg/agge/nanovg_agge.o
                0x00000000000349dc                agge::renderer::adapter<agge::bitmap<agge::pixel24_rgb, agge::raw_bitmap>, agge::nanovg_image_blender<agge::pixel24_rgb, agge::bitmap<agge::pixel16_bgr565, agge::raw_bitmap> > >::adapter(agge::bitmap<agge::pixel24_rgb, agge::raw_bitmap>&, agge::rect<int> const*, agge::nanovg_image_blender<agge::pixel24_rgb, agge::bitmap<agge::pixel16_bgr565, agge::raw_bitmap> > const&)
                0x00000000000349dc                agge::renderer::adapter<agge::bitmap<agge::pixel24_rgb, agge::raw_bitmap>, agge::nanovg_image_blender<agge::pixel24_rgb, agge::bitmap<agge::pixel16_bgr565, agge::raw_bitmap> > >::adapter(agge::bitmap<agge::pixel24_rgb, agge::raw_bitmap>&, agge::rect<int> const*, agge::nanovg_image_blender<agge::pixel24_rgb, agge::bitmap<agge::pixel16_bgr565, agge::raw_bitmap> > const&)
 .text._ZN4agge16scanline_adapterINS_8renderer7adapterINS_6bitmapINS_11pixel24_rgbENS_10raw_bitmapEEENS_20nanovg_image_blenderIS4_NS3_INS_14pixel16_bgr565ES5_EEEEEEEC2ERSB_RNS_17raw_memory_objectEj
                0x0000000000034af8       0x7b /home/wh/.HoneyGUI-SDK/realgui/3rd/nanovg/agge/nanovg_agge.o
                0x0000000000034af8                agge::scanline_adapter<agge::renderer::adapter<agge::bitmap<agge::pixel24_rgb, agge::raw_bitmap>, agge::nanovg_image_blender<agge::pixel24_rgb, agge::bitmap<agge::pixel16_bgr565, agge::raw_bitmap> > > >::scanline_adapter(agge::renderer::adapter<agge::bitmap<agge::pixel24_rgb, agge::raw_bitmap>, agge::nanovg_image_blender<agge::pixel24_rgb, agge::bitmap<agge::pixel16_bgr565, agge::raw_bitmap> > >&, agge::raw_memory_object&, unsigned int)
                0x0000000000034af8                agge::scanline_adapter<agge::renderer::adapter<agge::bitmap<agge::pixel24_rgb, agge::raw_bitmap>, agge::nanovg_image_blender<agge::pixel24_rgb, agge::bitmap<agge::pixel16_bgr565, agge::raw_bitmap> > > >::scanline_adapter(agge::renderer::adapter<agge::bitmap<agge::pixel24_rgb, agge::raw_bitmap>, agge::nanovg_image_blender<agge::pixel24_rgb, agge::bitmap<agge::pixel16_bgr565, agge::raw_bitmap> > >&, agge::raw_memory_object&, unsigned int)
 *fill*         0x0000000000034b73        0x1 
 .text._ZN4agge8renderer7adapterINS_6bitmapINS_11pixel24_rgbENS_10raw_bitmapEEENS_20nanovg_image_blenderIS3_S5_EEEC2ERS5_PKNS_4rectIiEERKS7_
                0x0000000000034b74      0x11c /home/wh/.HoneyGUI-SDK/realgui/3rd/nanovg/agge/nanovg_agge.o
                0x0000000000034b74                agge::renderer::adapter<agge::bitmap<agge::pixel24_rgb, agge::raw_bitmap>, agge::nanovg_image_blender<agge::pixel24_rgb, agge::bitmap<agge::pixel24_rgb, agge::raw_bitmap> > >::adapter(agge::bitmap<agge::pixel24_rgb, agge::raw_bitmap>&, agge::rect<int> const*, agge::nanovg_image_blender<agge::pixel24_rgb, agge::bitmap<agge::pixel24_rgb, agge::raw_bitmap> > const&)
                0x0000000000034b74                agge::renderer::adapter<agge::bitmap<agge::pixel24_rgb, agge::raw_bitmap>, agge::nanovg_image_blender<agge::pixel24_rgb, agge::bitmap<agge::pixel24_rgb, agge::raw_bitmap> > >::adapter(agge::bitmap<agge::pixel24_rgb, agge::raw_bitmap>&, agge::rect<int> const*, agge::nanovg_image_blender<agge::pixel24_rgb, agge::bitmap<agge::pixel24_rgb, agge::raw_bitmap> > const&)
 .text._ZN4agge16scanline_adapterINS_8renderer7adapterINS_6bitmapINS_11pixel24_rgbENS_10raw_bitmapEEENS_20nanovg_image_blenderIS4_S6_EEEEEC2ERS9_RNS_17raw_memory_objectEj
                0x0000000000034c90       0x7b /home/wh/.HoneyGUI-SDK/realgui/3rd/nanovg/agge/nanovg_agge.o
                0x0000000000034c90                agge::scanline_adapter<agge::renderer::adapter<agge::bitmap<agge::pixel24_rgb, agge::raw_bitmap>, agge::nanovg_image_blender<agge::pixel24_rgb, agge::bitmap<agge::pixel24_rgb, agge::raw_bitmap> > > >::scanline_adapter(agge::renderer::adapter<agge::bitmap<agge::pixel24_rgb, agge::raw_bitmap>, agge::nanovg_image_blender<agge::pixel24_rgb, agge::bitmap<agge::pixel24_rgb, agge::raw_bitmap> > >&, agge::raw_memory_object&, unsigned int)
                0x0000000000034c90                agge::scanline_adapter<agge::renderer::adapter<agge::bitmap<agge::pixel24_rgb, agge::raw_bitmap>, agge::nanovg_image_blender<agge::pixel24_rgb, agge::bitmap<agge::pixel24_rgb, agge::raw_bitmap> > > >::scanline_adapter(agge::renderer::adapter<agge::bitmap<agge::pixel24_rgb, agge::raw_bitmap>, agge::nanovg_image_blender<agge::pixel24_rgb, agge::bitmap<agge::pixel24_rgb, agge::raw_bitmap> > >&, agge::raw_memory_object&, unsigned int)
 *fill*         0x0000000000034d0b        0x1 
 .text._ZN4agge8renderer7adapterINS_6bitmapINS_11pixel24_rgbENS_10raw_bitmapEEENS_23blender_solid_color_rgbIS3_EEEC2ERS5_PKNS_4rectIiEERKS7_
                0x0000000000034d0c      0x11c /home/wh/.HoneyGUI-SDK/realgui/3rd/nanovg/agge/nanovg_agge.o
                0x0000000000034d0c                agge::renderer::adapter<agge::bitmap<agge::pixel24_rgb, agge::raw_bitmap>, agge::blender_solid_color_rgb<agge::pixel24_rgb> >::adapter(agge::bitmap<agge::pixel24_rgb, agge::raw_bitmap>&, agge::rect<int> const*, agge::blender_solid_color_rgb<agge::pixel24_rgb> const&)
                0x0000000000034d0c                agge::renderer::adapter<agge::bitmap<agge::pixel24_rgb, agge::raw_bitmap>, agge::blender_solid_color_rgb<agge::pixel24_rgb> >::adapter(agge::bitmap<agge::pixel24_rgb, agge::raw_bitmap>&, agge::rect<int> const*, agge::blender_solid_color_rgb<agge::pixel24_rgb> const&)
 .text._ZN4agge16scanline_adapterINS_8renderer7adapterINS_6bitmapINS_11pixel24_rgbENS_10raw_bitmapEEENS_23blender_solid_color_rgbIS4_EEEEEC2ERS9_RNS_17raw_memory_objectEj
                0x0000000000034e28       0x7b /home/wh/.HoneyGUI-SDK/realgui/3rd/nanovg/agge/nanovg_agge.o
                0x0000000000034e28                agge::scanline_adapter<agge::renderer::adapter<agge::bitmap<agge::pixel24_rgb, agge::raw_bitmap>, agge::blender_solid_color_rgb<agge::pixel24_rgb> > >::scanline_adapter(agge::renderer::adapter<agge::bitmap<agge::pixel24_rgb, agge::raw_bitmap>, agge::blender_solid_color_rgb<agge::pixel24_rgb> >&, agge::raw_memory_object&, unsigned int)
                0x0000000000034e28                agge::scanline_adapter<agge::renderer::adapter<agge::bitmap<agge::pixel24_rgb, agge::raw_bitmap>, agge::blender_solid_color_rgb<agge::pixel24_rgb> > >::scanline_adapter(agge::renderer::adapter<agge::bitmap<agge::pixel24_rgb, agge::raw_bitmap>, agge::blender_solid_color_rgb<agge::pixel24_rgb> >&, agge::raw_memory_object&, unsigned int)
 *fill*         0x0000000000034ea3        0x1 
 .text._ZN4agge8renderer7adapterINS_6bitmapINS_11pixel24_rgbENS_10raw_bitmapEEENS_23blender_linear_gradientIS3_EEEC2ERS5_PKNS_4rectIiEERKS7_
                0x0000000000034ea4      0x11c /home/wh/.HoneyGUI-SDK/realgui/3rd/nanovg/agge/nanovg_agge.o
                0x0000000000034ea4                agge::renderer::adapter<agge::bitmap<agge::pixel24_rgb, agge::raw_bitmap>, agge::blender_linear_gradient<agge::pixel24_rgb> >::adapter(agge::bitmap<agge::pixel24_rgb, agge::raw_bitmap>&, agge::rect<int> const*, agge::blender_linear_gradient<agge::pixel24_rgb> const&)
                0x0000000000034ea4                agge::renderer::adapter<agge::bitmap<agge::pixel24_rgb, agge::raw_bitmap>, agge::blender_linear_gradient<agge::pixel24_rgb> >::adapter(agge::bitmap<agge::pixel24_rgb, agge::raw_bitmap>&, agge::rect<int> const*, agge::blender_linear_gradient<agge::pixel24_rgb> const&)
 .text._ZN4agge16scanline_adapterINS_8renderer7adapterINS_6bitmapINS_11pixel24_rgbENS_10raw_bitmapEEENS_23blender_linear_gradientIS4_EEEEEC2ERS9_RNS_17raw_memory_objectEj
                0x0000000000034fc0       0x7b /home/wh/.HoneyGUI-SDK/realgui/3rd/nanovg/agge/nanovg_agge.o
                0x0000000000034fc0                agge::scanline_adapter<agge::renderer::adapter<agge::bitmap<agge::pixel24_rgb, agge::raw_bitmap>, agge::blender_linear_gradient<agge::pixel24_rgb> > >::scanline_adapter(agge::renderer::adapter<agge::bitmap<agge::pixel24_rgb, agge::raw_bitmap>, agge::blender_linear_gradient<agge::pixel24_rgb> >&, agge::raw_memory_object&, unsigned int)
                0x0000000000034fc0                agge::scanline_adapter<agge::renderer::adapter<agge::bitmap<agge::pixel24_rgb, agge::raw_bitmap>, agge::blender_linear_gradient<agge::pixel24_rgb> > >::scanline_adapter(agge::renderer::adapter<agge::bitmap<agge::pixel24_rgb, agge::raw_bitmap>, agge::blender_linear_gradient<agge::pixel24_rgb> >&, agge::raw_memory_object&, unsigned int)
 *fill*         0x000000000003503b        0x1 
 .text._ZN4agge8renderer7adapterINS_6bitmapINS_11pixel24_rgbENS_10raw_bitmapEEENS_23blender_radial_gradientIS3_EEEC2ERS5_PKNS_4rectIiEERKS7_
                0x000000000003503c      0x11c /home/wh/.HoneyGUI-SDK/realgui/3rd/nanovg/agge/nanovg_agge.o
                0x000000000003503c                agge::renderer::adapter<agge::bitmap<agge::pixel24_rgb, agge::raw_bitmap>, agge::blender_radial_gradient<agge::pixel24_rgb> >::adapter(agge::bitmap<agge::pixel24_rgb, agge::raw_bitmap>&, agge::rect<int> const*, agge::blender_radial_gradient<agge::pixel24_rgb> const&)
                0x000000000003503c                agge::renderer::adapter<agge::bitmap<agge::pixel24_rgb, agge::raw_bitmap>, agge::blender_radial_gradient<agge::pixel24_rgb> >::adapter(agge::bitmap<agge::pixel24_rgb, agge::raw_bitmap>&, agge::rect<int> const*, agge::blender_radial_gradient<agge::pixel24_rgb> const&)
 .text._ZN4agge16scanline_adapterINS_8renderer7adapterINS_6bitmapINS_11pixel24_rgbENS_10raw_bitmapEEENS_23blender_radial_gradientIS4_EEEEEC2ERS9_RNS_17raw_memory_objectEj
                0x0000000000035158       0x7b /home/wh/.HoneyGUI-SDK/realgui/3rd/nanovg/agge/nanovg_agge.o
                0x0000000000035158                agge::scanline_adapter<agge::renderer::adapter<agge::bitmap<agge::pixel24_rgb, agge::raw_bitmap>, agge::blender_radial_gradient<agge::pixel24_rgb> > >::scanline_adapter(agge::renderer::adapter<agge::bitmap<agge::pixel24_rgb, agge::raw_bitmap>, agge::blender_radial_gradient<agge::pixel24_rgb> >&, agge::raw_memory_object&, unsigned int)
                0x0000000000035158                agge::scanline_adapter<agge::renderer::adapter<agge::bitmap<agge::pixel24_rgb, agge::raw_bitmap>, agge::blender_radial_gradient<agge::pixel24_rgb> > >::scanline_adapter(agge::renderer::adapter<agge::bitmap<agge::pixel24_rgb, agge::raw_bitmap>, agge::blender_radial_gradient<agge::pixel24_rgb> >&, agge::raw_memory_object&, unsigned int)
 *fill*         0x00000000000351d3        0x1 
 .text._ZN4agge8renderer7adapterINS_6bitmapINS_11pixel24_bgrENS_10raw_bitmapEEENS_20nanovg_image_blenderIS3_NS2_INS_12pixel32_rgbaES4_EEEEEC2ERS5_PKNS_4rectIiEERKS9_
                0x00000000000351d4      0x11c /home/wh/.HoneyGUI-SDK/realgui/3rd/nanovg/agge/nanovg_agge.o
                0x00000000000351d4                agge::renderer::adapter<agge::bitmap<agge::pixel24_bgr, agge::raw_bitmap>, agge::nanovg_image_blender<agge::pixel24_bgr, agge::bitmap<agge::pixel32_rgba, agge::raw_bitmap> > >::adapter(agge::bitmap<agge::pixel24_bgr, agge::raw_bitmap>&, agge::rect<int> const*, agge::nanovg_image_blender<agge::pixel24_bgr, agge::bitmap<agge::pixel32_rgba, agge::raw_bitmap> > const&)
                0x00000000000351d4                agge::renderer::adapter<agge::bitmap<agge::pixel24_bgr, agge::raw_bitmap>, agge::nanovg_image_blender<agge::pixel24_bgr, agge::bitmap<agge::pixel32_rgba, agge::raw_bitmap> > >::adapter(agge::bitmap<agge::pixel24_bgr, agge::raw_bitmap>&, agge::rect<int> const*, agge::nanovg_image_blender<agge::pixel24_bgr, agge::bitmap<agge::pixel32_rgba, agge::raw_bitmap> > const&)
 .text._ZN4agge16scanline_adapterINS_8renderer7adapterINS_6bitmapINS_11pixel24_bgrENS_10raw_bitmapEEENS_20nanovg_image_blenderIS4_NS3_INS_12pixel32_rgbaES5_EEEEEEEC2ERSB_RNS_17raw_memory_objectEj
                0x00000000000352f0       0x7b /home/wh/.HoneyGUI-SDK/realgui/3rd/nanovg/agge/nanovg_agge.o
                0x00000000000352f0                agge::scanline_adapter<agge::renderer::adapter<agge::bitmap<agge::pixel24_bgr, agge::raw_bitmap>, agge::nanovg_image_blender<agge::pixel24_bgr, agge::bitmap<agge::pixel32_rgba, agge::raw_bitmap> > > >::scanline_adapter(agge::renderer::adapter<agge::bitmap<agge::pixel24_bgr, agge::raw_bitmap>, agge::nanovg_image_blender<agge::pixel24_bgr, agge::bitmap<agge::pixel32_rgba, agge::raw_bitmap> > >&, agge::raw_memory_object&, unsigned int)
                0x00000000000352f0                agge::scanline_adapter<agge::renderer::adapter<agge::bitmap<agge::pixel24_bgr, agge::raw_bitmap>, agge::nanovg_image_blender<agge::pixel24_bgr, agge::bitmap<agge::pixel32_rgba, agge::raw_bitmap> > > >::scanline_adapter(agge::renderer::adapter<agge::bitmap<agge::pixel24_bgr, agge::raw_bitmap>, agge::nanovg_image_blender<agge::pixel24_bgr, agge::bitmap<agge::pixel32_rgba, agge::raw_bitmap> > >&, agge::raw_memory_object&, unsigned int)
 *fill*         0x000000000003536b        0x1 
 .text._ZN4agge8renderer7adapterINS_6bitmapINS_11pixel24_bgrENS_10raw_bitmapEEENS_20nanovg_image_blenderIS3_NS2_INS_12pixel32_bgraES4_EEEEEC2ERS5_PKNS_4rectIiEERKS9_
                0x000000000003536c      0x11c /home/wh/.HoneyGUI-SDK/realgui/3rd/nanovg/agge/nanovg_agge.o
                0x000000000003536c                agge::renderer::adapter<agge::bitmap<agge::pixel24_bgr, agge::raw_bitmap>, agge::nanovg_image_blender<agge::pixel24_bgr, agge::bitmap<agge::pixel32_bgra, agge::raw_bitmap> > >::adapter(agge::bitmap<agge::pixel24_bgr, agge::raw_bitmap>&, agge::rect<int> const*, agge::nanovg_image_blender<agge::pixel24_bgr, agge::bitmap<agge::pixel32_bgra, agge::raw_bitmap> > const&)
                0x000000000003536c                agge::renderer::adapter<agge::bitmap<agge::pixel24_bgr, agge::raw_bitmap>, agge::nanovg_image_blender<agge::pixel24_bgr, agge::bitmap<agge::pixel32_bgra, agge::raw_bitmap> > >::adapter(agge::bitmap<agge::pixel24_bgr, agge::raw_bitmap>&, agge::rect<int> const*, agge::nanovg_image_blender<agge::pixel24_bgr, agge::bitmap<agge::pixel32_bgra, agge::raw_bitmap> > const&)
 .text._ZN4agge16scanline_adapterINS_8renderer7adapterINS_6bitmapINS_11pixel24_bgrENS_10raw_bitmapEEENS_20nanovg_image_blenderIS4_NS3_INS_12pixel32_bgraES5_EEEEEEEC2ERSB_RNS_17raw_memory_objectEj
                0x0000000000035488       0x7b /home/wh/.HoneyGUI-SDK/realgui/3rd/nanovg/agge/nanovg_agge.o
                0x0000000000035488                agge::scanline_adapter<agge::renderer::adapter<agge::bitmap<agge::pixel24_bgr, agge::raw_bitmap>, agge::nanovg_image_blender<agge::pixel24_bgr, agge::bitmap<agge::pixel32_bgra, agge::raw_bitmap> > > >::scanline_adapter(agge::renderer::adapter<agge::bitmap<agge::pixel24_bgr, agge::raw_bitmap>, agge::nanovg_image_blender<agge::pixel24_bgr, agge::bitmap<agge::pixel32_bgra, agge::raw_bitmap> > >&, agge::raw_memory_object&, unsigned int)
                0x0000000000035488                agge::scanline_adapter<agge::renderer::adapter<agge::bitmap<agge::pixel24_bgr, agge::raw_bitmap>, agge::nanovg_image_blender<agge::pixel24_bgr, agge::bitmap<agge::pixel32_bgra, agge::raw_bitmap> > > >::scanline_adapter(agge::renderer::adapter<agge::bitmap<agge::pixel24_bgr, agge::raw_bitmap>, agge::nanovg_image_blender<agge::pixel24_bgr, agge::bitmap<agge::pixel32_bgra, agge::raw_bitmap> > >&, agge::raw_memory_object&, unsigned int)
 *fill*         0x0000000000035503        0x1 
 .text._ZN4agge8renderer7adapterINS_6bitmapINS_11pixel24_bgrENS_10raw_bitmapEEENS_20nanovg_image_blenderIS3_NS2_INS_14pixel16_bgr565ES4_EEEEEC2ERS5_PKNS_4rectIiEERKS9_
                0x0000000000035504      0x11c /home/wh/.HoneyGUI-SDK/realgui/3rd/nanovg/agge/nanovg_agge.o
                0x0000000000035504                agge::renderer::adapter<agge::bitmap<agge::pixel24_bgr, agge::raw_bitmap>, agge::nanovg_image_blender<agge::pixel24_bgr, agge::bitmap<agge::pixel16_bgr565, agge::raw_bitmap> > >::adapter(agge::bitmap<agge::pixel24_bgr, agge::raw_bitmap>&, agge::rect<int> const*, agge::nanovg_image_blender<agge::pixel24_bgr, agge::bitmap<agge::pixel16_bgr565, agge::raw_bitmap> > const&)
                0x0000000000035504                agge::renderer::adapter<agge::bitmap<agge::pixel24_bgr, agge::raw_bitmap>, agge::nanovg_image_blender<agge::pixel24_bgr, agge::bitmap<agge::pixel16_bgr565, agge::raw_bitmap> > >::adapter(agge::bitmap<agge::pixel24_bgr, agge::raw_bitmap>&, agge::rect<int> const*, agge::nanovg_image_blender<agge::pixel24_bgr, agge::bitmap<agge::pixel16_bgr565, agge::raw_bitmap> > const&)
 .text._ZN4agge16scanline_adapterINS_8renderer7adapterINS_6bitmapINS_11pixel24_bgrENS_10raw_bitmapEEENS_20nanovg_image_blenderIS4_NS3_INS_14pixel16_bgr565ES5_EEEEEEEC2ERSB_RNS_17raw_memory_objectEj
                0x0000000000035620       0x7b /home/wh/.HoneyGUI-SDK/realgui/3rd/nanovg/agge/nanovg_agge.o
                0x0000000000035620                agge::scanline_adapter<agge::renderer::adapter<agge::bitmap<agge::pixel24_bgr, agge::raw_bitmap>, agge::nanovg_image_blender<agge::pixel24_bgr, agge::bitmap<agge::pixel16_bgr565, agge::raw_bitmap> > > >::scanline_adapter(agge::renderer::adapter<agge::bitmap<agge::pixel24_bgr, agge::raw_bitmap>, agge::nanovg_image_blender<agge::pixel24_bgr, agge::bitmap<agge::pixel16_bgr565, agge::raw_bitmap> > >&, agge::raw_memory_object&, unsigned int)
                0x0000000000035620                agge::scanline_adapter<agge::renderer::adapter<agge::bitmap<agge::pixel24_bgr, agge::raw_bitmap>, agge::nanovg_image_blender<agge::pixel24_bgr, agge::bitmap<agge::pixel16_bgr565, agge::raw_bitmap> > > >::scanline_adapter(agge::renderer::adapter<agge::bitmap<agge::pixel24_bgr, agge::raw_bitmap>, agge::nanovg_image_blender<agge::pixel24_bgr, agge::bitmap<agge::pixel16_bgr565, agge::raw_bitmap> > >&, agge::raw_memory_object&, unsigned int)
 *fill*         0x000000000003569b        0x1 
 .text._ZN4agge8renderer7adapterINS_6bitmapINS_11pixel24_bgrENS_10raw_bitmapEEENS_20nanovg_image_blenderIS3_NS2_INS_11pixel24_rgbES4_EEEEEC2ERS5_PKNS_4rectIiEERKS9_
                0x000000000003569c      0x11c /home/wh/.HoneyGUI-SDK/realgui/3rd/nanovg/agge/nanovg_agge.o
                0x000000000003569c                agge::renderer::adapter<agge::bitmap<agge::pixel24_bgr, agge::raw_bitmap>, agge::nanovg_image_blender<agge::pixel24_bgr, agge::bitmap<agge::pixel24_rgb, agge::raw_bitmap> > >::adapter(agge::bitmap<agge::pixel24_bgr, agge::raw_bitmap>&, agge::rect<int> const*, agge::nanovg_image_blender<agge::pixel24_bgr, agge::bitmap<agge::pixel24_rgb, agge::raw_bitmap> > const&)
                0x000000000003569c                agge::renderer::adapter<agge::bitmap<agge::pixel24_bgr, agge::raw_bitmap>, agge::nanovg_image_blender<agge::pixel24_bgr, agge::bitmap<agge::pixel24_rgb, agge::raw_bitmap> > >::adapter(agge::bitmap<agge::pixel24_bgr, agge::raw_bitmap>&, agge::rect<int> const*, agge::nanovg_image_blender<agge::pixel24_bgr, agge::bitmap<agge::pixel24_rgb, agge::raw_bitmap> > const&)
 .text._ZN4agge16scanline_adapterINS_8renderer7adapterINS_6bitmapINS_11pixel24_bgrENS_10raw_bitmapEEENS_20nanovg_image_blenderIS4_NS3_INS_11pixel24_rgbES5_EEEEEEEC2ERSB_RNS_17raw_memory_objectEj
                0x00000000000357b8       0x7b /home/wh/.HoneyGUI-SDK/realgui/3rd/nanovg/agge/nanovg_agge.o
                0x00000000000357b8                agge::scanline_adapter<agge::renderer::adapter<agge::bitmap<agge::pixel24_bgr, agge::raw_bitmap>, agge::nanovg_image_blender<agge::pixel24_bgr, agge::bitmap<agge::pixel24_rgb, agge::raw_bitmap> > > >::scanline_adapter(agge::renderer::adapter<agge::bitmap<agge::pixel24_bgr, agge::raw_bitmap>, agge::nanovg_image_blender<agge::pixel24_bgr, agge::bitmap<agge::pixel24_rgb, agge::raw_bitmap> > >&, agge::raw_memory_object&, unsigned int)
                0x00000000000357b8                agge::scanline_adapter<agge::renderer::adapter<agge::bitmap<agge::pixel24_bgr, agge::raw_bitmap>, agge::nanovg_image_blender<agge::pixel24_bgr, agge::bitmap<agge::pixel24_rgb, agge::raw_bitmap> > > >::scanline_adapter(agge::renderer::adapter<agge::bitmap<agge::pixel24_bgr, agge::raw_bitmap>, agge::nanovg_image_blender<agge::pixel24_bgr, agge::bitmap<agge::pixel24_rgb, agge::raw_bitmap> > >&, agge::raw_memory_object&, unsigned int)
 *fill*         0x0000000000035833        0x1 
 .text._ZN4agge8renderer7adapterINS_6bitmapINS_11pixel24_bgrENS_10raw_bitmapEEENS_23blender_solid_color_rgbIS3_EEEC2ERS5_PKNS_4rectIiEERKS7_
                0x0000000000035834      0x11c /home/wh/.HoneyGUI-SDK/realgui/3rd/nanovg/agge/nanovg_agge.o
                0x0000000000035834                agge::renderer::adapter<agge::bitmap<agge::pixel24_bgr, agge::raw_bitmap>, agge::blender_solid_color_rgb<agge::pixel24_bgr> >::adapter(agge::bitmap<agge::pixel24_bgr, agge::raw_bitmap>&, agge::rect<int> const*, agge::blender_solid_color_rgb<agge::pixel24_bgr> const&)
                0x0000000000035834                agge::renderer::adapter<agge::bitmap<agge::pixel24_bgr, agge::raw_bitmap>, agge::blender_solid_color_rgb<agge::pixel24_bgr> >::adapter(agge::bitmap<agge::pixel24_bgr, agge::raw_bitmap>&, agge::rect<int> const*, agge::blender_solid_color_rgb<agge::pixel24_bgr> const&)
 .text._ZN4agge16scanline_adapterINS_8renderer7adapterINS_6bitmapINS_11pixel24_bgrENS_10raw_bitmapEEENS_23blender_solid_color_rgbIS4_EEEEEC2ERS9_RNS_17raw_memory_objectEj
                0x0000000000035950       0x7b /home/wh/.HoneyGUI-SDK/realgui/3rd/nanovg/agge/nanovg_agge.o
                0x0000000000035950                agge::scanline_adapter<agge::renderer::adapter<agge::bitmap<agge::pixel24_bgr, agge::raw_bitmap>, agge::blender_solid_color_rgb<agge::pixel24_bgr> > >::scanline_adapter(agge::renderer::adapter<agge::bitmap<agge::pixel24_bgr, agge::raw_bitmap>, agge::blender_solid_color_rgb<agge::pixel24_bgr> >&, agge::raw_memory_object&, unsigned int)
                0x0000000000035950                agge::scanline_adapter<agge::renderer::adapter<agge::bitmap<agge::pixel24_bgr, agge::raw_bitmap>, agge::blender_solid_color_rgb<agge::pixel24_bgr> > >::scanline_adapter(agge::renderer::adapter<agge::bitmap<agge::pixel24_bgr, agge::raw_bitmap>, agge::blender_solid_color_rgb<agge::pixel24_bgr> >&, agge::raw_memory_object&, unsigned int)
 *fill*         0x00000000000359cb        0x1 
 .text._ZN4agge8renderer7adapterINS_6bitmapINS_11pixel24_bgrENS_10raw_bitmapEEENS_23blender_linear_gradientIS3_EEEC2ERS5_PKNS_4rectIiEERKS7_
                0x00000000000359cc      0x11c /home/wh/.HoneyGUI-SDK/realgui/3rd/nanovg/agge/nanovg_agge.o
                0x00000000000359cc                agge::renderer::adapter<agge::bitmap<agge::pixel24_bgr, agge::raw_bitmap>, agge::blender_linear_gradient<agge::pixel24_bgr> >::adapter(agge::bitmap<agge::pixel24_bgr, agge::raw_bitmap>&, agge::rect<int> const*, agge::blender_linear_gradient<agge::pixel24_bgr> const&)
                0x00000000000359cc                agge::renderer::adapter<agge::bitmap<agge::pixel24_bgr, agge::raw_bitmap>, agge::blender_linear_gradient<agge::pixel24_bgr> >::adapter(agge::bitmap<agge::pixel24_bgr, agge::raw_bitmap>&, agge::rect<int> const*, agge::blender_linear_gradient<agge::pixel24_bgr> const&)
 .text._ZN4agge16scanline_adapterINS_8renderer7adapterINS_6bitmapINS_11pixel24_bgrENS_10raw_bitmapEEENS_23blender_linear_gradientIS4_EEEEEC2ERS9_RNS_17raw_memory_objectEj
                0x0000000000035ae8       0x7b /home/wh/.HoneyGUI-SDK/realgui/3rd/nanovg/agge/nanovg_agge.o
                0x0000000000035ae8                agge::scanline_adapter<agge::renderer::adapter<agge::bitmap<agge::pixel24_bgr, agge::raw_bitmap>, agge::blender_linear_gradient<agge::pixel24_bgr> > >::scanline_adapter(agge::renderer::adapter<agge::bitmap<agge::pixel24_bgr, agge::raw_bitmap>, agge::blender_linear_gradient<agge::pixel24_bgr> >&, agge::raw_memory_object&, unsigned int)
                0x0000000000035ae8                agge::scanline_adapter<agge::renderer::adapter<agge::bitmap<agge::pixel24_bgr, agge::raw_bitmap>, agge::blender_linear_gradient<agge::pixel24_bgr> > >::scanline_adapter(agge::renderer::adapter<agge::bitmap<agge::pixel24_bgr, agge::raw_bitmap>, agge::blender_linear_gradient<agge::pixel24_bgr> >&, agge::raw_memory_object&, unsigned int)
 *fill*         0x0000000000035b63        0x1 
 .text._ZN4agge8renderer7adapterINS_6bitmapINS_11pixel24_bgrENS_10raw_bitmapEEENS_23blender_radial_gradientIS3_EEEC2ERS5_PKNS_4rectIiEERKS7_
                0x0000000000035b64      0x11c /home/wh/.HoneyGUI-SDK/realgui/3rd/nanovg/agge/nanovg_agge.o
                0x0000000000035b64                agge::renderer::adapter<agge::bitmap<agge::pixel24_bgr, agge::raw_bitmap>, agge::blender_radial_gradient<agge::pixel24_bgr> >::adapter(agge::bitmap<agge::pixel24_bgr, agge::raw_bitmap>&, agge::rect<int> const*, agge::blender_radial_gradient<agge::pixel24_bgr> const&)
                0x0000000000035b64                agge::renderer::adapter<agge::bitmap<agge::pixel24_bgr, agge::raw_bitmap>, agge::blender_radial_gradient<agge::pixel24_bgr> >::adapter(agge::bitmap<agge::pixel24_bgr, agge::raw_bitmap>&, agge::rect<int> const*, agge::blender_radial_gradient<agge::pixel24_bgr> const&)
 .text._ZN4agge16scanline_adapterINS_8renderer7adapterINS_6bitmapINS_11pixel24_bgrENS_10raw_bitmapEEENS_23blender_radial_gradientIS4_EEEEEC2ERS9_RNS_17raw_memory_objectEj
                0x0000000000035c80       0x7b /home/wh/.HoneyGUI-SDK/realgui/3rd/nanovg/agge/nanovg_agge.o
                0x0000000000035c80                agge::scanline_adapter<agge::renderer::adapter<agge::bitmap<agge::pixel24_bgr, agge::raw_bitmap>, agge::blender_radial_gradient<agge::pixel24_bgr> > >::scanline_adapter(agge::renderer::adapter<agge::bitmap<agge::pixel24_bgr, agge::raw_bitmap>, agge::blender_radial_gradient<agge::pixel24_bgr> >&, agge::raw_memory_object&, unsigned int)
                0x0000000000035c80                agge::scanline_adapter<agge::renderer::adapter<agge::bitmap<agge::pixel24_bgr, agge::raw_bitmap>, agge::blender_radial_gradient<agge::pixel24_bgr> > >::scanline_adapter(agge::renderer::adapter<agge::bitmap<agge::pixel24_bgr, agge::raw_bitmap>, agge::blender_radial_gradient<agge::pixel24_bgr> >&, agge::raw_memory_object&, unsigned int)
 *fill*         0x0000000000035cfb        0x1 
 .text._ZN4agge8renderer7adapterINS_6bitmapINS_14pixel16_bgr565ENS_10raw_bitmapEEENS_20nanovg_image_blenderIS3_NS2_INS_12pixel32_rgbaES4_EEEEEC2ERS5_PKNS_4rectIiEERKS9_
                0x0000000000035cfc      0x11c /home/wh/.HoneyGUI-SDK/realgui/3rd/nanovg/agge/nanovg_agge.o
                0x0000000000035cfc                agge::renderer::adapter<agge::bitmap<agge::pixel16_bgr565, agge::raw_bitmap>, agge::nanovg_image_blender<agge::pixel16_bgr565, agge::bitmap<agge::pixel32_rgba, agge::raw_bitmap> > >::adapter(agge::bitmap<agge::pixel16_bgr565, agge::raw_bitmap>&, agge::rect<int> const*, agge::nanovg_image_blender<agge::pixel16_bgr565, agge::bitmap<agge::pixel32_rgba, agge::raw_bitmap> > const&)
                0x0000000000035cfc                agge::renderer::adapter<agge::bitmap<agge::pixel16_bgr565, agge::raw_bitmap>, agge::nanovg_image_blender<agge::pixel16_bgr565, agge::bitmap<agge::pixel32_rgba, agge::raw_bitmap> > >::adapter(agge::bitmap<agge::pixel16_bgr565, agge::raw_bitmap>&, agge::rect<int> const*, agge::nanovg_image_blender<agge::pixel16_bgr565, agge::bitmap<agge::pixel32_rgba, agge::raw_bitmap> > const&)
 .text._ZN4agge16scanline_adapterINS_8renderer7adapterINS_6bitmapINS_14pixel16_bgr565ENS_10raw_bitmapEEENS_20nanovg_image_blenderIS4_NS3_INS_12pixel32_rgbaES5_EEEEEEEC2ERSB_RNS_17raw_memory_objectEj
                0x0000000000035e18       0x7b /home/wh/.HoneyGUI-SDK/realgui/3rd/nanovg/agge/nanovg_agge.o
                0x0000000000035e18                agge::scanline_adapter<agge::renderer::adapter<agge::bitmap<agge::pixel16_bgr565, agge::raw_bitmap>, agge::nanovg_image_blender<agge::pixel16_bgr565, agge::bitmap<agge::pixel32_rgba, agge::raw_bitmap> > > >::scanline_adapter(agge::renderer::adapter<agge::bitmap<agge::pixel16_bgr565, agge::raw_bitmap>, agge::nanovg_image_blender<agge::pixel16_bgr565, agge::bitmap<agge::pixel32_rgba, agge::raw_bitmap> > >&, agge::raw_memory_object&, unsigned int)
                0x0000000000035e18                agge::scanline_adapter<agge::renderer::adapter<agge::bitmap<agge::pixel16_bgr565, agge::raw_bitmap>, agge::nanovg_image_blender<agge::pixel16_bgr565, agge::bitmap<agge::pixel32_rgba, agge::raw_bitmap> > > >::scanline_adapter(agge::renderer::adapter<agge::bitmap<agge::pixel16_bgr565, agge::raw_bitmap>, agge::nanovg_image_blender<agge::pixel16_bgr565, agge::bitmap<agge::pixel32_rgba, agge::raw_bitmap> > >&, agge::raw_memory_object&, unsigned int)
 *fill*         0x0000000000035e93        0x1 
 .text._ZN4agge8renderer7adapterINS_6bitmapINS_14pixel16_bgr565ENS_10raw_bitmapEEENS_20nanovg_image_blenderIS3_NS2_INS_12pixel32_bgraES4_EEEEEC2ERS5_PKNS_4rectIiEERKS9_
                0x0000000000035e94      0x11c /home/wh/.HoneyGUI-SDK/realgui/3rd/nanovg/agge/nanovg_agge.o
                0x0000000000035e94                agge::renderer::adapter<agge::bitmap<agge::pixel16_bgr565, agge::raw_bitmap>, agge::nanovg_image_blender<agge::pixel16_bgr565, agge::bitmap<agge::pixel32_bgra, agge::raw_bitmap> > >::adapter(agge::bitmap<agge::pixel16_bgr565, agge::raw_bitmap>&, agge::rect<int> const*, agge::nanovg_image_blender<agge::pixel16_bgr565, agge::bitmap<agge::pixel32_bgra, agge::raw_bitmap> > const&)
                0x0000000000035e94                agge::renderer::adapter<agge::bitmap<agge::pixel16_bgr565, agge::raw_bitmap>, agge::nanovg_image_blender<agge::pixel16_bgr565, agge::bitmap<agge::pixel32_bgra, agge::raw_bitmap> > >::adapter(agge::bitmap<agge::pixel16_bgr565, agge::raw_bitmap>&, agge::rect<int> const*, agge::nanovg_image_blender<agge::pixel16_bgr565, agge::bitmap<agge::pixel32_bgra, agge::raw_bitmap> > const&)
 .text._ZN4agge16scanline_adapterINS_8renderer7adapterINS_6bitmapINS_14pixel16_bgr565ENS_10raw_bitmapEEENS_20nanovg_image_blenderIS4_NS3_INS_12pixel32_bgraES5_EEEEEEEC2ERSB_RNS_17raw_memory_objectEj
                0x0000000000035fb0       0x7b /home/wh/.HoneyGUI-SDK/realgui/3rd/nanovg/agge/nanovg_agge.o
                0x0000000000035fb0                agge::scanline_adapter<agge::renderer::adapter<agge::bitmap<agge::pixel16_bgr565, agge::raw_bitmap>, agge::nanovg_image_blender<agge::pixel16_bgr565, agge::bitmap<agge::pixel32_bgra, agge::raw_bitmap> > > >::scanline_adapter(agge::renderer::adapter<agge::bitmap<agge::pixel16_bgr565, agge::raw_bitmap>, agge::nanovg_image_blender<agge::pixel16_bgr565, agge::bitmap<agge::pixel32_bgra, agge::raw_bitmap> > >&, agge::raw_memory_object&, unsigned int)
                0x0000000000035fb0                agge::scanline_adapter<agge::renderer::adapter<agge::bitmap<agge::pixel16_bgr565, agge::raw_bitmap>, agge::nanovg_image_blender<agge::pixel16_bgr565, agge::bitmap<agge::pixel32_bgra, agge::raw_bitmap> > > >::scanline_adapter(agge::renderer::adapter<agge::bitmap<agge::pixel16_bgr565, agge::raw_bitmap>, agge::nanovg_image_blender<agge::pixel16_bgr565, agge::bitmap<agge::pixel32_bgra, agge::raw_bitmap> > >&, agge::raw_memory_object&, unsigned int)
 *fill*         0x000000000003602b        0x1 
 .text._ZN4agge8renderer7adapterINS_6bitmapINS_14pixel16_bgr565ENS_10raw_bitmapEEENS_20nanovg_image_blenderIS3_S5_EEEC2ERS5_PKNS_4rectIiEERKS7_
                0x000000000003602c      0x11c /home/wh/.HoneyGUI-SDK/realgui/3rd/nanovg/agge/nanovg_agge.o
                0x000000000003602c                agge::renderer::adapter<agge::bitmap<agge::pixel16_bgr565, agge::raw_bitmap>, agge::nanovg_image_blender<agge::pixel16_bgr565, agge::bitmap<agge::pixel16_bgr565, agge::raw_bitmap> > >::adapter(agge::bitmap<agge::pixel16_bgr565, agge::raw_bitmap>&, agge::rect<int> const*, agge::nanovg_image_blender<agge::pixel16_bgr565, agge::bitmap<agge::pixel16_bgr565, agge::raw_bitmap> > const&)
                0x000000000003602c                agge::renderer::adapter<agge::bitmap<agge::pixel16_bgr565, agge::raw_bitmap>, agge::nanovg_image_blender<agge::pixel16_bgr565, agge::bitmap<agge::pixel16_bgr565, agge::raw_bitmap> > >::adapter(agge::bitmap<agge::pixel16_bgr565, agge::raw_bitmap>&, agge::rect<int> const*, agge::nanovg_image_blender<agge::pixel16_bgr565, agge::bitmap<agge::pixel16_bgr565, agge::raw_bitmap> > const&)
 .text._ZN4agge16scanline_adapterINS_8renderer7adapterINS_6bitmapINS_14pixel16_bgr565ENS_10raw_bitmapEEENS_20nanovg_image_blenderIS4_S6_EEEEEC2ERS9_RNS_17raw_memory_objectEj
                0x0000000000036148       0x7b /home/wh/.HoneyGUI-SDK/realgui/3rd/nanovg/agge/nanovg_agge.o
                0x0000000000036148                agge::scanline_adapter<agge::renderer::adapter<agge::bitmap<agge::pixel16_bgr565, agge::raw_bitmap>, agge::nanovg_image_blender<agge::pixel16_bgr565, agge::bitmap<agge::pixel16_bgr565, agge::raw_bitmap> > > >::scanline_adapter(agge::renderer::adapter<agge::bitmap<agge::pixel16_bgr565, agge::raw_bitmap>, agge::nanovg_image_blender<agge::pixel16_bgr565, agge::bitmap<agge::pixel16_bgr565, agge::raw_bitmap> > >&, agge::raw_memory_object&, unsigned int)
                0x0000000000036148                agge::scanline_adapter<agge::renderer::adapter<agge::bitmap<agge::pixel16_bgr565, agge::raw_bitmap>, agge::nanovg_image_blender<agge::pixel16_bgr565, agge::bitmap<agge::pixel16_bgr565, agge::raw_bitmap> > > >::scanline_adapter(agge::renderer::adapter<agge::bitmap<agge::pixel16_bgr565, agge::raw_bitmap>, agge::nanovg_image_blender<agge::pixel16_bgr565, agge::bitmap<agge::pixel16_bgr565, agge::raw_bitmap> > >&, agge::raw_memory_object&, unsigned int)
 *fill*         0x00000000000361c3        0x1 
 .text._ZN4agge8renderer7adapterINS_6bitmapINS_14pixel16_bgr565ENS_10raw_bitmapEEENS_20nanovg_image_blenderIS3_NS2_INS_11pixel24_rgbES4_EEEEEC2ERS5_PKNS_4rectIiEERKS9_
                0x00000000000361c4      0x11c /home/wh/.HoneyGUI-SDK/realgui/3rd/nanovg/agge/nanovg_agge.o
                0x00000000000361c4                agge::renderer::adapter<agge::bitmap<agge::pixel16_bgr565, agge::raw_bitmap>, agge::nanovg_image_blender<agge::pixel16_bgr565, agge::bitmap<agge::pixel24_rgb, agge::raw_bitmap> > >::adapter(agge::bitmap<agge::pixel16_bgr565, agge::raw_bitmap>&, agge::rect<int> const*, agge::nanovg_image_blender<agge::pixel16_bgr565, agge::bitmap<agge::pixel24_rgb, agge::raw_bitmap> > const&)
                0x00000000000361c4                agge::renderer::adapter<agge::bitmap<agge::pixel16_bgr565, agge::raw_bitmap>, agge::nanovg_image_blender<agge::pixel16_bgr565, agge::bitmap<agge::pixel24_rgb, agge::raw_bitmap> > >::adapter(agge::bitmap<agge::pixel16_bgr565, agge::raw_bitmap>&, agge::rect<int> const*, agge::nanovg_image_blender<agge::pixel16_bgr565, agge::bitmap<agge::pixel24_rgb, agge::raw_bitmap> > const&)
 .text._ZN4agge16scanline_adapterINS_8renderer7adapterINS_6bitmapINS_14pixel16_bgr565ENS_10raw_bitmapEEENS_20nanovg_image_blenderIS4_NS3_INS_11pixel24_rgbES5_EEEEEEEC2ERSB_RNS_17raw_memory_objectEj
                0x00000000000362e0       0x7b /home/wh/.HoneyGUI-SDK/realgui/3rd/nanovg/agge/nanovg_agge.o
                0x00000000000362e0                agge::scanline_adapter<agge::renderer::adapter<agge::bitmap<agge::pixel16_bgr565, agge::raw_bitmap>, agge::nanovg_image_blender<agge::pixel16_bgr565, agge::bitmap<agge::pixel24_rgb, agge::raw_bitmap> > > >::scanline_adapter(agge::renderer::adapter<agge::bitmap<agge::pixel16_bgr565, agge::raw_bitmap>, agge::nanovg_image_blender<agge::pixel16_bgr565, agge::bitmap<agge::pixel24_rgb, agge::raw_bitmap> > >&, agge::raw_memory_object&, unsigned int)
                0x00000000000362e0                agge::scanline_adapter<agge::renderer::adapter<agge::bitmap<agge::pixel16_bgr565, agge::raw_bitmap>, agge::nanovg_image_blender<agge::pixel16_bgr565, agge::bitmap<agge::pixel24_rgb, agge::raw_bitmap> > > >::scanline_adapter(agge::renderer::adapter<agge::bitmap<agge::pixel16_bgr565, agge::raw_bitmap>, agge::nanovg_image_blender<agge::pixel16_bgr565, agge::bitmap<agge::pixel24_rgb, agge::raw_bitmap> > >&, agge::raw_memory_object&, unsigned int)
 *fill*         0x000000000003635b        0x1 
 .text._ZN4agge8renderer7adapterINS_6bitmapINS_14pixel16_bgr565ENS_10raw_bitmapEEENS_23blender_solid_color_rgbIS3_EEEC2ERS5_PKNS_4rectIiEERKS7_
                0x000000000003635c      0x11c /home/wh/.HoneyGUI-SDK/realgui/3rd/nanovg/agge/nanovg_agge.o
                0x000000000003635c                agge::renderer::adapter<agge::bitmap<agge::pixel16_bgr565, agge::raw_bitmap>, agge::blender_solid_color_rgb<agge::pixel16_bgr565> >::adapter(agge::bitmap<agge::pixel16_bgr565, agge::raw_bitmap>&, agge::rect<int> const*, agge::blender_solid_color_rgb<agge::pixel16_bgr565> const&)
                0x000000000003635c                agge::renderer::adapter<agge::bitmap<agge::pixel16_bgr565, agge::raw_bitmap>, agge::blender_solid_color_rgb<agge::pixel16_bgr565> >::adapter(agge::bitmap<agge::pixel16_bgr565, agge::raw_bitmap>&, agge::rect<int> const*, agge::blender_solid_color_rgb<agge::pixel16_bgr565> const&)
 .text._ZN4agge16scanline_adapterINS_8renderer7adapterINS_6bitmapINS_14pixel16_bgr565ENS_10raw_bitmapEEENS_23blender_solid_color_rgbIS4_EEEEEC2ERS9_RNS_17raw_memory_objectEj
                0x0000000000036478       0x7b /home/wh/.HoneyGUI-SDK/realgui/3rd/nanovg/agge/nanovg_agge.o
                0x0000000000036478                agge::scanline_adapter<agge::renderer::adapter<agge::bitmap<agge::pixel16_bgr565, agge::raw_bitmap>, agge::blender_solid_color_rgb<agge::pixel16_bgr565> > >::scanline_adapter(agge::renderer::adapter<agge::bitmap<agge::pixel16_bgr565, agge::raw_bitmap>, agge::blender_solid_color_rgb<agge::pixel16_bgr565> >&, agge::raw_memory_object&, unsigned int)
                0x0000000000036478                agge::scanline_adapter<agge::renderer::adapter<agge::bitmap<agge::pixel16_bgr565, agge::raw_bitmap>, agge::blender_solid_color_rgb<agge::pixel16_bgr565> > >::scanline_adapter(agge::renderer::adapter<agge::bitmap<agge::pixel16_bgr565, agge::raw_bitmap>, agge::blender_solid_color_rgb<agge::pixel16_bgr565> >&, agge::raw_memory_object&, unsigned int)
 *fill*         0x00000000000364f3        0x1 
 .text._ZN4agge8renderer7adapterINS_6bitmapINS_14pixel16_bgr565ENS_10raw_bitmapEEENS_23blender_linear_gradientIS3_EEEC2ERS5_PKNS_4rectIiEERKS7_
                0x00000000000364f4      0x11c /home/wh/.HoneyGUI-SDK/realgui/3rd/nanovg/agge/nanovg_agge.o
                0x00000000000364f4                agge::renderer::adapter<agge::bitmap<agge::pixel16_bgr565, agge::raw_bitmap>, agge::blender_linear_gradient<agge::pixel16_bgr565> >::adapter(agge::bitmap<agge::pixel16_bgr565, agge::raw_bitmap>&, agge::rect<int> const*, agge::blender_linear_gradient<agge::pixel16_bgr565> const&)
                0x00000000000364f4                agge::renderer::adapter<agge::bitmap<agge::pixel16_bgr565, agge::raw_bitmap>, agge::blender_linear_gradient<agge::pixel16_bgr565> >::adapter(agge::bitmap<agge::pixel16_bgr565, agge::raw_bitmap>&, agge::rect<int> const*, agge::blender_linear_gradient<agge::pixel16_bgr565> const&)
 .text._ZN4agge16scanline_adapterINS_8renderer7adapterINS_6bitmapINS_14pixel16_bgr565ENS_10raw_bitmapEEENS_23blender_linear_gradientIS4_EEEEEC2ERS9_RNS_17raw_memory_objectEj
                0x0000000000036610       0x7b /home/wh/.HoneyGUI-SDK/realgui/3rd/nanovg/agge/nanovg_agge.o
                0x0000000000036610                agge::scanline_adapter<agge::renderer::adapter<agge::bitmap<agge::pixel16_bgr565, agge::raw_bitmap>, agge::blender_linear_gradient<agge::pixel16_bgr565> > >::scanline_adapter(agge::renderer::adapter<agge::bitmap<agge::pixel16_bgr565, agge::raw_bitmap>, agge::blender_linear_gradient<agge::pixel16_bgr565> >&, agge::raw_memory_object&, unsigned int)
                0x0000000000036610                agge::scanline_adapter<agge::renderer::adapter<agge::bitmap<agge::pixel16_bgr565, agge::raw_bitmap>, agge::blender_linear_gradient<agge::pixel16_bgr565> > >::scanline_adapter(agge::renderer::adapter<agge::bitmap<agge::pixel16_bgr565, agge::raw_bitmap>, agge::blender_linear_gradient<agge::pixel16_bgr565> >&, agge::raw_memory_object&, unsigned int)
 *fill*         0x000000000003668b        0x1 
 .text._ZN4agge8renderer7adapterINS_6bitmapINS_14pixel16_bgr565ENS_10raw_bitmapEEENS_23blender_radial_gradientIS3_EEEC2ERS5_PKNS_4rectIiEERKS7_
                0x000000000003668c      0x11c /home/wh/.HoneyGUI-SDK/realgui/3rd/nanovg/agge/nanovg_agge.o
                0x000000000003668c                agge::renderer::adapter<agge::bitmap<agge::pixel16_bgr565, agge::raw_bitmap>, agge::blender_radial_gradient<agge::pixel16_bgr565> >::adapter(agge::bitmap<agge::pixel16_bgr565, agge::raw_bitmap>&, agge::rect<int> const*, agge::blender_radial_gradient<agge::pixel16_bgr565> const&)
                0x000000000003668c                agge::renderer::adapter<agge::bitmap<agge::pixel16_bgr565, agge::raw_bitmap>, agge::blender_radial_gradient<agge::pixel16_bgr565> >::adapter(agge::bitmap<agge::pixel16_bgr565, agge::raw_bitmap>&, agge::rect<int> const*, agge::blender_radial_gradient<agge::pixel16_bgr565> const&)
 .text._ZN4agge16scanline_adapterINS_8renderer7adapterINS_6bitmapINS_14pixel16_bgr565ENS_10raw_bitmapEEENS_23blender_radial_gradientIS4_EEEEEC2ERS9_RNS_17raw_memory_objectEj
                0x00000000000367a8       0x7b /home/wh/.HoneyGUI-SDK/realgui/3rd/nanovg/agge/nanovg_agge.o
                0x00000000000367a8                agge::scanline_adapter<agge::renderer::adapter<agge::bitmap<agge::pixel16_bgr565, agge::raw_bitmap>, agge::blender_radial_gradient<agge::pixel16_bgr565> > >::scanline_adapter(agge::renderer::adapter<agge::bitmap<agge::pixel16_bgr565, agge::raw_bitmap>, agge::blender_radial_gradient<agge::pixel16_bgr565> >&, agge::raw_memory_object&, unsigned int)
                0x00000000000367a8                agge::scanline_adapter<agge::renderer::adapter<agge::bitmap<agge::pixel16_bgr565, agge::raw_bitmap>, agge::blender_radial_gradient<agge::pixel16_bgr565> > >::scanline_adapter(agge::renderer::adapter<agge::bitmap<agge::pixel16_bgr565, agge::raw_bitmap>, agge::blender_radial_gradient<agge::pixel16_bgr565> >&, agge::raw_memory_object&, unsigned int)
 .text._ZN4agge5widthIiEET_RKNS_4rectIS1_EE
                0x0000000000036823       0x1f /home/wh/.HoneyGUI-SDK/realgui/3rd/nanovg/agge/nanovg_agge.o
                0x0000000000036823                int agge::width<int>(agge::rect<int> const&)
 .text._ZN4agge6heightIiEET_RKNS_4rectIS1_EE
                0x0000000000036842       0x20 /home/wh/.HoneyGUI-SDK/realgui/3rd/nanovg/agge/nanovg_agge.o
                0x0000000000036842                int agge::height<int>(agge::rect<int> const&)
 .text._ZN4agge17raw_memory_object3getIhEEPT_j
                0x0000000000036862       0x7b /home/wh/.HoneyGUI-SDK/realgui/3rd/nanovg/agge/nanovg_agge.o
                0x0000000000036862                unsigned char* agge::raw_memory_object::get<unsigned char>(unsigned int)
 *fill*         0x00000000000368dd        0x1 
 .text._ZN4agge16scanline_adapterINS_8renderer7adapterINS_6bitmapINS_12pixel32_rgbaENS_10raw_bitmapEEENS_20nanovg_image_blenderIS4_S6_EEEEE5beginEi
                0x00000000000368de       0x29 /home/wh/.HoneyGUI-SDK/realgui/3rd/nanovg/agge/nanovg_agge.o
                0x00000000000368de                agge::scanline_adapter<agge::renderer::adapter<agge::bitmap<agge::pixel32_rgba, agge::raw_bitmap>, agge::nanovg_image_blender<agge::pixel32_rgba, agge::bitmap<agge::pixel32_rgba, agge::raw_bitmap> > > >::begin(int)
 *fill*         0x0000000000036907        0x1 
 .text._ZN4agge16scanline_adapterINS_8renderer7adapterINS_6bitmapINS_12pixel32_rgbaENS_10raw_bitmapEEENS_20nanovg_image_blenderIS4_NS3_INS_12pixel32_bgraES5_EEEEEEE5beginEi
                0x0000000000036908       0x29 /home/wh/.HoneyGUI-SDK/realgui/3rd/nanovg/agge/nanovg_agge.o
                0x0000000000036908                agge::scanline_adapter<agge::renderer::adapter<agge::bitmap<agge::pixel32_rgba, agge::raw_bitmap>, agge::nanovg_image_blender<agge::pixel32_rgba, agge::bitmap<agge::pixel32_bgra, agge::raw_bitmap> > > >::begin(int)
 *fill*         0x0000000000036931        0x1 
 .text._ZN4agge16scanline_adapterINS_8renderer7adapterINS_6bitmapINS_12pixel32_rgbaENS_10raw_bitmapEEENS_20nanovg_image_blenderIS4_NS3_INS_14pixel16_bgr565ES5_EEEEEEE5beginEi
                0x0000000000036932       0x29 /home/wh/.HoneyGUI-SDK/realgui/3rd/nanovg/agge/nanovg_agge.o
                0x0000000000036932                agge::scanline_adapter<agge::renderer::adapter<agge::bitmap<agge::pixel32_rgba, agge::raw_bitmap>, agge::nanovg_image_blender<agge::pixel32_rgba, agge::bitmap<agge::pixel16_bgr565, agge::raw_bitmap> > > >::begin(int)
 *fill*         0x000000000003695b        0x1 
 .text._ZN4agge16scanline_adapterINS_8renderer7adapterINS_6bitmapINS_12pixel32_rgbaENS_10raw_bitmapEEENS_20nanovg_image_blenderIS4_NS3_INS_11pixel24_rgbES5_EEEEEEE5beginEi
                0x000000000003695c       0x29 /home/wh/.HoneyGUI-SDK/realgui/3rd/nanovg/agge/nanovg_agge.o
                0x000000000003695c                agge::scanline_adapter<agge::renderer::adapter<agge::bitmap<agge::pixel32_rgba, agge::raw_bitmap>, agge::nanovg_image_blender<agge::pixel32_rgba, agge::bitmap<agge::pixel24_rgb, agge::raw_bitmap> > > >::begin(int)
 *fill*         0x0000000000036985        0x1 
 .text._ZN4agge16scanline_adapterINS_8renderer7adapterINS_6bitmapINS_12pixel32_rgbaENS_10raw_bitmapEEENS_23blender_solid_color_rgbIS4_EEEEE5beginEi
                0x0000000000036986       0x29 /home/wh/.HoneyGUI-SDK/realgui/3rd/nanovg/agge/nanovg_agge.o
                0x0000000000036986                agge::scanline_adapter<agge::renderer::adapter<agge::bitmap<agge::pixel32_rgba, agge::raw_bitmap>, agge::blender_solid_color_rgb<agge::pixel32_rgba> > >::begin(int)
 *fill*         0x00000000000369af        0x1 
 .text._ZN4agge16scanline_adapterINS_8renderer7adapterINS_6bitmapINS_12pixel32_rgbaENS_10raw_bitmapEEENS_23blender_linear_gradientIS4_EEEEE5beginEi
                0x00000000000369b0       0x29 /home/wh/.HoneyGUI-SDK/realgui/3rd/nanovg/agge/nanovg_agge.o
                0x00000000000369b0                agge::scanline_adapter<agge::renderer::adapter<agge::bitmap<agge::pixel32_rgba, agge::raw_bitmap>, agge::blender_linear_gradient<agge::pixel32_rgba> > >::begin(int)
 *fill*         0x00000000000369d9        0x1 
 .text._ZN4agge16scanline_adapterINS_8renderer7adapterINS_6bitmapINS_12pixel32_rgbaENS_10raw_bitmapEEENS_23blender_radial_gradientIS4_EEEEE5beginEi
                0x00000000000369da       0x29 /home/wh/.HoneyGUI-SDK/realgui/3rd/nanovg/agge/nanovg_agge.o
                0x00000000000369da                agge::scanline_adapter<agge::renderer::adapter<agge::bitmap<agge::pixel32_rgba, agge::raw_bitmap>, agge::blender_radial_gradient<agge::pixel32_rgba> > >::begin(int)
 *fill*         0x0000000000036a03        0x1 
 .text._ZN4agge16scanline_adapterINS_8renderer7adapterINS_6bitmapINS_12pixel32_bgraENS_10raw_bitmapEEENS_20nanovg_image_blenderIS4_NS3_INS_12pixel32_rgbaES5_EEEEEEE5beginEi
                0x0000000000036a04       0x29 /home/wh/.HoneyGUI-SDK/realgui/3rd/nanovg/agge/nanovg_agge.o
                0x0000000000036a04                agge::scanline_adapter<agge::renderer::adapter<agge::bitmap<agge::pixel32_bgra, agge::raw_bitmap>, agge::nanovg_image_blender<agge::pixel32_bgra, agge::bitmap<agge::pixel32_rgba, agge::raw_bitmap> > > >::begin(int)
 *fill*         0x0000000000036a2d        0x1 
 .text._ZN4agge16scanline_adapterINS_8renderer7adapterINS_6bitmapINS_12pixel32_bgraENS_10raw_bitmapEEENS_20nanovg_image_blenderIS4_S6_EEEEE5beginEi
                0x0000000000036a2e       0x29 /home/wh/.HoneyGUI-SDK/realgui/3rd/nanovg/agge/nanovg_agge.o
                0x0000000000036a2e                agge::scanline_adapter<agge::renderer::adapter<agge::bitmap<agge::pixel32_bgra, agge::raw_bitmap>, agge::nanovg_image_blender<agge::pixel32_bgra, agge::bitmap<agge::pixel32_bgra, agge::raw_bitmap> > > >::begin(int)
 *fill*         0x0000000000036a57        0x1 
 .text._ZN4agge16scanline_adapterINS_8renderer7adapterINS_6bitmapINS_12pixel32_bgraENS_10raw_bitmapEEENS_20nanovg_image_blenderIS4_NS3_INS_14pixel16_bgr565ES5_EEEEEEE5beginEi
                0x0000000000036a58       0x29 /home/wh/.HoneyGUI-SDK/realgui/3rd/nanovg/agge/nanovg_agge.o
                0x0000000000036a58                agge::scanline_adapter<agge::renderer::adapter<agge::bitmap<agge::pixel32_bgra, agge::raw_bitmap>, agge::nanovg_image_blender<agge::pixel32_bgra, agge::bitmap<agge::pixel16_bgr565, agge::raw_bitmap> > > >::begin(int)
 *fill*         0x0000000000036a81        0x1 
 .text._ZN4agge16scanline_adapterINS_8renderer7adapterINS_6bitmapINS_12pixel32_bgraENS_10raw_bitmapEEENS_20nanovg_image_blenderIS4_NS3_INS_11pixel24_rgbES5_EEEEEEE5beginEi
                0x0000000000036a82       0x29 /home/wh/.HoneyGUI-SDK/realgui/3rd/nanovg/agge/nanovg_agge.o
                0x0000000000036a82                agge::scanline_adapter<agge::renderer::adapter<agge::bitmap<agge::pixel32_bgra, agge::raw_bitmap>, agge::nanovg_image_blender<agge::pixel32_bgra, agge::bitmap<agge::pixel24_rgb, agge::raw_bitmap> > > >::begin(int)
 *fill*         0x0000000000036aab        0x1 
 .text._ZN4agge16scanline_adapterINS_8renderer7adapterINS_6bitmapINS_12pixel32_bgraENS_10raw_bitmapEEENS_23blender_solid_color_rgbIS4_EEEEE5beginEi
                0x0000000000036aac       0x29 /home/wh/.HoneyGUI-SDK/realgui/3rd/nanovg/agge/nanovg_agge.o
                0x0000000000036aac                agge::scanline_adapter<agge::renderer::adapter<agge::bitmap<agge::pixel32_bgra, agge::raw_bitmap>, agge::blender_solid_color_rgb<agge::pixel32_bgra> > >::begin(int)
 *fill*         0x0000000000036ad5        0x1 
 .text._ZN4agge16scanline_adapterINS_8renderer7adapterINS_6bitmapINS_12pixel32_bgraENS_10raw_bitmapEEENS_23blender_linear_gradientIS4_EEEEE5beginEi
                0x0000000000036ad6       0x29 /home/wh/.HoneyGUI-SDK/realgui/3rd/nanovg/agge/nanovg_agge.o
                0x0000000000036ad6                agge::scanline_adapter<agge::renderer::adapter<agge::bitmap<agge::pixel32_bgra, agge::raw_bitmap>, agge::blender_linear_gradient<agge::pixel32_bgra> > >::begin(int)
 *fill*         0x0000000000036aff        0x1 
 .text._ZN4agge16scanline_adapterINS_8renderer7adapterINS_6bitmapINS_12pixel32_bgraENS_10raw_bitmapEEENS_23blender_radial_gradientIS4_EEEEE5beginEi
                0x0000000000036b00       0x29 /home/wh/.HoneyGUI-SDK/realgui/3rd/nanovg/agge/nanovg_agge.o
                0x0000000000036b00                agge::scanline_adapter<agge::renderer::adapter<agge::bitmap<agge::pixel32_bgra, agge::raw_bitmap>, agge::blender_radial_gradient<agge::pixel32_bgra> > >::begin(int)
 *fill*         0x0000000000036b29        0x1 
 .text._ZN4agge16scanline_adapterINS_8renderer7adapterINS_6bitmapINS_11pixel24_rgbENS_10raw_bitmapEEENS_20nanovg_image_blenderIS4_NS3_INS_12pixel32_rgbaES5_EEEEEEE5beginEi
                0x0000000000036b2a       0x29 /home/wh/.HoneyGUI-SDK/realgui/3rd/nanovg/agge/nanovg_agge.o
                0x0000000000036b2a                agge::scanline_adapter<agge::renderer::adapter<agge::bitmap<agge::pixel24_rgb, agge::raw_bitmap>, agge::nanovg_image_blender<agge::pixel24_rgb, agge::bitmap<agge::pixel32_rgba, agge::raw_bitmap> > > >::begin(int)
 *fill*         0x0000000000036b53        0x1 
 .text._ZN4agge16scanline_adapterINS_8renderer7adapterINS_6bitmapINS_11pixel24_rgbENS_10raw_bitmapEEENS_20nanovg_image_blenderIS4_NS3_INS_12pixel32_bgraES5_EEEEEEE5beginEi
                0x0000000000036b54       0x29 /home/wh/.HoneyGUI-SDK/realgui/3rd/nanovg/agge/nanovg_agge.o
                0x0000000000036b54                agge::scanline_adapter<agge::renderer::adapter<agge::bitmap<agge::pixel24_rgb, agge::raw_bitmap>, agge::nanovg_image_blender<agge::pixel24_rgb, agge::bitmap<agge::pixel32_bgra, agge::raw_bitmap> > > >::begin(int)
 *fill*         0x0000000000036b7d        0x1 
 .text._ZN4agge16scanline_adapterINS_8renderer7adapterINS_6bitmapINS_11pixel24_rgbENS_10raw_bitmapEEENS_20nanovg_image_blenderIS4_NS3_INS_14pixel16_bgr565ES5_EEEEEEE5beginEi
                0x0000000000036b7e       0x29 /home/wh/.HoneyGUI-SDK/realgui/3rd/nanovg/agge/nanovg_agge.o
                0x0000000000036b7e                agge::scanline_adapter<agge::renderer::adapter<agge::bitmap<agge::pixel24_rgb, agge::raw_bitmap>, agge::nanovg_image_blender<agge::pixel24_rgb, agge::bitmap<agge::pixel16_bgr565, agge::raw_bitmap> > > >::begin(int)
 *fill*         0x0000000000036ba7        0x1 
 .text._ZN4agge16scanline_adapterINS_8renderer7adapterINS_6bitmapINS_11pixel24_rgbENS_10raw_bitmapEEENS_20nanovg_image_blenderIS4_S6_EEEEE5beginEi
                0x0000000000036ba8       0x29 /home/wh/.HoneyGUI-SDK/realgui/3rd/nanovg/agge/nanovg_agge.o
                0x0000000000036ba8                agge::scanline_adapter<agge::renderer::adapter<agge::bitmap<agge::pixel24_rgb, agge::raw_bitmap>, agge::nanovg_image_blender<agge::pixel24_rgb, agge::bitmap<agge::pixel24_rgb, agge::raw_bitmap> > > >::begin(int)
 *fill*         0x0000000000036bd1        0x1 
 .text._ZN4agge16scanline_adapterINS_8renderer7adapterINS_6bitmapINS_11pixel24_rgbENS_10raw_bitmapEEENS_23blender_solid_color_rgbIS4_EEEEE5beginEi
                0x0000000000036bd2       0x29 /home/wh/.HoneyGUI-SDK/realgui/3rd/nanovg/agge/nanovg_agge.o
                0x0000000000036bd2                agge::scanline_adapter<agge::renderer::adapter<agge::bitmap<agge::pixel24_rgb, agge::raw_bitmap>, agge::blender_solid_color_rgb<agge::pixel24_rgb> > >::begin(int)
 *fill*         0x0000000000036bfb        0x1 
 .text._ZN4agge16scanline_adapterINS_8renderer7adapterINS_6bitmapINS_11pixel24_rgbENS_10raw_bitmapEEENS_23blender_linear_gradientIS4_EEEEE5beginEi
                0x0000000000036bfc       0x29 /home/wh/.HoneyGUI-SDK/realgui/3rd/nanovg/agge/nanovg_agge.o
                0x0000000000036bfc                agge::scanline_adapter<agge::renderer::adapter<agge::bitmap<agge::pixel24_rgb, agge::raw_bitmap>, agge::blender_linear_gradient<agge::pixel24_rgb> > >::begin(int)
 *fill*         0x0000000000036c25        0x1 
 .text._ZN4agge16scanline_adapterINS_8renderer7adapterINS_6bitmapINS_11pixel24_rgbENS_10raw_bitmapEEENS_23blender_radial_gradientIS4_EEEEE5beginEi
                0x0000000000036c26       0x29 /home/wh/.HoneyGUI-SDK/realgui/3rd/nanovg/agge/nanovg_agge.o
                0x0000000000036c26                agge::scanline_adapter<agge::renderer::adapter<agge::bitmap<agge::pixel24_rgb, agge::raw_bitmap>, agge::blender_radial_gradient<agge::pixel24_rgb> > >::begin(int)
 *fill*         0x0000000000036c4f        0x1 
 .text._ZN4agge16scanline_adapterINS_8renderer7adapterINS_6bitmapINS_11pixel24_bgrENS_10raw_bitmapEEENS_20nanovg_image_blenderIS4_NS3_INS_12pixel32_rgbaES5_EEEEEEE5beginEi
                0x0000000000036c50       0x29 /home/wh/.HoneyGUI-SDK/realgui/3rd/nanovg/agge/nanovg_agge.o
                0x0000000000036c50                agge::scanline_adapter<agge::renderer::adapter<agge::bitmap<agge::pixel24_bgr, agge::raw_bitmap>, agge::nanovg_image_blender<agge::pixel24_bgr, agge::bitmap<agge::pixel32_rgba, agge::raw_bitmap> > > >::begin(int)
 *fill*         0x0000000000036c79        0x1 
 .text._ZN4agge16scanline_adapterINS_8renderer7adapterINS_6bitmapINS_11pixel24_bgrENS_10raw_bitmapEEENS_20nanovg_image_blenderIS4_NS3_INS_12pixel32_bgraES5_EEEEEEE5beginEi
                0x0000000000036c7a       0x29 /home/wh/.HoneyGUI-SDK/realgui/3rd/nanovg/agge/nanovg_agge.o
                0x0000000000036c7a                agge::scanline_adapter<agge::renderer::adapter<agge::bitmap<agge::pixel24_bgr, agge::raw_bitmap>, agge::nanovg_image_blender<agge::pixel24_bgr, agge::bitmap<agge::pixel32_bgra, agge::raw_bitmap> > > >::begin(int)
 *fill*         0x0000000000036ca3        0x1 
 .text._ZN4agge16scanline_adapterINS_8renderer7adapterINS_6bitmapINS_11pixel24_bgrENS_10raw_bitmapEEENS_20nanovg_image_blenderIS4_NS3_INS_14pixel16_bgr565ES5_EEEEEEE5beginEi
                0x0000000000036ca4       0x29 /home/wh/.HoneyGUI-SDK/realgui/3rd/nanovg/agge/nanovg_agge.o
                0x0000000000036ca4                agge::scanline_adapter<agge::renderer::adapter<agge::bitmap<agge::pixel24_bgr, agge::raw_bitmap>, agge::nanovg_image_blender<agge::pixel24_bgr, agge::bitmap<agge::pixel16_bgr565, agge::raw_bitmap> > > >::begin(int)
 *fill*         0x0000000000036ccd        0x1 
 .text._ZN4agge16scanline_adapterINS_8renderer7adapterINS_6bitmapINS_11pixel24_bgrENS_10raw_bitmapEEENS_20nanovg_image_blenderIS4_NS3_INS_11pixel24_rgbES5_EEEEEEE5beginEi
                0x0000000000036cce       0x29 /home/wh/.HoneyGUI-SDK/realgui/3rd/nanovg/agge/nanovg_agge.o
                0x0000000000036cce                agge::scanline_adapter<agge::renderer::adapter<agge::bitmap<agge::pixel24_bgr, agge::raw_bitmap>, agge::nanovg_image_blender<agge::pixel24_bgr, agge::bitmap<agge::pixel24_rgb, agge::raw_bitmap> > > >::begin(int)
 *fill*         0x0000000000036cf7        0x1 
 .text._ZN4agge16scanline_adapterINS_8renderer7adapterINS_6bitmapINS_11pixel24_bgrENS_10raw_bitmapEEENS_23blender_solid_color_rgbIS4_EEEEE5beginEi
                0x0000000000036cf8       0x29 /home/wh/.HoneyGUI-SDK/realgui/3rd/nanovg/agge/nanovg_agge.o
                0x0000000000036cf8                agge::scanline_adapter<agge::renderer::adapter<agge::bitmap<agge::pixel24_bgr, agge::raw_bitmap>, agge::blender_solid_color_rgb<agge::pixel24_bgr> > >::begin(int)
 *fill*         0x0000000000036d21        0x1 
 .text._ZN4agge16scanline_adapterINS_8renderer7adapterINS_6bitmapINS_11pixel24_bgrENS_10raw_bitmapEEENS_23blender_linear_gradientIS4_EEEEE5beginEi
                0x0000000000036d22       0x29 /home/wh/.HoneyGUI-SDK/realgui/3rd/nanovg/agge/nanovg_agge.o
                0x0000000000036d22                agge::scanline_adapter<agge::renderer::adapter<agge::bitmap<agge::pixel24_bgr, agge::raw_bitmap>, agge::blender_linear_gradient<agge::pixel24_bgr> > >::begin(int)
 *fill*         0x0000000000036d4b        0x1 
 .text._ZN4agge16scanline_adapterINS_8renderer7adapterINS_6bitmapINS_11pixel24_bgrENS_10raw_bitmapEEENS_23blender_radial_gradientIS4_EEEEE5beginEi
                0x0000000000036d4c       0x29 /home/wh/.HoneyGUI-SDK/realgui/3rd/nanovg/agge/nanovg_agge.o
                0x0000000000036d4c                agge::scanline_adapter<agge::renderer::adapter<agge::bitmap<agge::pixel24_bgr, agge::raw_bitmap>, agge::blender_radial_gradient<agge::pixel24_bgr> > >::begin(int)
 *fill*         0x0000000000036d75        0x1 
 .text._ZN4agge16scanline_adapterINS_8renderer7adapterINS_6bitmapINS_14pixel16_bgr565ENS_10raw_bitmapEEENS_20nanovg_image_blenderIS4_NS3_INS_12pixel32_rgbaES5_EEEEEEE5beginEi
                0x0000000000036d76       0x29 /home/wh/.HoneyGUI-SDK/realgui/3rd/nanovg/agge/nanovg_agge.o
                0x0000000000036d76                agge::scanline_adapter<agge::renderer::adapter<agge::bitmap<agge::pixel16_bgr565, agge::raw_bitmap>, agge::nanovg_image_blender<agge::pixel16_bgr565, agge::bitmap<agge::pixel32_rgba, agge::raw_bitmap> > > >::begin(int)
 *fill*         0x0000000000036d9f        0x1 
 .text._ZN4agge16scanline_adapterINS_8renderer7adapterINS_6bitmapINS_14pixel16_bgr565ENS_10raw_bitmapEEENS_20nanovg_image_blenderIS4_NS3_INS_12pixel32_bgraES5_EEEEEEE5beginEi
                0x0000000000036da0       0x29 /home/wh/.HoneyGUI-SDK/realgui/3rd/nanovg/agge/nanovg_agge.o
                0x0000000000036da0                agge::scanline_adapter<agge::renderer::adapter<agge::bitmap<agge::pixel16_bgr565, agge::raw_bitmap>, agge::nanovg_image_blender<agge::pixel16_bgr565, agge::bitmap<agge::pixel32_bgra, agge::raw_bitmap> > > >::begin(int)
 *fill*         0x0000000000036dc9        0x1 
 .text._ZN4agge16scanline_adapterINS_8renderer7adapterINS_6bitmapINS_14pixel16_bgr565ENS_10raw_bitmapEEENS_20nanovg_image_blenderIS4_S6_EEEEE5beginEi
                0x0000000000036dca       0x29 /home/wh/.HoneyGUI-SDK/realgui/3rd/nanovg/agge/nanovg_agge.o
                0x0000000000036dca                agge::scanline_adapter<agge::renderer::adapter<agge::bitmap<agge::pixel16_bgr565, agge::raw_bitmap>, agge::nanovg_image_blender<agge::pixel16_bgr565, agge::bitmap<agge::pixel16_bgr565, agge::raw_bitmap> > > >::begin(int)
 *fill*         0x0000000000036df3        0x1 
 .text._ZN4agge16scanline_adapterINS_8renderer7adapterINS_6bitmapINS_14pixel16_bgr565ENS_10raw_bitmapEEENS_20nanovg_image_blenderIS4_NS3_INS_11pixel24_rgbES5_EEEEEEE5beginEi
                0x0000000000036df4       0x29 /home/wh/.HoneyGUI-SDK/realgui/3rd/nanovg/agge/nanovg_agge.o
                0x0000000000036df4                agge::scanline_adapter<agge::renderer::adapter<agge::bitmap<agge::pixel16_bgr565, agge::raw_bitmap>, agge::nanovg_image_blender<agge::pixel16_bgr565, agge::bitmap<agge::pixel24_rgb, agge::raw_bitmap> > > >::begin(int)
 *fill*         0x0000000000036e1d        0x1 
 .text._ZN4agge16scanline_adapterINS_8renderer7adapterINS_6bitmapINS_14pixel16_bgr565ENS_10raw_bitmapEEENS_23blender_solid_color_rgbIS4_EEEEE5beginEi
                0x0000000000036e1e       0x29 /home/wh/.HoneyGUI-SDK/realgui/3rd/nanovg/agge/nanovg_agge.o
                0x0000000000036e1e                agge::scanline_adapter<agge::renderer::adapter<agge::bitmap<agge::pixel16_bgr565, agge::raw_bitmap>, agge::blender_solid_color_rgb<agge::pixel16_bgr565> > >::begin(int)
 *fill*         0x0000000000036e47        0x1 
 .text._ZN4agge16scanline_adapterINS_8renderer7adapterINS_6bitmapINS_14pixel16_bgr565ENS_10raw_bitmapEEENS_23blender_linear_gradientIS4_EEEEE5beginEi
                0x0000000000036e48       0x29 /home/wh/.HoneyGUI-SDK/realgui/3rd/nanovg/agge/nanovg_agge.o
                0x0000000000036e48                agge::scanline_adapter<agge::renderer::adapter<agge::bitmap<agge::pixel16_bgr565, agge::raw_bitmap>, agge::blender_linear_gradient<agge::pixel16_bgr565> > >::begin(int)
 *fill*         0x0000000000036e71        0x1 
 .text._ZN4agge16scanline_adapterINS_8renderer7adapterINS_6bitmapINS_14pixel16_bgr565ENS_10raw_bitmapEEENS_23blender_radial_gradientIS4_EEEEE5beginEi
                0x0000000000036e72       0x29 /home/wh/.HoneyGUI-SDK/realgui/3rd/nanovg/agge/nanovg_agge.o
                0x0000000000036e72                agge::scanline_adapter<agge::renderer::adapter<agge::bitmap<agge::pixel16_bgr565, agge::raw_bitmap>, agge::blender_radial_gradient<agge::pixel16_bgr565> > >::begin(int)
 .text._ZN4agge6memsetIhEEvPT_S1_j
                0x0000000000036e9b       0xb7 /home/wh/.HoneyGUI-SDK/realgui/3rd/nanovg/agge/nanovg_agge.o
                0x0000000000036e9b                void agge::memset<unsigned char>(unsigned char*, unsigned char, unsigned int)
 .text._ZN4agge8renderer7adapterINS_6bitmapINS_12pixel32_rgbaENS_10raw_bitmapEEENS_20nanovg_image_blenderIS3_S5_EEE5set_yEi
                0x0000000000036f52       0x7f /home/wh/.HoneyGUI-SDK/realgui/3rd/nanovg/agge/nanovg_agge.o
                0x0000000000036f52                agge::renderer::adapter<agge::bitmap<agge::pixel32_rgba, agge::raw_bitmap>, agge::nanovg_image_blender<agge::pixel32_rgba, agge::bitmap<agge::pixel32_rgba, agge::raw_bitmap> > >::set_y(int)
 *fill*         0x0000000000036fd1        0x1 
 .text._ZNK4agge7windingILh8EEclEi
                0x0000000000036fd2       0x31 /home/wh/.HoneyGUI-SDK/realgui/3rd/nanovg/agge/nanovg_agge.o
                0x0000000000036fd2                agge::winding<(unsigned char)8>::operator()(int) const
 *fill*         0x0000000000037003        0x1 
 .text._ZN4agge8renderer7adapterINS_6bitmapINS_12pixel32_rgbaENS_10raw_bitmapEEENS_20nanovg_image_blenderIS3_S5_EEEclEiiPKh
                0x0000000000037004       0xb5 /home/wh/.HoneyGUI-SDK/realgui/3rd/nanovg/agge/nanovg_agge.o
                0x0000000000037004                agge::renderer::adapter<agge::bitmap<agge::pixel32_rgba, agge::raw_bitmap>, agge::nanovg_image_blender<agge::pixel32_rgba, agge::bitmap<agge::pixel32_rgba, agge::raw_bitmap> > >::operator()(int, int, unsigned char const*)
 *fill*         0x00000000000370b9        0x1 
 .text._ZN4agge8renderer7adapterINS_6bitmapINS_12pixel32_rgbaENS_10raw_bitmapEEENS_20nanovg_image_blenderIS3_NS2_INS_12pixel32_bgraES4_EEEEE5set_yEi
                0x00000000000370ba       0x7f /home/wh/.HoneyGUI-SDK/realgui/3rd/nanovg/agge/nanovg_agge.o
                0x00000000000370ba                agge::renderer::adapter<agge::bitmap<agge::pixel32_rgba, agge::raw_bitmap>, agge::nanovg_image_blender<agge::pixel32_rgba, agge::bitmap<agge::pixel32_bgra, agge::raw_bitmap> > >::set_y(int)
 *fill*         0x0000000000037139        0x1 
 .text._ZN4agge8renderer7adapterINS_6bitmapINS_12pixel32_rgbaENS_10raw_bitmapEEENS_20nanovg_image_blenderIS3_NS2_INS_12pixel32_bgraES4_EEEEEclEiiPKh
                0x000000000003713a       0xb5 /home/wh/.HoneyGUI-SDK/realgui/3rd/nanovg/agge/nanovg_agge.o
                0x000000000003713a                agge::renderer::adapter<agge::bitmap<agge::pixel32_rgba, agge::raw_bitmap>, agge::nanovg_image_blender<agge::pixel32_rgba, agge::bitmap<agge::pixel32_bgra, agge::raw_bitmap> > >::operator()(int, int, unsigned char const*)
 *fill*         0x00000000000371ef        0x1 
 .text._ZN4agge8renderer7adapterINS_6bitmapINS_12pixel32_rgbaENS_10raw_bitmapEEENS_20nanovg_image_blenderIS3_NS2_INS_14pixel16_bgr565ES4_EEEEE5set_yEi
                0x00000000000371f0       0x7f /home/wh/.HoneyGUI-SDK/realgui/3rd/nanovg/agge/nanovg_agge.o
                0x00000000000371f0                agge::renderer::adapter<agge::bitmap<agge::pixel32_rgba, agge::raw_bitmap>, agge::nanovg_image_blender<agge::pixel32_rgba, agge::bitmap<agge::pixel16_bgr565, agge::raw_bitmap> > >::set_y(int)
 *fill*         0x000000000003726f        0x1 
 .text._ZN4agge8renderer7adapterINS_6bitmapINS_12pixel32_rgbaENS_10raw_bitmapEEENS_20nanovg_image_blenderIS3_NS2_INS_14pixel16_bgr565ES4_EEEEEclEiiPKh
                0x0000000000037270       0xb5 /home/wh/.HoneyGUI-SDK/realgui/3rd/nanovg/agge/nanovg_agge.o
                0x0000000000037270                agge::renderer::adapter<agge::bitmap<agge::pixel32_rgba, agge::raw_bitmap>, agge::nanovg_image_blender<agge::pixel32_rgba, agge::bitmap<agge::pixel16_bgr565, agge::raw_bitmap> > >::operator()(int, int, unsigned char const*)
 *fill*         0x0000000000037325        0x1 
 .text._ZN4agge8renderer7adapterINS_6bitmapINS_12pixel32_rgbaENS_10raw_bitmapEEENS_20nanovg_image_blenderIS3_NS2_INS_11pixel24_rgbES4_EEEEE5set_yEi
                0x0000000000037326       0x7f /home/wh/.HoneyGUI-SDK/realgui/3rd/nanovg/agge/nanovg_agge.o
                0x0000000000037326                agge::renderer::adapter<agge::bitmap<agge::pixel32_rgba, agge::raw_bitmap>, agge::nanovg_image_blender<agge::pixel32_rgba, agge::bitmap<agge::pixel24_rgb, agge::raw_bitmap> > >::set_y(int)
 *fill*         0x00000000000373a5        0x1 
 .text._ZN4agge8renderer7adapterINS_6bitmapINS_12pixel32_rgbaENS_10raw_bitmapEEENS_20nanovg_image_blenderIS3_NS2_INS_11pixel24_rgbES4_EEEEEclEiiPKh
                0x00000000000373a6       0xb5 /home/wh/.HoneyGUI-SDK/realgui/3rd/nanovg/agge/nanovg_agge.o
                0x00000000000373a6                agge::renderer::adapter<agge::bitmap<agge::pixel32_rgba, agge::raw_bitmap>, agge::nanovg_image_blender<agge::pixel32_rgba, agge::bitmap<agge::pixel24_rgb, agge::raw_bitmap> > >::operator()(int, int, unsigned char const*)
 *fill*         0x000000000003745b        0x1 
 .text._ZN4agge8renderer7adapterINS_6bitmapINS_12pixel32_rgbaENS_10raw_bitmapEEENS_23blender_solid_color_rgbIS3_EEE5set_yEi
                0x000000000003745c       0x7f /home/wh/.HoneyGUI-SDK/realgui/3rd/nanovg/agge/nanovg_agge.o
                0x000000000003745c                agge::renderer::adapter<agge::bitmap<agge::pixel32_rgba, agge::raw_bitmap>, agge::blender_solid_color_rgb<agge::pixel32_rgba> >::set_y(int)
 *fill*         0x00000000000374db        0x1 
 .text._ZN4agge8renderer7adapterINS_6bitmapINS_12pixel32_rgbaENS_10raw_bitmapEEENS_23blender_solid_color_rgbIS3_EEEclEiiPKh
                0x00000000000374dc       0xb5 /home/wh/.HoneyGUI-SDK/realgui/3rd/nanovg/agge/nanovg_agge.o
                0x00000000000374dc                agge::renderer::adapter<agge::bitmap<agge::pixel32_rgba, agge::raw_bitmap>, agge::blender_solid_color_rgb<agge::pixel32_rgba> >::operator()(int, int, unsigned char const*)
 *fill*         0x0000000000037591        0x1 
 .text._ZN4agge8renderer7adapterINS_6bitmapINS_12pixel32_rgbaENS_10raw_bitmapEEENS_23blender_linear_gradientIS3_EEE5set_yEi
                0x0000000000037592       0x7f /home/wh/.HoneyGUI-SDK/realgui/3rd/nanovg/agge/nanovg_agge.o
                0x0000000000037592                agge::renderer::adapter<agge::bitmap<agge::pixel32_rgba, agge::raw_bitmap>, agge::blender_linear_gradient<agge::pixel32_rgba> >::set_y(int)
 *fill*         0x0000000000037611        0x1 
 .text._ZN4agge8renderer7adapterINS_6bitmapINS_12pixel32_rgbaENS_10raw_bitmapEEENS_23blender_linear_gradientIS3_EEEclEiiPKh
                0x0000000000037612       0xb5 /home/wh/.HoneyGUI-SDK/realgui/3rd/nanovg/agge/nanovg_agge.o
                0x0000000000037612                agge::renderer::adapter<agge::bitmap<agge::pixel32_rgba, agge::raw_bitmap>, agge::blender_linear_gradient<agge::pixel32_rgba> >::operator()(int, int, unsigned char const*)
 *fill*         0x00000000000376c7        0x1 
 .text._ZN4agge8renderer7adapterINS_6bitmapINS_12pixel32_rgbaENS_10raw_bitmapEEENS_23blender_radial_gradientIS3_EEE5set_yEi
                0x00000000000376c8       0x7f /home/wh/.HoneyGUI-SDK/realgui/3rd/nanovg/agge/nanovg_agge.o
                0x00000000000376c8                agge::renderer::adapter<agge::bitmap<agge::pixel32_rgba, agge::raw_bitmap>, agge::blender_radial_gradient<agge::pixel32_rgba> >::set_y(int)
 *fill*         0x0000000000037747        0x1 
 .text._ZN4agge8renderer7adapterINS_6bitmapINS_12pixel32_rgbaENS_10raw_bitmapEEENS_23blender_radial_gradientIS3_EEEclEiiPKh
                0x0000000000037748       0xb5 /home/wh/.HoneyGUI-SDK/realgui/3rd/nanovg/agge/nanovg_agge.o
                0x0000000000037748                agge::renderer::adapter<agge::bitmap<agge::pixel32_rgba, agge::raw_bitmap>, agge::blender_radial_gradient<agge::pixel32_rgba> >::operator()(int, int, unsigned char const*)
 *fill*         0x00000000000377fd        0x1 
 .text._ZN4agge8renderer7adapterINS_6bitmapINS_12pixel32_bgraENS_10raw_bitmapEEENS_20nanovg_image_blenderIS3_NS2_INS_12pixel32_rgbaES4_EEEEE5set_yEi
                0x00000000000377fe       0x7f /home/wh/.HoneyGUI-SDK/realgui/3rd/nanovg/agge/nanovg_agge.o
                0x00000000000377fe                agge::renderer::adapter<agge::bitmap<agge::pixel32_bgra, agge::raw_bitmap>, agge::nanovg_image_blender<agge::pixel32_bgra, agge::bitmap<agge::pixel32_rgba, agge::raw_bitmap> > >::set_y(int)
 *fill*         0x000000000003787d        0x1 
 .text._ZN4agge8renderer7adapterINS_6bitmapINS_12pixel32_bgraENS_10raw_bitmapEEENS_20nanovg_image_blenderIS3_NS2_INS_12pixel32_rgbaES4_EEEEEclEiiPKh
                0x000000000003787e       0xb5 /home/wh/.HoneyGUI-SDK/realgui/3rd/nanovg/agge/nanovg_agge.o
                0x000000000003787e                agge::renderer::adapter<agge::bitmap<agge::pixel32_bgra, agge::raw_bitmap>, agge::nanovg_image_blender<agge::pixel32_bgra, agge::bitmap<agge::pixel32_rgba, agge::raw_bitmap> > >::operator()(int, int, unsigned char const*)
 *fill*         0x0000000000037933        0x1 
 .text._ZN4agge8renderer7adapterINS_6bitmapINS_12pixel32_bgraENS_10raw_bitmapEEENS_20nanovg_image_blenderIS3_S5_EEE5set_yEi
                0x0000000000037934       0x7f /home/wh/.HoneyGUI-SDK/realgui/3rd/nanovg/agge/nanovg_agge.o
                0x0000000000037934                agge::renderer::adapter<agge::bitmap<agge::pixel32_bgra, agge::raw_bitmap>, agge::nanovg_image_blender<agge::pixel32_bgra, agge::bitmap<agge::pixel32_bgra, agge::raw_bitmap> > >::set_y(int)
 *fill*         0x00000000000379b3        0x1 
 .text._ZN4agge8renderer7adapterINS_6bitmapINS_12pixel32_bgraENS_10raw_bitmapEEENS_20nanovg_image_blenderIS3_S5_EEEclEiiPKh
                0x00000000000379b4       0xb5 /home/wh/.HoneyGUI-SDK/realgui/3rd/nanovg/agge/nanovg_agge.o
                0x00000000000379b4                agge::renderer::adapter<agge::bitmap<agge::pixel32_bgra, agge::raw_bitmap>, agge::nanovg_image_blender<agge::pixel32_bgra, agge::bitmap<agge::pixel32_bgra, agge::raw_bitmap> > >::operator()(int, int, unsigned char const*)
 *fill*         0x0000000000037a69        0x1 
 .text._ZN4agge8renderer7adapterINS_6bitmapINS_12pixel32_bgraENS_10raw_bitmapEEENS_20nanovg_image_blenderIS3_NS2_INS_14pixel16_bgr565ES4_EEEEE5set_yEi
                0x0000000000037a6a       0x7f /home/wh/.HoneyGUI-SDK/realgui/3rd/nanovg/agge/nanovg_agge.o
                0x0000000000037a6a                agge::renderer::adapter<agge::bitmap<agge::pixel32_bgra, agge::raw_bitmap>, agge::nanovg_image_blender<agge::pixel32_bgra, agge::bitmap<agge::pixel16_bgr565, agge::raw_bitmap> > >::set_y(int)
 *fill*         0x0000000000037ae9        0x1 
 .text._ZN4agge8renderer7adapterINS_6bitmapINS_12pixel32_bgraENS_10raw_bitmapEEENS_20nanovg_image_blenderIS3_NS2_INS_14pixel16_bgr565ES4_EEEEEclEiiPKh
                0x0000000000037aea       0xb5 /home/wh/.HoneyGUI-SDK/realgui/3rd/nanovg/agge/nanovg_agge.o
                0x0000000000037aea                agge::renderer::adapter<agge::bitmap<agge::pixel32_bgra, agge::raw_bitmap>, agge::nanovg_image_blender<agge::pixel32_bgra, agge::bitmap<agge::pixel16_bgr565, agge::raw_bitmap> > >::operator()(int, int, unsigned char const*)
 *fill*         0x0000000000037b9f        0x1 
 .text._ZN4agge8renderer7adapterINS_6bitmapINS_12pixel32_bgraENS_10raw_bitmapEEENS_20nanovg_image_blenderIS3_NS2_INS_11pixel24_rgbES4_EEEEE5set_yEi
                0x0000000000037ba0       0x7f /home/wh/.HoneyGUI-SDK/realgui/3rd/nanovg/agge/nanovg_agge.o
                0x0000000000037ba0                agge::renderer::adapter<agge::bitmap<agge::pixel32_bgra, agge::raw_bitmap>, agge::nanovg_image_blender<agge::pixel32_bgra, agge::bitmap<agge::pixel24_rgb, agge::raw_bitmap> > >::set_y(int)
 *fill*         0x0000000000037c1f        0x1 
 .text._ZN4agge8renderer7adapterINS_6bitmapINS_12pixel32_bgraENS_10raw_bitmapEEENS_20nanovg_image_blenderIS3_NS2_INS_11pixel24_rgbES4_EEEEEclEiiPKh
                0x0000000000037c20       0xb5 /home/wh/.HoneyGUI-SDK/realgui/3rd/nanovg/agge/nanovg_agge.o
                0x0000000000037c20                agge::renderer::adapter<agge::bitmap<agge::pixel32_bgra, agge::raw_bitmap>, agge::nanovg_image_blender<agge::pixel32_bgra, agge::bitmap<agge::pixel24_rgb, agge::raw_bitmap> > >::operator()(int, int, unsigned char const*)
 *fill*         0x0000000000037cd5        0x1 
 .text._ZN4agge8renderer7adapterINS_6bitmapINS_12pixel32_bgraENS_10raw_bitmapEEENS_23blender_solid_color_rgbIS3_EEE5set_yEi
                0x0000000000037cd6       0x7f /home/wh/.HoneyGUI-SDK/realgui/3rd/nanovg/agge/nanovg_agge.o
                0x0000000000037cd6                agge::renderer::adapter<agge::bitmap<agge::pixel32_bgra, agge::raw_bitmap>, agge::blender_solid_color_rgb<agge::pixel32_bgra> >::set_y(int)
 *fill*         0x0000000000037d55        0x1 
 .text._ZN4agge8renderer7adapterINS_6bitmapINS_12pixel32_bgraENS_10raw_bitmapEEENS_23blender_solid_color_rgbIS3_EEEclEiiPKh
                0x0000000000037d56       0xb5 /home/wh/.HoneyGUI-SDK/realgui/3rd/nanovg/agge/nanovg_agge.o
                0x0000000000037d56                agge::renderer::adapter<agge::bitmap<agge::pixel32_bgra, agge::raw_bitmap>, agge::blender_solid_color_rgb<agge::pixel32_bgra> >::operator()(int, int, unsigned char const*)
 *fill*         0x0000000000037e0b        0x1 
 .text._ZN4agge8renderer7adapterINS_6bitmapINS_12pixel32_bgraENS_10raw_bitmapEEENS_23blender_linear_gradientIS3_EEE5set_yEi
                0x0000000000037e0c       0x7f /home/wh/.HoneyGUI-SDK/realgui/3rd/nanovg/agge/nanovg_agge.o
                0x0000000000037e0c                agge::renderer::adapter<agge::bitmap<agge::pixel32_bgra, agge::raw_bitmap>, agge::blender_linear_gradient<agge::pixel32_bgra> >::set_y(int)
 *fill*         0x0000000000037e8b        0x1 
 .text._ZN4agge8renderer7adapterINS_6bitmapINS_12pixel32_bgraENS_10raw_bitmapEEENS_23blender_linear_gradientIS3_EEEclEiiPKh
                0x0000000000037e8c       0xb5 /home/wh/.HoneyGUI-SDK/realgui/3rd/nanovg/agge/nanovg_agge.o
                0x0000000000037e8c                agge::renderer::adapter<agge::bitmap<agge::pixel32_bgra, agge::raw_bitmap>, agge::blender_linear_gradient<agge::pixel32_bgra> >::operator()(int, int, unsigned char const*)
 *fill*         0x0000000000037f41        0x1 
 .text._ZN4agge8renderer7adapterINS_6bitmapINS_12pixel32_bgraENS_10raw_bitmapEEENS_23blender_radial_gradientIS3_EEE5set_yEi
                0x0000000000037f42       0x7f /home/wh/.HoneyGUI-SDK/realgui/3rd/nanovg/agge/nanovg_agge.o
                0x0000000000037f42                agge::renderer::adapter<agge::bitmap<agge::pixel32_bgra, agge::raw_bitmap>, agge::blender_radial_gradient<agge::pixel32_bgra> >::set_y(int)
 *fill*         0x0000000000037fc1        0x1 
 .text._ZN4agge8renderer7adapterINS_6bitmapINS_12pixel32_bgraENS_10raw_bitmapEEENS_23blender_radial_gradientIS3_EEEclEiiPKh
                0x0000000000037fc2       0xb5 /home/wh/.HoneyGUI-SDK/realgui/3rd/nanovg/agge/nanovg_agge.o
                0x0000000000037fc2                agge::renderer::adapter<agge::bitmap<agge::pixel32_bgra, agge::raw_bitmap>, agge::blender_radial_gradient<agge::pixel32_bgra> >::operator()(int, int, unsigned char const*)
 *fill*         0x0000000000038077        0x1 
 .text._ZN4agge8renderer7adapterINS_6bitmapINS_11pixel24_rgbENS_10raw_bitmapEEENS_20nanovg_image_blenderIS3_NS2_INS_12pixel32_rgbaES4_EEEEE5set_yEi
                0x0000000000038078       0x86 /home/wh/.HoneyGUI-SDK/realgui/3rd/nanovg/agge/nanovg_agge.o
                0x0000000000038078                agge::renderer::adapter<agge::bitmap<agge::pixel24_rgb, agge::raw_bitmap>, agge::nanovg_image_blender<agge::pixel24_rgb, agge::bitmap<agge::pixel32_rgba, agge::raw_bitmap> > >::set_y(int)
 .text._ZN4agge8renderer7adapterINS_6bitmapINS_11pixel24_rgbENS_10raw_bitmapEEENS_20nanovg_image_blenderIS3_NS2_INS_12pixel32_rgbaES4_EEEEEclEiiPKh
                0x00000000000380fe       0xb9 /home/wh/.HoneyGUI-SDK/realgui/3rd/nanovg/agge/nanovg_agge.o
                0x00000000000380fe                agge::renderer::adapter<agge::bitmap<agge::pixel24_rgb, agge::raw_bitmap>, agge::nanovg_image_blender<agge::pixel24_rgb, agge::bitmap<agge::pixel32_rgba, agge::raw_bitmap> > >::operator()(int, int, unsigned char const*)
 *fill*         0x00000000000381b7        0x1 
 .text._ZN4agge8renderer7adapterINS_6bitmapINS_11pixel24_rgbENS_10raw_bitmapEEENS_20nanovg_image_blenderIS3_NS2_INS_12pixel32_bgraES4_EEEEE5set_yEi
                0x00000000000381b8       0x86 /home/wh/.HoneyGUI-SDK/realgui/3rd/nanovg/agge/nanovg_agge.o
                0x00000000000381b8                agge::renderer::adapter<agge::bitmap<agge::pixel24_rgb, agge::raw_bitmap>, agge::nanovg_image_blender<agge::pixel24_rgb, agge::bitmap<agge::pixel32_bgra, agge::raw_bitmap> > >::set_y(int)
 .text._ZN4agge8renderer7adapterINS_6bitmapINS_11pixel24_rgbENS_10raw_bitmapEEENS_20nanovg_image_blenderIS3_NS2_INS_12pixel32_bgraES4_EEEEEclEiiPKh
                0x000000000003823e       0xb9 /home/wh/.HoneyGUI-SDK/realgui/3rd/nanovg/agge/nanovg_agge.o
                0x000000000003823e                agge::renderer::adapter<agge::bitmap<agge::pixel24_rgb, agge::raw_bitmap>, agge::nanovg_image_blender<agge::pixel24_rgb, agge::bitmap<agge::pixel32_bgra, agge::raw_bitmap> > >::operator()(int, int, unsigned char const*)
 *fill*         0x00000000000382f7        0x1 
 .text._ZN4agge8renderer7adapterINS_6bitmapINS_11pixel24_rgbENS_10raw_bitmapEEENS_20nanovg_image_blenderIS3_NS2_INS_14pixel16_bgr565ES4_EEEEE5set_yEi
                0x00000000000382f8       0x86 /home/wh/.HoneyGUI-SDK/realgui/3rd/nanovg/agge/nanovg_agge.o
                0x00000000000382f8                agge::renderer::adapter<agge::bitmap<agge::pixel24_rgb, agge::raw_bitmap>, agge::nanovg_image_blender<agge::pixel24_rgb, agge::bitmap<agge::pixel16_bgr565, agge::raw_bitmap> > >::set_y(int)
 .text._ZN4agge8renderer7adapterINS_6bitmapINS_11pixel24_rgbENS_10raw_bitmapEEENS_20nanovg_image_blenderIS3_NS2_INS_14pixel16_bgr565ES4_EEEEEclEiiPKh
                0x000000000003837e       0xb9 /home/wh/.HoneyGUI-SDK/realgui/3rd/nanovg/agge/nanovg_agge.o
                0x000000000003837e                agge::renderer::adapter<agge::bitmap<agge::pixel24_rgb, agge::raw_bitmap>, agge::nanovg_image_blender<agge::pixel24_rgb, agge::bitmap<agge::pixel16_bgr565, agge::raw_bitmap> > >::operator()(int, int, unsigned char const*)
 *fill*         0x0000000000038437        0x1 
 .text._ZN4agge8renderer7adapterINS_6bitmapINS_11pixel24_rgbENS_10raw_bitmapEEENS_20nanovg_image_blenderIS3_S5_EEE5set_yEi
                0x0000000000038438       0x86 /home/wh/.HoneyGUI-SDK/realgui/3rd/nanovg/agge/nanovg_agge.o
                0x0000000000038438                agge::renderer::adapter<agge::bitmap<agge::pixel24_rgb, agge::raw_bitmap>, agge::nanovg_image_blender<agge::pixel24_rgb, agge::bitmap<agge::pixel24_rgb, agge::raw_bitmap> > >::set_y(int)
 .text._ZN4agge8renderer7adapterINS_6bitmapINS_11pixel24_rgbENS_10raw_bitmapEEENS_20nanovg_image_blenderIS3_S5_EEEclEiiPKh
                0x00000000000384be       0xb9 /home/wh/.HoneyGUI-SDK/realgui/3rd/nanovg/agge/nanovg_agge.o
                0x00000000000384be                agge::renderer::adapter<agge::bitmap<agge::pixel24_rgb, agge::raw_bitmap>, agge::nanovg_image_blender<agge::pixel24_rgb, agge::bitmap<agge::pixel24_rgb, agge::raw_bitmap> > >::operator()(int, int, unsigned char const*)
 *fill*         0x0000000000038577        0x1 
 .text._ZN4agge8renderer7adapterINS_6bitmapINS_11pixel24_rgbENS_10raw_bitmapEEENS_23blender_solid_color_rgbIS3_EEE5set_yEi
                0x0000000000038578       0x86 /home/wh/.HoneyGUI-SDK/realgui/3rd/nanovg/agge/nanovg_agge.o
                0x0000000000038578                agge::renderer::adapter<agge::bitmap<agge::pixel24_rgb, agge::raw_bitmap>, agge::blender_solid_color_rgb<agge::pixel24_rgb> >::set_y(int)
 .text._ZN4agge8renderer7adapterINS_6bitmapINS_11pixel24_rgbENS_10raw_bitmapEEENS_23blender_solid_color_rgbIS3_EEEclEiiPKh
                0x00000000000385fe       0xb9 /home/wh/.HoneyGUI-SDK/realgui/3rd/nanovg/agge/nanovg_agge.o
                0x00000000000385fe                agge::renderer::adapter<agge::bitmap<agge::pixel24_rgb, agge::raw_bitmap>, agge::blender_solid_color_rgb<agge::pixel24_rgb> >::operator()(int, int, unsigned char const*)
 *fill*         0x00000000000386b7        0x1 
 .text._ZN4agge8renderer7adapterINS_6bitmapINS_11pixel24_rgbENS_10raw_bitmapEEENS_23blender_linear_gradientIS3_EEE5set_yEi
                0x00000000000386b8       0x86 /home/wh/.HoneyGUI-SDK/realgui/3rd/nanovg/agge/nanovg_agge.o
                0x00000000000386b8                agge::renderer::adapter<agge::bitmap<agge::pixel24_rgb, agge::raw_bitmap>, agge::blender_linear_gradient<agge::pixel24_rgb> >::set_y(int)
 .text._ZN4agge8renderer7adapterINS_6bitmapINS_11pixel24_rgbENS_10raw_bitmapEEENS_23blender_linear_gradientIS3_EEEclEiiPKh
                0x000000000003873e       0xb9 /home/wh/.HoneyGUI-SDK/realgui/3rd/nanovg/agge/nanovg_agge.o
                0x000000000003873e                agge::renderer::adapter<agge::bitmap<agge::pixel24_rgb, agge::raw_bitmap>, agge::blender_linear_gradient<agge::pixel24_rgb> >::operator()(int, int, unsigned char const*)
 *fill*         0x00000000000387f7        0x1 
 .text._ZN4agge8renderer7adapterINS_6bitmapINS_11pixel24_rgbENS_10raw_bitmapEEENS_23blender_radial_gradientIS3_EEE5set_yEi
                0x00000000000387f8       0x86 /home/wh/.HoneyGUI-SDK/realgui/3rd/nanovg/agge/nanovg_agge.o
                0x00000000000387f8                agge::renderer::adapter<agge::bitmap<agge::pixel24_rgb, agge::raw_bitmap>, agge::blender_radial_gradient<agge::pixel24_rgb> >::set_y(int)
 .text._ZN4agge8renderer7adapterINS_6bitmapINS_11pixel24_rgbENS_10raw_bitmapEEENS_23blender_radial_gradientIS3_EEEclEiiPKh
                0x000000000003887e       0xb9 /home/wh/.HoneyGUI-SDK/realgui/3rd/nanovg/agge/nanovg_agge.o
                0x000000000003887e                agge::renderer::adapter<agge::bitmap<agge::pixel24_rgb, agge::raw_bitmap>, agge::blender_radial_gradient<agge::pixel24_rgb> >::operator()(int, int, unsigned char const*)
 *fill*         0x0000000000038937        0x1 
 .text._ZN4agge8renderer7adapterINS_6bitmapINS_11pixel24_bgrENS_10raw_bitmapEEENS_20nanovg_image_blenderIS3_NS2_INS_12pixel32_rgbaES4_EEEEE5set_yEi
                0x0000000000038938       0x86 /home/wh/.HoneyGUI-SDK/realgui/3rd/nanovg/agge/nanovg_agge.o
                0x0000000000038938                agge::renderer::adapter<agge::bitmap<agge::pixel24_bgr, agge::raw_bitmap>, agge::nanovg_image_blender<agge::pixel24_bgr, agge::bitmap<agge::pixel32_rgba, agge::raw_bitmap> > >::set_y(int)
 .text._ZN4agge8renderer7adapterINS_6bitmapINS_11pixel24_bgrENS_10raw_bitmapEEENS_20nanovg_image_blenderIS3_NS2_INS_12pixel32_rgbaES4_EEEEEclEiiPKh
                0x00000000000389be       0xb9 /home/wh/.HoneyGUI-SDK/realgui/3rd/nanovg/agge/nanovg_agge.o
                0x00000000000389be                agge::renderer::adapter<agge::bitmap<agge::pixel24_bgr, agge::raw_bitmap>, agge::nanovg_image_blender<agge::pixel24_bgr, agge::bitmap<agge::pixel32_rgba, agge::raw_bitmap> > >::operator()(int, int, unsigned char const*)
 *fill*         0x0000000000038a77        0x1 
 .text._ZN4agge8renderer7adapterINS_6bitmapINS_11pixel24_bgrENS_10raw_bitmapEEENS_20nanovg_image_blenderIS3_NS2_INS_12pixel32_bgraES4_EEEEE5set_yEi
                0x0000000000038a78       0x86 /home/wh/.HoneyGUI-SDK/realgui/3rd/nanovg/agge/nanovg_agge.o
                0x0000000000038a78                agge::renderer::adapter<agge::bitmap<agge::pixel24_bgr, agge::raw_bitmap>, agge::nanovg_image_blender<agge::pixel24_bgr, agge::bitmap<agge::pixel32_bgra, agge::raw_bitmap> > >::set_y(int)
 .text._ZN4agge8renderer7adapterINS_6bitmapINS_11pixel24_bgrENS_10raw_bitmapEEENS_20nanovg_image_blenderIS3_NS2_INS_12pixel32_bgraES4_EEEEEclEiiPKh
                0x0000000000038afe       0xb9 /home/wh/.HoneyGUI-SDK/realgui/3rd/nanovg/agge/nanovg_agge.o
                0x0000000000038afe                agge::renderer::adapter<agge::bitmap<agge::pixel24_bgr, agge::raw_bitmap>, agge::nanovg_image_blender<agge::pixel24_bgr, agge::bitmap<agge::pixel32_bgra, agge::raw_bitmap> > >::operator()(int, int, unsigned char const*)
 *fill*         0x0000000000038bb7        0x1 
 .text._ZN4agge8renderer7adapterINS_6bitmapINS_11pixel24_bgrENS_10raw_bitmapEEENS_20nanovg_image_blenderIS3_NS2_INS_14pixel16_bgr565ES4_EEEEE5set_yEi
                0x0000000000038bb8       0x86 /home/wh/.HoneyGUI-SDK/realgui/3rd/nanovg/agge/nanovg_agge.o
                0x0000000000038bb8                agge::renderer::adapter<agge::bitmap<agge::pixel24_bgr, agge::raw_bitmap>, agge::nanovg_image_blender<agge::pixel24_bgr, agge::bitmap<agge::pixel16_bgr565, agge::raw_bitmap> > >::set_y(int)
 .text._ZN4agge8renderer7adapterINS_6bitmapINS_11pixel24_bgrENS_10raw_bitmapEEENS_20nanovg_image_blenderIS3_NS2_INS_14pixel16_bgr565ES4_EEEEEclEiiPKh
                0x0000000000038c3e       0xb9 /home/wh/.HoneyGUI-SDK/realgui/3rd/nanovg/agge/nanovg_agge.o
                0x0000000000038c3e                agge::renderer::adapter<agge::bitmap<agge::pixel24_bgr, agge::raw_bitmap>, agge::nanovg_image_blender<agge::pixel24_bgr, agge::bitmap<agge::pixel16_bgr565, agge::raw_bitmap> > >::operator()(int, int, unsigned char const*)
 *fill*         0x0000000000038cf7        0x1 
 .text._ZN4agge8renderer7adapterINS_6bitmapINS_11pixel24_bgrENS_10raw_bitmapEEENS_20nanovg_image_blenderIS3_NS2_INS_11pixel24_rgbES4_EEEEE5set_yEi
                0x0000000000038cf8       0x86 /home/wh/.HoneyGUI-SDK/realgui/3rd/nanovg/agge/nanovg_agge.o
                0x0000000000038cf8                agge::renderer::adapter<agge::bitmap<agge::pixel24_bgr, agge::raw_bitmap>, agge::nanovg_image_blender<agge::pixel24_bgr, agge::bitmap<agge::pixel24_rgb, agge::raw_bitmap> > >::set_y(int)
 .text._ZN4agge8renderer7adapterINS_6bitmapINS_11pixel24_bgrENS_10raw_bitmapEEENS_20nanovg_image_blenderIS3_NS2_INS_11pixel24_rgbES4_EEEEEclEiiPKh
                0x0000000000038d7e       0xb9 /home/wh/.HoneyGUI-SDK/realgui/3rd/nanovg/agge/nanovg_agge.o
                0x0000000000038d7e                agge::renderer::adapter<agge::bitmap<agge::pixel24_bgr, agge::raw_bitmap>, agge::nanovg_image_blender<agge::pixel24_bgr, agge::bitmap<agge::pixel24_rgb, agge::raw_bitmap> > >::operator()(int, int, unsigned char const*)
 *fill*         0x0000000000038e37        0x1 
 .text._ZN4agge8renderer7adapterINS_6bitmapINS_11pixel24_bgrENS_10raw_bitmapEEENS_23blender_solid_color_rgbIS3_EEE5set_yEi
                0x0000000000038e38       0x86 /home/wh/.HoneyGUI-SDK/realgui/3rd/nanovg/agge/nanovg_agge.o
                0x0000000000038e38                agge::renderer::adapter<agge::bitmap<agge::pixel24_bgr, agge::raw_bitmap>, agge::blender_solid_color_rgb<agge::pixel24_bgr> >::set_y(int)
 .text._ZN4agge8renderer7adapterINS_6bitmapINS_11pixel24_bgrENS_10raw_bitmapEEENS_23blender_solid_color_rgbIS3_EEEclEiiPKh
                0x0000000000038ebe       0xb9 /home/wh/.HoneyGUI-SDK/realgui/3rd/nanovg/agge/nanovg_agge.o
                0x0000000000038ebe                agge::renderer::adapter<agge::bitmap<agge::pixel24_bgr, agge::raw_bitmap>, agge::blender_solid_color_rgb<agge::pixel24_bgr> >::operator()(int, int, unsigned char const*)
 *fill*         0x0000000000038f77        0x1 
 .text._ZN4agge8renderer7adapterINS_6bitmapINS_11pixel24_bgrENS_10raw_bitmapEEENS_23blender_linear_gradientIS3_EEE5set_yEi
                0x0000000000038f78       0x86 /home/wh/.HoneyGUI-SDK/realgui/3rd/nanovg/agge/nanovg_agge.o
                0x0000000000038f78                agge::renderer::adapter<agge::bitmap<agge::pixel24_bgr, agge::raw_bitmap>, agge::blender_linear_gradient<agge::pixel24_bgr> >::set_y(int)
 .text._ZN4agge8renderer7adapterINS_6bitmapINS_11pixel24_bgrENS_10raw_bitmapEEENS_23blender_linear_gradientIS3_EEEclEiiPKh
                0x0000000000038ffe       0xb9 /home/wh/.HoneyGUI-SDK/realgui/3rd/nanovg/agge/nanovg_agge.o
                0x0000000000038ffe                agge::renderer::adapter<agge::bitmap<agge::pixel24_bgr, agge::raw_bitmap>, agge::blender_linear_gradient<agge::pixel24_bgr> >::operator()(int, int, unsigned char const*)
 *fill*         0x00000000000390b7        0x1 
 .text._ZN4agge8renderer7adapterINS_6bitmapINS_11pixel24_bgrENS_10raw_bitmapEEENS_23blender_radial_gradientIS3_EEE5set_yEi
                0x00000000000390b8       0x86 /home/wh/.HoneyGUI-SDK/realgui/3rd/nanovg/agge/nanovg_agge.o
                0x00000000000390b8                agge::renderer::adapter<agge::bitmap<agge::pixel24_bgr, agge::raw_bitmap>, agge::blender_radial_gradient<agge::pixel24_bgr> >::set_y(int)
 .text._ZN4agge8renderer7adapterINS_6bitmapINS_11pixel24_bgrENS_10raw_bitmapEEENS_23blender_radial_gradientIS3_EEEclEiiPKh
                0x000000000003913e       0xb9 /home/wh/.HoneyGUI-SDK/realgui/3rd/nanovg/agge/nanovg_agge.o
                0x000000000003913e                agge::renderer::adapter<agge::bitmap<agge::pixel24_bgr, agge::raw_bitmap>, agge::blender_radial_gradient<agge::pixel24_bgr> >::operator()(int, int, unsigned char const*)
 *fill*         0x00000000000391f7        0x1 
 .text._ZN4agge8renderer7adapterINS_6bitmapINS_14pixel16_bgr565ENS_10raw_bitmapEEENS_20nanovg_image_blenderIS3_NS2_INS_12pixel32_rgbaES4_EEEEE5set_yEi
                0x00000000000391f8       0x7e /home/wh/.HoneyGUI-SDK/realgui/3rd/nanovg/agge/nanovg_agge.o
                0x00000000000391f8                agge::renderer::adapter<agge::bitmap<agge::pixel16_bgr565, agge::raw_bitmap>, agge::nanovg_image_blender<agge::pixel16_bgr565, agge::bitmap<agge::pixel32_rgba, agge::raw_bitmap> > >::set_y(int)
 .text._ZN4agge8renderer7adapterINS_6bitmapINS_14pixel16_bgr565ENS_10raw_bitmapEEENS_20nanovg_image_blenderIS3_NS2_INS_12pixel32_rgbaES4_EEEEEclEiiPKh
                0x0000000000039276       0xb4 /home/wh/.HoneyGUI-SDK/realgui/3rd/nanovg/agge/nanovg_agge.o
                0x0000000000039276                agge::renderer::adapter<agge::bitmap<agge::pixel16_bgr565, agge::raw_bitmap>, agge::nanovg_image_blender<agge::pixel16_bgr565, agge::bitmap<agge::pixel32_rgba, agge::raw_bitmap> > >::operator()(int, int, unsigned char const*)
 .text._ZN4agge8renderer7adapterINS_6bitmapINS_14pixel16_bgr565ENS_10raw_bitmapEEENS_20nanovg_image_blenderIS3_NS2_INS_12pixel32_bgraES4_EEEEE5set_yEi
                0x000000000003932a       0x7e /home/wh/.HoneyGUI-SDK/realgui/3rd/nanovg/agge/nanovg_agge.o
                0x000000000003932a                agge::renderer::adapter<agge::bitmap<agge::pixel16_bgr565, agge::raw_bitmap>, agge::nanovg_image_blender<agge::pixel16_bgr565, agge::bitmap<agge::pixel32_bgra, agge::raw_bitmap> > >::set_y(int)
 .text._ZN4agge8renderer7adapterINS_6bitmapINS_14pixel16_bgr565ENS_10raw_bitmapEEENS_20nanovg_image_blenderIS3_NS2_INS_12pixel32_bgraES4_EEEEEclEiiPKh
                0x00000000000393a8       0xb4 /home/wh/.HoneyGUI-SDK/realgui/3rd/nanovg/agge/nanovg_agge.o
                0x00000000000393a8                agge::renderer::adapter<agge::bitmap<agge::pixel16_bgr565, agge::raw_bitmap>, agge::nanovg_image_blender<agge::pixel16_bgr565, agge::bitmap<agge::pixel32_bgra, agge::raw_bitmap> > >::operator()(int, int, unsigned char const*)
 .text._ZN4agge8renderer7adapterINS_6bitmapINS_14pixel16_bgr565ENS_10raw_bitmapEEENS_20nanovg_image_blenderIS3_S5_EEE5set_yEi
                0x000000000003945c       0x7e /home/wh/.HoneyGUI-SDK/realgui/3rd/nanovg/agge/nanovg_agge.o
                0x000000000003945c                agge::renderer::adapter<agge::bitmap<agge::pixel16_bgr565, agge::raw_bitmap>, agge::nanovg_image_blender<agge::pixel16_bgr565, agge::bitmap<agge::pixel16_bgr565, agge::raw_bitmap> > >::set_y(int)
 .text._ZN4agge8renderer7adapterINS_6bitmapINS_14pixel16_bgr565ENS_10raw_bitmapEEENS_20nanovg_image_blenderIS3_S5_EEEclEiiPKh
                0x00000000000394da       0xb4 /home/wh/.HoneyGUI-SDK/realgui/3rd/nanovg/agge/nanovg_agge.o
                0x00000000000394da                agge::renderer::adapter<agge::bitmap<agge::pixel16_bgr565, agge::raw_bitmap>, agge::nanovg_image_blender<agge::pixel16_bgr565, agge::bitmap<agge::pixel16_bgr565, agge::raw_bitmap> > >::operator()(int, int, unsigned char const*)
 .text._ZN4agge8renderer7adapterINS_6bitmapINS_14pixel16_bgr565ENS_10raw_bitmapEEENS_20nanovg_image_blenderIS3_NS2_INS_11pixel24_rgbES4_EEEEE5set_yEi
                0x000000000003958e       0x7e /home/wh/.HoneyGUI-SDK/realgui/3rd/nanovg/agge/nanovg_agge.o
                0x000000000003958e                agge::renderer::adapter<agge::bitmap<agge::pixel16_bgr565, agge::raw_bitmap>, agge::nanovg_image_blender<agge::pixel16_bgr565, agge::bitmap<agge::pixel24_rgb, agge::raw_bitmap> > >::set_y(int)
 .text._ZN4agge8renderer7adapterINS_6bitmapINS_14pixel16_bgr565ENS_10raw_bitmapEEENS_20nanovg_image_blenderIS3_NS2_INS_11pixel24_rgbES4_EEEEEclEiiPKh
                0x000000000003960c       0xb4 /home/wh/.HoneyGUI-SDK/realgui/3rd/nanovg/agge/nanovg_agge.o
                0x000000000003960c                agge::renderer::adapter<agge::bitmap<agge::pixel16_bgr565, agge::raw_bitmap>, agge::nanovg_image_blender<agge::pixel16_bgr565, agge::bitmap<agge::pixel24_rgb, agge::raw_bitmap> > >::operator()(int, int, unsigned char const*)
 .text._ZN4agge8renderer7adapterINS_6bitmapINS_14pixel16_bgr565ENS_10raw_bitmapEEENS_23blender_solid_color_rgbIS3_EEE5set_yEi
                0x00000000000396c0       0x7e /home/wh/.HoneyGUI-SDK/realgui/3rd/nanovg/agge/nanovg_agge.o
                0x00000000000396c0                agge::renderer::adapter<agge::bitmap<agge::pixel16_bgr565, agge::raw_bitmap>, agge::blender_solid_color_rgb<agge::pixel16_bgr565> >::set_y(int)
 .text._ZN4agge8renderer7adapterINS_6bitmapINS_14pixel16_bgr565ENS_10raw_bitmapEEENS_23blender_solid_color_rgbIS3_EEEclEiiPKh
                0x000000000003973e       0xb4 /home/wh/.HoneyGUI-SDK/realgui/3rd/nanovg/agge/nanovg_agge.o
                0x000000000003973e                agge::renderer::adapter<agge::bitmap<agge::pixel16_bgr565, agge::raw_bitmap>, agge::blender_solid_color_rgb<agge::pixel16_bgr565> >::operator()(int, int, unsigned char const*)
 .text._ZN4agge8renderer7adapterINS_6bitmapINS_14pixel16_bgr565ENS_10raw_bitmapEEENS_23blender_linear_gradientIS3_EEE5set_yEi
                0x00000000000397f2       0x7e /home/wh/.HoneyGUI-SDK/realgui/3rd/nanovg/agge/nanovg_agge.o
                0x00000000000397f2                agge::renderer::adapter<agge::bitmap<agge::pixel16_bgr565, agge::raw_bitmap>, agge::blender_linear_gradient<agge::pixel16_bgr565> >::set_y(int)
 .text._ZN4agge8renderer7adapterINS_6bitmapINS_14pixel16_bgr565ENS_10raw_bitmapEEENS_23blender_linear_gradientIS3_EEEclEiiPKh
                0x0000000000039870       0xb4 /home/wh/.HoneyGUI-SDK/realgui/3rd/nanovg/agge/nanovg_agge.o
                0x0000000000039870                agge::renderer::adapter<agge::bitmap<agge::pixel16_bgr565, agge::raw_bitmap>, agge::blender_linear_gradient<agge::pixel16_bgr565> >::operator()(int, int, unsigned char const*)
 .text._ZN4agge8renderer7adapterINS_6bitmapINS_14pixel16_bgr565ENS_10raw_bitmapEEENS_23blender_radial_gradientIS3_EEE5set_yEi
                0x0000000000039924       0x7e /home/wh/.HoneyGUI-SDK/realgui/3rd/nanovg/agge/nanovg_agge.o
                0x0000000000039924                agge::renderer::adapter<agge::bitmap<agge::pixel16_bgr565, agge::raw_bitmap>, agge::blender_radial_gradient<agge::pixel16_bgr565> >::set_y(int)
 .text._ZN4agge8renderer7adapterINS_6bitmapINS_14pixel16_bgr565ENS_10raw_bitmapEEENS_23blender_radial_gradientIS3_EEEclEiiPKh
                0x00000000000399a2       0xb4 /home/wh/.HoneyGUI-SDK/realgui/3rd/nanovg/agge/nanovg_agge.o
                0x00000000000399a2                agge::renderer::adapter<agge::bitmap<agge::pixel16_bgr565, agge::raw_bitmap>, agge::blender_radial_gradient<agge::pixel16_bgr565> >::operator()(int, int, unsigned char const*)
 .text._ZN4agge6bitmapINS_12pixel32_rgbaENS_10raw_bitmapEE7row_ptrEj
                0x0000000000039a56       0x26 /home/wh/.HoneyGUI-SDK/realgui/3rd/nanovg/agge/nanovg_agge.o
                0x0000000000039a56                agge::bitmap<agge::pixel32_rgba, agge::raw_bitmap>::row_ptr(unsigned int)
 .text._ZNK4agge20nanovg_image_blenderINS_12pixel32_rgbaENS_6bitmapIS1_NS_10raw_bitmapEEEEclEPS1_iijPKh
                0x0000000000039a7c      0x12b /home/wh/.HoneyGUI-SDK/realgui/3rd/nanovg/agge/nanovg_agge.o
                0x0000000000039a7c                agge::nanovg_image_blender<agge::pixel32_rgba, agge::bitmap<agge::pixel32_rgba, agge::raw_bitmap> >::operator()(agge::pixel32_rgba*, int, int, unsigned int, unsigned char const*) const
 *fill*         0x0000000000039ba7        0x1 
 .text._ZNK4agge20nanovg_image_blenderINS_12pixel32_rgbaENS_6bitmapINS_12pixel32_bgraENS_10raw_bitmapEEEEclEPS1_iijPKh
                0x0000000000039ba8      0x12b /home/wh/.HoneyGUI-SDK/realgui/3rd/nanovg/agge/nanovg_agge.o
                0x0000000000039ba8                agge::nanovg_image_blender<agge::pixel32_rgba, agge::bitmap<agge::pixel32_bgra, agge::raw_bitmap> >::operator()(agge::pixel32_rgba*, int, int, unsigned int, unsigned char const*) const
 *fill*         0x0000000000039cd3        0x1 
 .text._ZNK4agge20nanovg_image_blenderINS_12pixel32_rgbaENS_6bitmapINS_14pixel16_bgr565ENS_10raw_bitmapEEEEclEPS1_iijPKh
                0x0000000000039cd4      0x12b /home/wh/.HoneyGUI-SDK/realgui/3rd/nanovg/agge/nanovg_agge.o
                0x0000000000039cd4                agge::nanovg_image_blender<agge::pixel32_rgba, agge::bitmap<agge::pixel16_bgr565, agge::raw_bitmap> >::operator()(agge::pixel32_rgba*, int, int, unsigned int, unsigned char const*) const
 *fill*         0x0000000000039dff        0x1 
 .text._ZNK4agge20nanovg_image_blenderINS_12pixel32_rgbaENS_6bitmapINS_11pixel24_rgbENS_10raw_bitmapEEEEclEPS1_iijPKh
                0x0000000000039e00      0x12b /home/wh/.HoneyGUI-SDK/realgui/3rd/nanovg/agge/nanovg_agge.o
                0x0000000000039e00                agge::nanovg_image_blender<agge::pixel32_rgba, agge::bitmap<agge::pixel24_rgb, agge::raw_bitmap> >::operator()(agge::pixel32_rgba*, int, int, unsigned int, unsigned char const*) const
 *fill*         0x0000000000039f2b        0x1 
 .text._ZNK4agge23blender_solid_color_rgbINS_12pixel32_rgbaEEclEPS1_iijPKh
                0x0000000000039f2c       0xcd /home/wh/.HoneyGUI-SDK/realgui/3rd/nanovg/agge/nanovg_agge.o
                0x0000000000039f2c                agge::blender_solid_color_rgb<agge::pixel32_rgba>::operator()(agge::pixel32_rgba*, int, int, unsigned int, unsigned char const*) const
 *fill*         0x0000000000039ff9        0x1 
 .text._ZNK4agge23blender_linear_gradientINS_12pixel32_rgbaEEclEPS1_iijPKh
                0x0000000000039ffa       0xcf /home/wh/.HoneyGUI-SDK/realgui/3rd/nanovg/agge/nanovg_agge.o
                0x0000000000039ffa                agge::blender_linear_gradient<agge::pixel32_rgba>::operator()(agge::pixel32_rgba*, int, int, unsigned int, unsigned char const*) const
 *fill*         0x000000000003a0c9        0x1 
 .text._ZNK4agge23blender_radial_gradientINS_12pixel32_rgbaEEclEPS1_iijPKh
                0x000000000003a0ca       0xcf /home/wh/.HoneyGUI-SDK/realgui/3rd/nanovg/agge/nanovg_agge.o
                0x000000000003a0ca                agge::blender_radial_gradient<agge::pixel32_rgba>::operator()(agge::pixel32_rgba*, int, int, unsigned int, unsigned char const*) const
 *fill*         0x000000000003a199        0x1 
 .text._ZN4agge6bitmapINS_12pixel32_bgraENS_10raw_bitmapEE7row_ptrEj
                0x000000000003a19a       0x26 /home/wh/.HoneyGUI-SDK/realgui/3rd/nanovg/agge/nanovg_agge.o
                0x000000000003a19a                agge::bitmap<agge::pixel32_bgra, agge::raw_bitmap>::row_ptr(unsigned int)
 .text._ZNK4agge20nanovg_image_blenderINS_12pixel32_bgraENS_6bitmapINS_12pixel32_rgbaENS_10raw_bitmapEEEEclEPS1_iijPKh
                0x000000000003a1c0      0x12b /home/wh/.HoneyGUI-SDK/realgui/3rd/nanovg/agge/nanovg_agge.o
                0x000000000003a1c0                agge::nanovg_image_blender<agge::pixel32_bgra, agge::bitmap<agge::pixel32_rgba, agge::raw_bitmap> >::operator()(agge::pixel32_bgra*, int, int, unsigned int, unsigned char const*) const
 *fill*         0x000000000003a2eb        0x1 
 .text._ZNK4agge20nanovg_image_blenderINS_12pixel32_bgraENS_6bitmapIS1_NS_10raw_bitmapEEEEclEPS1_iijPKh
                0x000000000003a2ec      0x12b /home/wh/.HoneyGUI-SDK/realgui/3rd/nanovg/agge/nanovg_agge.o
                0x000000000003a2ec                agge::nanovg_image_blender<agge::pixel32_bgra, agge::bitmap<agge::pixel32_bgra, agge::raw_bitmap> >::operator()(agge::pixel32_bgra*, int, int, unsigned int, unsigned char const*) const
 *fill*         0x000000000003a417        0x1 
 .text._ZNK4agge20nanovg_image_blenderINS_12pixel32_bgraENS_6bitmapINS_14pixel16_bgr565ENS_10raw_bitmapEEEEclEPS1_iijPKh
                0x000000000003a418      0x12b /home/wh/.HoneyGUI-SDK/realgui/3rd/nanovg/agge/nanovg_agge.o
                0x000000000003a418                agge::nanovg_image_blender<agge::pixel32_bgra, agge::bitmap<agge::pixel16_bgr565, agge::raw_bitmap> >::operator()(agge::pixel32_bgra*, int, int, unsigned int, unsigned char const*) const
 *fill*         0x000000000003a543        0x1 
 .text._ZNK4agge20nanovg_image_blenderINS_12pixel32_bgraENS_6bitmapINS_11pixel24_rgbENS_10raw_bitmapEEEEclEPS1_iijPKh
                0x000000000003a544      0x12b /home/wh/.HoneyGUI-SDK/realgui/3rd/nanovg/agge/nanovg_agge.o
                0x000000000003a544                agge::nanovg_image_blender<agge::pixel32_bgra, agge::bitmap<agge::pixel24_rgb, agge::raw_bitmap> >::operator()(agge::pixel32_bgra*, int, int, unsigned int, unsigned char const*) const
 *fill*         0x000000000003a66f        0x1 
 .text._ZNK4agge23blender_solid_color_rgbINS_12pixel32_bgraEEclEPS1_iijPKh
                0x000000000003a670       0xcd /home/wh/.HoneyGUI-SDK/realgui/3rd/nanovg/agge/nanovg_agge.o
                0x000000000003a670                agge::blender_solid_color_rgb<agge::pixel32_bgra>::operator()(agge::pixel32_bgra*, int, int, unsigned int, unsigned char const*) const
 *fill*         0x000000000003a73d        0x1 
 .text._ZNK4agge23blender_linear_gradientINS_12pixel32_bgraEEclEPS1_iijPKh
                0x000000000003a73e       0xcf /home/wh/.HoneyGUI-SDK/realgui/3rd/nanovg/agge/nanovg_agge.o
                0x000000000003a73e                agge::blender_linear_gradient<agge::pixel32_bgra>::operator()(agge::pixel32_bgra*, int, int, unsigned int, unsigned char const*) const
 *fill*         0x000000000003a80d        0x1 
 .text._ZNK4agge23blender_radial_gradientINS_12pixel32_bgraEEclEPS1_iijPKh
                0x000000000003a80e       0xcf /home/wh/.HoneyGUI-SDK/realgui/3rd/nanovg/agge/nanovg_agge.o
                0x000000000003a80e                agge::blender_radial_gradient<agge::pixel32_bgra>::operator()(agge::pixel32_bgra*, int, int, unsigned int, unsigned char const*) const
 *fill*         0x000000000003a8dd        0x1 
 .text._ZN4agge6bitmapINS_11pixel24_rgbENS_10raw_bitmapEE7row_ptrEj
                0x000000000003a8de       0x26 /home/wh/.HoneyGUI-SDK/realgui/3rd/nanovg/agge/nanovg_agge.o
                0x000000000003a8de                agge::bitmap<agge::pixel24_rgb, agge::raw_bitmap>::row_ptr(unsigned int)
 .text._ZNK4agge20nanovg_image_blenderINS_11pixel24_rgbENS_6bitmapINS_12pixel32_rgbaENS_10raw_bitmapEEEEclEPS1_iijPKh
                0x000000000003a904      0x12b /home/wh/.HoneyGUI-SDK/realgui/3rd/nanovg/agge/nanovg_agge.o
                0x000000000003a904                agge::nanovg_image_blender<agge::pixel24_rgb, agge::bitmap<agge::pixel32_rgba, agge::raw_bitmap> >::operator()(agge::pixel24_rgb*, int, int, unsigned int, unsigned char const*) const
 *fill*         0x000000000003aa2f        0x1 
 .text._ZNK4agge20nanovg_image_blenderINS_11pixel24_rgbENS_6bitmapINS_12pixel32_bgraENS_10raw_bitmapEEEEclEPS1_iijPKh
                0x000000000003aa30      0x12b /home/wh/.HoneyGUI-SDK/realgui/3rd/nanovg/agge/nanovg_agge.o
                0x000000000003aa30                agge::nanovg_image_blender<agge::pixel24_rgb, agge::bitmap<agge::pixel32_bgra, agge::raw_bitmap> >::operator()(agge::pixel24_rgb*, int, int, unsigned int, unsigned char const*) const
 *fill*         0x000000000003ab5b        0x1 
 .text._ZNK4agge20nanovg_image_blenderINS_11pixel24_rgbENS_6bitmapINS_14pixel16_bgr565ENS_10raw_bitmapEEEEclEPS1_iijPKh
                0x000000000003ab5c      0x12b /home/wh/.HoneyGUI-SDK/realgui/3rd/nanovg/agge/nanovg_agge.o
                0x000000000003ab5c                agge::nanovg_image_blender<agge::pixel24_rgb, agge::bitmap<agge::pixel16_bgr565, agge::raw_bitmap> >::operator()(agge::pixel24_rgb*, int, int, unsigned int, unsigned char const*) const
 *fill*         0x000000000003ac87        0x1 
 .text._ZNK4agge20nanovg_image_blenderINS_11pixel24_rgbENS_6bitmapIS1_NS_10raw_bitmapEEEEclEPS1_iijPKh
                0x000000000003ac88      0x12b /home/wh/.HoneyGUI-SDK/realgui/3rd/nanovg/agge/nanovg_agge.o
                0x000000000003ac88                agge::nanovg_image_blender<agge::pixel24_rgb, agge::bitmap<agge::pixel24_rgb, agge::raw_bitmap> >::operator()(agge::pixel24_rgb*, int, int, unsigned int, unsigned char const*) const
 *fill*         0x000000000003adb3        0x1 
 .text._ZNK4agge23blender_solid_color_rgbINS_11pixel24_rgbEEclEPS1_iijPKh
                0x000000000003adb4       0xcd /home/wh/.HoneyGUI-SDK/realgui/3rd/nanovg/agge/nanovg_agge.o
                0x000000000003adb4                agge::blender_solid_color_rgb<agge::pixel24_rgb>::operator()(agge::pixel24_rgb*, int, int, unsigned int, unsigned char const*) const
 *fill*         0x000000000003ae81        0x1 
 .text._ZNK4agge23blender_linear_gradientINS_11pixel24_rgbEEclEPS1_iijPKh
                0x000000000003ae82       0xcf /home/wh/.HoneyGUI-SDK/realgui/3rd/nanovg/agge/nanovg_agge.o
                0x000000000003ae82                agge::blender_linear_gradient<agge::pixel24_rgb>::operator()(agge::pixel24_rgb*, int, int, unsigned int, unsigned char const*) const
 *fill*         0x000000000003af51        0x1 
 .text._ZNK4agge23blender_radial_gradientINS_11pixel24_rgbEEclEPS1_iijPKh
                0x000000000003af52       0xcf /home/wh/.HoneyGUI-SDK/realgui/3rd/nanovg/agge/nanovg_agge.o
                0x000000000003af52                agge::blender_radial_gradient<agge::pixel24_rgb>::operator()(agge::pixel24_rgb*, int, int, unsigned int, unsigned char const*) const
 *fill*         0x000000000003b021        0x1 
 .text._ZN4agge6bitmapINS_11pixel24_bgrENS_10raw_bitmapEE7row_ptrEj
                0x000000000003b022       0x26 /home/wh/.HoneyGUI-SDK/realgui/3rd/nanovg/agge/nanovg_agge.o
                0x000000000003b022                agge::bitmap<agge::pixel24_bgr, agge::raw_bitmap>::row_ptr(unsigned int)
 .text._ZNK4agge20nanovg_image_blenderINS_11pixel24_bgrENS_6bitmapINS_12pixel32_rgbaENS_10raw_bitmapEEEEclEPS1_iijPKh
                0x000000000003b048      0x12b /home/wh/.HoneyGUI-SDK/realgui/3rd/nanovg/agge/nanovg_agge.o
                0x000000000003b048                agge::nanovg_image_blender<agge::pixel24_bgr, agge::bitmap<agge::pixel32_rgba, agge::raw_bitmap> >::operator()(agge::pixel24_bgr*, int, int, unsigned int, unsigned char const*) const
 *fill*         0x000000000003b173        0x1 
 .text._ZNK4agge20nanovg_image_blenderINS_11pixel24_bgrENS_6bitmapINS_12pixel32_bgraENS_10raw_bitmapEEEEclEPS1_iijPKh
                0x000000000003b174      0x12b /home/wh/.HoneyGUI-SDK/realgui/3rd/nanovg/agge/nanovg_agge.o
                0x000000000003b174                agge::nanovg_image_blender<agge::pixel24_bgr, agge::bitmap<agge::pixel32_bgra, agge::raw_bitmap> >::operator()(agge::pixel24_bgr*, int, int, unsigned int, unsigned char const*) const
 *fill*         0x000000000003b29f        0x1 
 .text._ZNK4agge20nanovg_image_blenderINS_11pixel24_bgrENS_6bitmapINS_14pixel16_bgr565ENS_10raw_bitmapEEEEclEPS1_iijPKh
                0x000000000003b2a0      0x12b /home/wh/.HoneyGUI-SDK/realgui/3rd/nanovg/agge/nanovg_agge.o
                0x000000000003b2a0                agge::nanovg_image_blender<agge::pixel24_bgr, agge::bitmap<agge::pixel16_bgr565, agge::raw_bitmap> >::operator()(agge::pixel24_bgr*, int, int, unsigned int, unsigned char const*) const
 *fill*         0x000000000003b3cb        0x1 
 .text._ZNK4agge20nanovg_image_blenderINS_11pixel24_bgrENS_6bitmapINS_11pixel24_rgbENS_10raw_bitmapEEEEclEPS1_iijPKh
                0x000000000003b3cc      0x12b /home/wh/.HoneyGUI-SDK/realgui/3rd/nanovg/agge/nanovg_agge.o
                0x000000000003b3cc                agge::nanovg_image_blender<agge::pixel24_bgr, agge::bitmap<agge::pixel24_rgb, agge::raw_bitmap> >::operator()(agge::pixel24_bgr*, int, int, unsigned int, unsigned char const*) const
 *fill*         0x000000000003b4f7        0x1 
 .text._ZNK4agge23blender_solid_color_rgbINS_11pixel24_bgrEEclEPS1_iijPKh
                0x000000000003b4f8       0xcd /home/wh/.HoneyGUI-SDK/realgui/3rd/nanovg/agge/nanovg_agge.o
                0x000000000003b4f8                agge::blender_solid_color_rgb<agge::pixel24_bgr>::operator()(agge::pixel24_bgr*, int, int, unsigned int, unsigned char const*) const
 *fill*         0x000000000003b5c5        0x1 
 .text._ZNK4agge23blender_linear_gradientINS_11pixel24_bgrEEclEPS1_iijPKh
                0x000000000003b5c6       0xcf /home/wh/.HoneyGUI-SDK/realgui/3rd/nanovg/agge/nanovg_agge.o
                0x000000000003b5c6                agge::blender_linear_gradient<agge::pixel24_bgr>::operator()(agge::pixel24_bgr*, int, int, unsigned int, unsigned char const*) const
 *fill*         0x000000000003b695        0x1 
 .text._ZNK4agge23blender_radial_gradientINS_11pixel24_bgrEEclEPS1_iijPKh
                0x000000000003b696       0xcf /home/wh/.HoneyGUI-SDK/realgui/3rd/nanovg/agge/nanovg_agge.o
                0x000000000003b696                agge::blender_radial_gradient<agge::pixel24_bgr>::operator()(agge::pixel24_bgr*, int, int, unsigned int, unsigned char const*) const
 *fill*         0x000000000003b765        0x1 
 .text._ZN4agge6bitmapINS_14pixel16_bgr565ENS_10raw_bitmapEE7row_ptrEj
                0x000000000003b766       0x26 /home/wh/.HoneyGUI-SDK/realgui/3rd/nanovg/agge/nanovg_agge.o
                0x000000000003b766                agge::bitmap<agge::pixel16_bgr565, agge::raw_bitmap>::row_ptr(unsigned int)
 .text._ZNK4agge20nanovg_image_blenderINS_14pixel16_bgr565ENS_6bitmapINS_12pixel32_rgbaENS_10raw_bitmapEEEEclEPS1_iijPKh
                0x000000000003b78c      0x12b /home/wh/.HoneyGUI-SDK/realgui/3rd/nanovg/agge/nanovg_agge.o
                0x000000000003b78c                agge::nanovg_image_blender<agge::pixel16_bgr565, agge::bitmap<agge::pixel32_rgba, agge::raw_bitmap> >::operator()(agge::pixel16_bgr565*, int, int, unsigned int, unsigned char const*) const
 *fill*         0x000000000003b8b7        0x1 
 .text._ZNK4agge20nanovg_image_blenderINS_14pixel16_bgr565ENS_6bitmapINS_12pixel32_bgraENS_10raw_bitmapEEEEclEPS1_iijPKh
                0x000000000003b8b8      0x12b /home/wh/.HoneyGUI-SDK/realgui/3rd/nanovg/agge/nanovg_agge.o
                0x000000000003b8b8                agge::nanovg_image_blender<agge::pixel16_bgr565, agge::bitmap<agge::pixel32_bgra, agge::raw_bitmap> >::operator()(agge::pixel16_bgr565*, int, int, unsigned int, unsigned char const*) const
 *fill*         0x000000000003b9e3        0x1 
 .text._ZNK4agge20nanovg_image_blenderINS_14pixel16_bgr565ENS_6bitmapIS1_NS_10raw_bitmapEEEEclEPS1_iijPKh
                0x000000000003b9e4      0x12b /home/wh/.HoneyGUI-SDK/realgui/3rd/nanovg/agge/nanovg_agge.o
                0x000000000003b9e4                agge::nanovg_image_blender<agge::pixel16_bgr565, agge::bitmap<agge::pixel16_bgr565, agge::raw_bitmap> >::operator()(agge::pixel16_bgr565*, int, int, unsigned int, unsigned char const*) const
 *fill*         0x000000000003bb0f        0x1 
 .text._ZNK4agge20nanovg_image_blenderINS_14pixel16_bgr565ENS_6bitmapINS_11pixel24_rgbENS_10raw_bitmapEEEEclEPS1_iijPKh
                0x000000000003bb10      0x12b /home/wh/.HoneyGUI-SDK/realgui/3rd/nanovg/agge/nanovg_agge.o
                0x000000000003bb10                agge::nanovg_image_blender<agge::pixel16_bgr565, agge::bitmap<agge::pixel24_rgb, agge::raw_bitmap> >::operator()(agge::pixel16_bgr565*, int, int, unsigned int, unsigned char const*) const
 *fill*         0x000000000003bc3b        0x1 
 .text._ZNK4agge23blender_solid_color_rgbINS_14pixel16_bgr565EEclEPS1_iijPKh
                0x000000000003bc3c       0xcd /home/wh/.HoneyGUI-SDK/realgui/3rd/nanovg/agge/nanovg_agge.o
                0x000000000003bc3c                agge::blender_solid_color_rgb<agge::pixel16_bgr565>::operator()(agge::pixel16_bgr565*, int, int, unsigned int, unsigned char const*) const
 *fill*         0x000000000003bd09        0x1 
 .text._ZNK4agge23blender_linear_gradientINS_14pixel16_bgr565EEclEPS1_iijPKh
                0x000000000003bd0a       0xcf /home/wh/.HoneyGUI-SDK/realgui/3rd/nanovg/agge/nanovg_agge.o
                0x000000000003bd0a                agge::blender_linear_gradient<agge::pixel16_bgr565>::operator()(agge::pixel16_bgr565*, int, int, unsigned int, unsigned char const*) const
 *fill*         0x000000000003bdd9        0x1 
 .text._ZNK4agge23blender_radial_gradientINS_14pixel16_bgr565EEclEPS1_iijPKh
                0x000000000003bdda       0xcf /home/wh/.HoneyGUI-SDK/realgui/3rd/nanovg/agge/nanovg_agge.o
                0x000000000003bdda                agge::blender_radial_gradient<agge::pixel16_bgr565>::operator()(agge::pixel16_bgr565*, int, int, unsigned int, unsigned char const*) const
 *fill*         0x000000000003bea9        0x1 
 .text._ZNK4agge20nanovg_image_blenderINS_12pixel32_rgbaENS_6bitmapIS1_NS_10raw_bitmapEEEE9get_pixelEffRS1_
                0x000000000003beaa      0x2fd /home/wh/.HoneyGUI-SDK/realgui/3rd/nanovg/agge/nanovg_agge.o
                0x000000000003beaa                agge::nanovg_image_blender<agge::pixel32_rgba, agge::bitmap<agge::pixel32_rgba, agge::raw_bitmap> >::get_pixel(float, float, agge::pixel32_rgba&) const
 .text._ZN4agge11pixel_blendINS_12pixel32_rgbaES1_EEvRT_RKT0_h
                0x000000000003c1a7       0xfa /home/wh/.HoneyGUI-SDK/realgui/3rd/nanovg/agge/nanovg_agge.o
                0x000000000003c1a7                void agge::pixel_blend<agge::pixel32_rgba, agge::pixel32_rgba>(agge::pixel32_rgba&, agge::pixel32_rgba const&, unsigned char)
 *fill*         0x000000000003c2a1        0x1 
 .text._ZNK4agge20nanovg_image_blenderINS_12pixel32_rgbaENS_6bitmapINS_12pixel32_bgraENS_10raw_bitmapEEEE9get_pixelEffRS1_
                0x000000000003c2a2      0x2fd /home/wh/.HoneyGUI-SDK/realgui/3rd/nanovg/agge/nanovg_agge.o
                0x000000000003c2a2                agge::nanovg_image_blender<agge::pixel32_rgba, agge::bitmap<agge::pixel32_bgra, agge::raw_bitmap> >::get_pixel(float, float, agge::pixel32_rgba&) const
 *fill*         0x000000000003c59f        0x1 
 .text._ZNK4agge20nanovg_image_blenderINS_12pixel32_rgbaENS_6bitmapINS_14pixel16_bgr565ENS_10raw_bitmapEEEE9get_pixelEffRS1_
                0x000000000003c5a0      0x2f9 /home/wh/.HoneyGUI-SDK/realgui/3rd/nanovg/agge/nanovg_agge.o
                0x000000000003c5a0                agge::nanovg_image_blender<agge::pixel32_rgba, agge::bitmap<agge::pixel16_bgr565, agge::raw_bitmap> >::get_pixel(float, float, agge::pixel32_rgba&) const
 *fill*         0x000000000003c899        0x1 
 .text._ZNK4agge20nanovg_image_blenderINS_12pixel32_rgbaENS_6bitmapINS_11pixel24_rgbENS_10raw_bitmapEEEE9get_pixelEffRS1_
                0x000000000003c89a      0x319 /home/wh/.HoneyGUI-SDK/realgui/3rd/nanovg/agge/nanovg_agge.o
                0x000000000003c89a                agge::nanovg_image_blender<agge::pixel32_rgba, agge::bitmap<agge::pixel24_rgb, agge::raw_bitmap> >::get_pixel(float, float, agge::pixel32_rgba&) const
 *fill*         0x000000000003cbb3        0x1 
 .text._ZNK4agge23blender_linear_gradientINS_12pixel32_rgbaEE9get_colorEiiRS1_
                0x000000000003cbb4      0x1ac /home/wh/.HoneyGUI-SDK/realgui/3rd/nanovg/agge/nanovg_agge.o
                0x000000000003cbb4                agge::blender_linear_gradient<agge::pixel32_rgba>::get_color(int, int, agge::pixel32_rgba&) const
 .text._ZNK4agge23blender_radial_gradientINS_12pixel32_rgbaEE9get_colorEiiRS1_
                0x000000000003cd60      0x10e /home/wh/.HoneyGUI-SDK/realgui/3rd/nanovg/agge/nanovg_agge.o
                0x000000000003cd60                agge::blender_radial_gradient<agge::pixel32_rgba>::get_color(int, int, agge::pixel32_rgba&) const
 .text._ZNK4agge20nanovg_image_blenderINS_12pixel32_bgraENS_6bitmapINS_12pixel32_rgbaENS_10raw_bitmapEEEE9get_pixelEffRS3_
                0x000000000003ce6e      0x2fd /home/wh/.HoneyGUI-SDK/realgui/3rd/nanovg/agge/nanovg_agge.o
                0x000000000003ce6e                agge::nanovg_image_blender<agge::pixel32_bgra, agge::bitmap<agge::pixel32_rgba, agge::raw_bitmap> >::get_pixel(float, float, agge::pixel32_rgba&) const
 *fill*         0x000000000003d16b        0x1 
 .text._ZNK4agge20nanovg_image_blenderINS_12pixel32_bgraENS_6bitmapIS1_NS_10raw_bitmapEEEE9get_pixelEffRNS_12pixel32_rgbaE
                0x000000000003d16c      0x2fd /home/wh/.HoneyGUI-SDK/realgui/3rd/nanovg/agge/nanovg_agge.o
                0x000000000003d16c                agge::nanovg_image_blender<agge::pixel32_bgra, agge::bitmap<agge::pixel32_bgra, agge::raw_bitmap> >::get_pixel(float, float, agge::pixel32_rgba&) const
 *fill*         0x000000000003d469        0x1 
 .text._ZNK4agge20nanovg_image_blenderINS_12pixel32_bgraENS_6bitmapINS_14pixel16_bgr565ENS_10raw_bitmapEEEE9get_pixelEffRNS_12pixel32_rgbaE
                0x000000000003d46a      0x2f9 /home/wh/.HoneyGUI-SDK/realgui/3rd/nanovg/agge/nanovg_agge.o
                0x000000000003d46a                agge::nanovg_image_blender<agge::pixel32_bgra, agge::bitmap<agge::pixel16_bgr565, agge::raw_bitmap> >::get_pixel(float, float, agge::pixel32_rgba&) const
 *fill*         0x000000000003d763        0x1 
 .text._ZNK4agge20nanovg_image_blenderINS_12pixel32_bgraENS_6bitmapINS_11pixel24_rgbENS_10raw_bitmapEEEE9get_pixelEffRNS_12pixel32_rgbaE
                0x000000000003d764      0x319 /home/wh/.HoneyGUI-SDK/realgui/3rd/nanovg/agge/nanovg_agge.o
                0x000000000003d764                agge::nanovg_image_blender<agge::pixel32_bgra, agge::bitmap<agge::pixel24_rgb, agge::raw_bitmap> >::get_pixel(float, float, agge::pixel32_rgba&) const
 *fill*         0x000000000003da7d        0x1 
 .text._ZNK4agge23blender_linear_gradientINS_12pixel32_bgraEE9get_colorEiiRNS_12pixel32_rgbaE
                0x000000000003da7e      0x1ac /home/wh/.HoneyGUI-SDK/realgui/3rd/nanovg/agge/nanovg_agge.o
                0x000000000003da7e                agge::blender_linear_gradient<agge::pixel32_bgra>::get_color(int, int, agge::pixel32_rgba&) const
 .text._ZNK4agge23blender_radial_gradientINS_12pixel32_bgraEE9get_colorEiiRNS_12pixel32_rgbaE
                0x000000000003dc2a      0x10e /home/wh/.HoneyGUI-SDK/realgui/3rd/nanovg/agge/nanovg_agge.o
                0x000000000003dc2a                agge::blender_radial_gradient<agge::pixel32_bgra>::get_color(int, int, agge::pixel32_rgba&) const
 .text._ZNK4agge20nanovg_image_blenderINS_11pixel24_rgbENS_6bitmapINS_12pixel32_rgbaENS_10raw_bitmapEEEE9get_pixelEffRS3_
                0x000000000003dd38      0x2fd /home/wh/.HoneyGUI-SDK/realgui/3rd/nanovg/agge/nanovg_agge.o
                0x000000000003dd38                agge::nanovg_image_blender<agge::pixel24_rgb, agge::bitmap<agge::pixel32_rgba, agge::raw_bitmap> >::get_pixel(float, float, agge::pixel32_rgba&) const
 .text._ZN4agge11pixel_blendINS_11pixel24_rgbENS_12pixel32_rgbaEEEvRT_RKT0_h
                0x000000000003e035      0x109 /home/wh/.HoneyGUI-SDK/realgui/3rd/nanovg/agge/nanovg_agge.o
                0x000000000003e035                void agge::pixel_blend<agge::pixel24_rgb, agge::pixel32_rgba>(agge::pixel24_rgb&, agge::pixel32_rgba const&, unsigned char)
 .text._ZNK4agge20nanovg_image_blenderINS_11pixel24_rgbENS_6bitmapINS_12pixel32_bgraENS_10raw_bitmapEEEE9get_pixelEffRNS_12pixel32_rgbaE
                0x000000000003e13e      0x2fd /home/wh/.HoneyGUI-SDK/realgui/3rd/nanovg/agge/nanovg_agge.o
                0x000000000003e13e                agge::nanovg_image_blender<agge::pixel24_rgb, agge::bitmap<agge::pixel32_bgra, agge::raw_bitmap> >::get_pixel(float, float, agge::pixel32_rgba&) const
 *fill*         0x000000000003e43b        0x1 
 .text._ZNK4agge20nanovg_image_blenderINS_11pixel24_rgbENS_6bitmapINS_14pixel16_bgr565ENS_10raw_bitmapEEEE9get_pixelEffRNS_12pixel32_rgbaE
                0x000000000003e43c      0x2f9 /home/wh/.HoneyGUI-SDK/realgui/3rd/nanovg/agge/nanovg_agge.o
                0x000000000003e43c                agge::nanovg_image_blender<agge::pixel24_rgb, agge::bitmap<agge::pixel16_bgr565, agge::raw_bitmap> >::get_pixel(float, float, agge::pixel32_rgba&) const
 *fill*         0x000000000003e735        0x1 
 .text._ZNK4agge20nanovg_image_blenderINS_11pixel24_rgbENS_6bitmapIS1_NS_10raw_bitmapEEEE9get_pixelEffRNS_12pixel32_rgbaE
                0x000000000003e736      0x319 /home/wh/.HoneyGUI-SDK/realgui/3rd/nanovg/agge/nanovg_agge.o
                0x000000000003e736                agge::nanovg_image_blender<agge::pixel24_rgb, agge::bitmap<agge::pixel24_rgb, agge::raw_bitmap> >::get_pixel(float, float, agge::pixel32_rgba&) const
 *fill*         0x000000000003ea4f        0x1 
 .text._ZNK4agge23blender_linear_gradientINS_11pixel24_rgbEE9get_colorEiiRNS_12pixel32_rgbaE
                0x000000000003ea50      0x1ac /home/wh/.HoneyGUI-SDK/realgui/3rd/nanovg/agge/nanovg_agge.o
                0x000000000003ea50                agge::blender_linear_gradient<agge::pixel24_rgb>::get_color(int, int, agge::pixel32_rgba&) const
 .text._ZNK4agge23blender_radial_gradientINS_11pixel24_rgbEE9get_colorEiiRNS_12pixel32_rgbaE
                0x000000000003ebfc      0x10e /home/wh/.HoneyGUI-SDK/realgui/3rd/nanovg/agge/nanovg_agge.o
                0x000000000003ebfc                agge::blender_radial_gradient<agge::pixel24_rgb>::get_color(int, int, agge::pixel32_rgba&) const
 .text._ZNK4agge20nanovg_image_blenderINS_11pixel24_bgrENS_6bitmapINS_12pixel32_rgbaENS_10raw_bitmapEEEE9get_pixelEffRS3_
                0x000000000003ed0a      0x2fd /home/wh/.HoneyGUI-SDK/realgui/3rd/nanovg/agge/nanovg_agge.o
                0x000000000003ed0a                agge::nanovg_image_blender<agge::pixel24_bgr, agge::bitmap<agge::pixel32_rgba, agge::raw_bitmap> >::get_pixel(float, float, agge::pixel32_rgba&) const
 .text._ZN4agge11pixel_blendINS_11pixel24_bgrENS_12pixel32_rgbaEEEvRT_RKT0_h
                0x000000000003f007      0x109 /home/wh/.HoneyGUI-SDK/realgui/3rd/nanovg/agge/nanovg_agge.o
                0x000000000003f007                void agge::pixel_blend<agge::pixel24_bgr, agge::pixel32_rgba>(agge::pixel24_bgr&, agge::pixel32_rgba const&, unsigned char)
 .text._ZNK4agge20nanovg_image_blenderINS_11pixel24_bgrENS_6bitmapINS_12pixel32_bgraENS_10raw_bitmapEEEE9get_pixelEffRNS_12pixel32_rgbaE
                0x000000000003f110      0x2fd /home/wh/.HoneyGUI-SDK/realgui/3rd/nanovg/agge/nanovg_agge.o
                0x000000000003f110                agge::nanovg_image_blender<agge::pixel24_bgr, agge::bitmap<agge::pixel32_bgra, agge::raw_bitmap> >::get_pixel(float, float, agge::pixel32_rgba&) const
 *fill*         0x000000000003f40d        0x1 
 .text._ZNK4agge20nanovg_image_blenderINS_11pixel24_bgrENS_6bitmapINS_14pixel16_bgr565ENS_10raw_bitmapEEEE9get_pixelEffRNS_12pixel32_rgbaE
                0x000000000003f40e      0x2f9 /home/wh/.HoneyGUI-SDK/realgui/3rd/nanovg/agge/nanovg_agge.o
                0x000000000003f40e                agge::nanovg_image_blender<agge::pixel24_bgr, agge::bitmap<agge::pixel16_bgr565, agge::raw_bitmap> >::get_pixel(float, float, agge::pixel32_rgba&) const
 *fill*         0x000000000003f707        0x1 
 .text._ZNK4agge20nanovg_image_blenderINS_11pixel24_bgrENS_6bitmapINS_11pixel24_rgbENS_10raw_bitmapEEEE9get_pixelEffRNS_12pixel32_rgbaE
                0x000000000003f708      0x319 /home/wh/.HoneyGUI-SDK/realgui/3rd/nanovg/agge/nanovg_agge.o
                0x000000000003f708                agge::nanovg_image_blender<agge::pixel24_bgr, agge::bitmap<agge::pixel24_rgb, agge::raw_bitmap> >::get_pixel(float, float, agge::pixel32_rgba&) const
 *fill*         0x000000000003fa21        0x1 
 .text._ZNK4agge23blender_linear_gradientINS_11pixel24_bgrEE9get_colorEiiRNS_12pixel32_rgbaE
                0x000000000003fa22      0x1ac /home/wh/.HoneyGUI-SDK/realgui/3rd/nanovg/agge/nanovg_agge.o
                0x000000000003fa22                agge::blender_linear_gradient<agge::pixel24_bgr>::get_color(int, int, agge::pixel32_rgba&) const
 .text._ZNK4agge23blender_radial_gradientINS_11pixel24_bgrEE9get_colorEiiRNS_12pixel32_rgbaE
                0x000000000003fbce      0x10e /home/wh/.HoneyGUI-SDK/realgui/3rd/nanovg/agge/nanovg_agge.o
                0x000000000003fbce                agge::blender_radial_gradient<agge::pixel24_bgr>::get_color(int, int, agge::pixel32_rgba&) const
 .text._ZNK4agge20nanovg_image_blenderINS_14pixel16_bgr565ENS_6bitmapINS_12pixel32_rgbaENS_10raw_bitmapEEEE9get_pixelEffRS3_
                0x000000000003fcdc      0x2fd /home/wh/.HoneyGUI-SDK/realgui/3rd/nanovg/agge/nanovg_agge.o
                0x000000000003fcdc                agge::nanovg_image_blender<agge::pixel16_bgr565, agge::bitmap<agge::pixel32_rgba, agge::raw_bitmap> >::get_pixel(float, float, agge::pixel32_rgba&) const
 *fill*         0x000000000003ffd9        0x1 
 .text._ZNK4agge20nanovg_image_blenderINS_14pixel16_bgr565ENS_6bitmapINS_12pixel32_bgraENS_10raw_bitmapEEEE9get_pixelEffRNS_12pixel32_rgbaE
                0x000000000003ffda      0x2fd /home/wh/.HoneyGUI-SDK/realgui/3rd/nanovg/agge/nanovg_agge.o
                0x000000000003ffda                agge::nanovg_image_blender<agge::pixel16_bgr565, agge::bitmap<agge::pixel32_bgra, agge::raw_bitmap> >::get_pixel(float, float, agge::pixel32_rgba&) const
 *fill*         0x00000000000402d7        0x1 
 .text._ZNK4agge20nanovg_image_blenderINS_14pixel16_bgr565ENS_6bitmapIS1_NS_10raw_bitmapEEEE9get_pixelEffRNS_12pixel32_rgbaE
                0x00000000000402d8      0x2f9 /home/wh/.HoneyGUI-SDK/realgui/3rd/nanovg/agge/nanovg_agge.o
                0x00000000000402d8                agge::nanovg_image_blender<agge::pixel16_bgr565, agge::bitmap<agge::pixel16_bgr565, agge::raw_bitmap> >::get_pixel(float, float, agge::pixel32_rgba&) const
 *fill*         0x00000000000405d1        0x1 
 .text._ZNK4agge20nanovg_image_blenderINS_14pixel16_bgr565ENS_6bitmapINS_11pixel24_rgbENS_10raw_bitmapEEEE9get_pixelEffRNS_12pixel32_rgbaE
                0x00000000000405d2      0x319 /home/wh/.HoneyGUI-SDK/realgui/3rd/nanovg/agge/nanovg_agge.o
                0x00000000000405d2                agge::nanovg_image_blender<agge::pixel16_bgr565, agge::bitmap<agge::pixel24_rgb, agge::raw_bitmap> >::get_pixel(float, float, agge::pixel32_rgba&) const
 *fill*         0x00000000000408eb        0x1 
 .text._ZNK4agge23blender_linear_gradientINS_14pixel16_bgr565EE9get_colorEiiRNS_12pixel32_rgbaE
                0x00000000000408ec      0x1ac /home/wh/.HoneyGUI-SDK/realgui/3rd/nanovg/agge/nanovg_agge.o
                0x00000000000408ec                agge::blender_linear_gradient<agge::pixel16_bgr565>::get_color(int, int, agge::pixel32_rgba&) const
 .text._ZNK4agge23blender_radial_gradientINS_14pixel16_bgr565EE9get_colorEiiRNS_12pixel32_rgbaE
                0x0000000000040a98      0x10e /home/wh/.HoneyGUI-SDK/realgui/3rd/nanovg/agge/nanovg_agge.o
                0x0000000000040a98                agge::blender_radial_gradient<agge::pixel16_bgr565>::get_color(int, int, agge::pixel32_rgba&) const
 .text._ZN4agge12pixel_linearINS_12pixel32_rgbaES1_EEvRT_RKT0_f
                0x0000000000040ba6      0x137 /home/wh/.HoneyGUI-SDK/realgui/3rd/nanovg/agge/nanovg_agge.o
                0x0000000000040ba6                void agge::pixel_linear<agge::pixel32_rgba, agge::pixel32_rgba>(agge::pixel32_rgba&, agge::pixel32_rgba const&, float)
 .text._ZN4agge13pixel_convertINS_12pixel32_rgbaENS_11pixel24_rgbEEEvRT_RKT0_
                0x0000000000040cdd       0x3e /home/wh/.HoneyGUI-SDK/realgui/3rd/nanovg/agge/nanovg_agge.o
                0x0000000000040cdd                void agge::pixel_convert<agge::pixel32_rgba, agge::pixel24_rgb>(agge::pixel32_rgba&, agge::pixel24_rgb const&)
 *fill*         0x0000000000040d1b        0x1 
 .text._ZNK4agge23blender_linear_gradientINS_12pixel32_rgbaEE8gradientEfRS1_
                0x0000000000040d1c      0x17f /home/wh/.HoneyGUI-SDK/realgui/3rd/nanovg/agge/nanovg_agge.o
                0x0000000000040d1c                agge::blender_linear_gradient<agge::pixel32_rgba>::gradient(float, agge::pixel32_rgba&) const
 *fill*         0x0000000000040e9b        0x1 
 .text._ZNK4agge23blender_radial_gradientINS_12pixel32_rgbaEE8gradientEfRS1_
                0x0000000000040e9c      0x17f /home/wh/.HoneyGUI-SDK/realgui/3rd/nanovg/agge/nanovg_agge.o
                0x0000000000040e9c                agge::blender_radial_gradient<agge::pixel32_rgba>::gradient(float, agge::pixel32_rgba&) const
 *fill*         0x000000000004101b        0x1 
 .text._ZNK4agge23blender_linear_gradientINS_12pixel32_bgraEE8gradientEfRNS_12pixel32_rgbaE
                0x000000000004101c      0x17f /home/wh/.HoneyGUI-SDK/realgui/3rd/nanovg/agge/nanovg_agge.o
                0x000000000004101c                agge::blender_linear_gradient<agge::pixel32_bgra>::gradient(float, agge::pixel32_rgba&) const
 *fill*         0x000000000004119b        0x1 
 .text._ZNK4agge23blender_radial_gradientINS_12pixel32_bgraEE8gradientEfRNS_12pixel32_rgbaE
                0x000000000004119c      0x17f /home/wh/.HoneyGUI-SDK/realgui/3rd/nanovg/agge/nanovg_agge.o
                0x000000000004119c                agge::blender_radial_gradient<agge::pixel32_bgra>::gradient(float, agge::pixel32_rgba&) const
 *fill*         0x000000000004131b        0x1 
 .text._ZNK4agge23blender_linear_gradientINS_11pixel24_rgbEE8gradientEfRNS_12pixel32_rgbaE
                0x000000000004131c      0x17f /home/wh/.HoneyGUI-SDK/realgui/3rd/nanovg/agge/nanovg_agge.o
                0x000000000004131c                agge::blender_linear_gradient<agge::pixel24_rgb>::gradient(float, agge::pixel32_rgba&) const
 *fill*         0x000000000004149b        0x1 
 .text._ZNK4agge23blender_radial_gradientINS_11pixel24_rgbEE8gradientEfRNS_12pixel32_rgbaE
                0x000000000004149c      0x17f /home/wh/.HoneyGUI-SDK/realgui/3rd/nanovg/agge/nanovg_agge.o
                0x000000000004149c                agge::blender_radial_gradient<agge::pixel24_rgb>::gradient(float, agge::pixel32_rgba&) const
 *fill*         0x000000000004161b        0x1 
 .text._ZNK4agge23blender_linear_gradientINS_11pixel24_bgrEE8gradientEfRNS_12pixel32_rgbaE
                0x000000000004161c      0x17f /home/wh/.HoneyGUI-SDK/realgui/3rd/nanovg/agge/nanovg_agge.o
                0x000000000004161c                agge::blender_linear_gradient<agge::pixel24_bgr>::gradient(float, agge::pixel32_rgba&) const
 *fill*         0x000000000004179b        0x1 
 .text._ZNK4agge23blender_radial_gradientINS_11pixel24_bgrEE8gradientEfRNS_12pixel32_rgbaE
                0x000000000004179c      0x17f /home/wh/.HoneyGUI-SDK/realgui/3rd/nanovg/agge/nanovg_agge.o
                0x000000000004179c                agge::blender_radial_gradient<agge::pixel24_bgr>::gradient(float, agge::pixel32_rgba&) const
 *fill*         0x000000000004191b        0x1 
 .text._ZNK4agge23blender_linear_gradientINS_14pixel16_bgr565EE8gradientEfRNS_12pixel32_rgbaE
                0x000000000004191c      0x17f /home/wh/.HoneyGUI-SDK/realgui/3rd/nanovg/agge/nanovg_agge.o
                0x000000000004191c                agge::blender_linear_gradient<agge::pixel16_bgr565>::gradient(float, agge::pixel32_rgba&) const
 *fill*         0x0000000000041a9b        0x1 
 .text._ZNK4agge23blender_radial_gradientINS_14pixel16_bgr565EE8gradientEfRNS_12pixel32_rgbaE
                0x0000000000041a9c      0x17f /home/wh/.HoneyGUI-SDK/realgui/3rd/nanovg/agge/nanovg_agge.o
                0x0000000000041a9c                agge::blender_radial_gradient<agge::pixel16_bgr565>::gradient(float, agge::pixel32_rgba&) const
 *fill*         0x0000000000041c1b        0x1 
 .text          0x0000000000041c1c      0x1a1 /home/wh/.HoneyGUI-SDK/realgui/3rd/nanovg/agge/nanovg_vertex.o
                0x0000000000041c1c                agge::nanovg_vertex::nanovg_vertex(NVGvertex*, int)
                0x0000000000041c1c                agge::nanovg_vertex::nanovg_vertex(NVGvertex*, int)
                0x0000000000041c48                agge::nanovg_vertex::iterate() const
                0x0000000000041ca2                agge::nanovg_vertex::iterator::iterator(NVGvertex*, int)
                0x0000000000041ca2                agge::nanovg_vertex::iterator::iterator(NVGvertex*, int)
                0x0000000000041cd8                agge::nanovg_vertex::iterator::vertex(float*, float*)
 .text          0x0000000000041dbd     0x2410 /home/wh/.HoneyGUI-SDK/realgui/3rd/gifdec/gifdec.o
                0x0000000000042356                gd_open_gif
                0x00000000000425ef                gd_open_gif_from_memory
                0x0000000000043f56                gd_get_frame
                0x000000000004406c                gd_render_frame
                0x00000000000440d2                gd_is_bgcolor
                0x0000000000044129                gd_rewind
                0x0000000000044183                gd_close_gif
 .text          0x00000000000441cd     0x30cb /home/wh/.HoneyGUI-SDK/realgui/3rd/letter_shell/shell.o
                0x00000000000441cd                shellInit
                0x00000000000443a6                shellRemove
                0x000000000004440c                shellGetCurrent
                0x00000000000444c6                shellWriteString
                0x00000000000446e8                shellPrint
                0x000000000004480e                shellCheckPermission
                0x000000000004488a                shellToHex
                0x00000000000448f2                shellToDec
                0x0000000000044bb3                shellListItem
                0x0000000000044d8e                shellListCommand
                0x0000000000044e5a                shellListVar
                0x0000000000044f47                shellListUser
                0x0000000000045034                shellListKey
                0x0000000000045121                shellListAll
                0x0000000000045140                shellDeleteCommandLine
                0x000000000004517f                shellClearCommandLine
                0x00000000000451e8                shellInsertByte
                0x0000000000045455                shellDeleteByte
                0x0000000000045694                shellSplit
                0x0000000000045a6a                shellSeekCommand
                0x0000000000045baa                shellGetVarValue
                0x0000000000045c7c                shellSetVarValue
                0x0000000000045f80                shellSetVar
                0x000000000004605b                shellRunCommand
                0x0000000000046207                shellSetUser
                0x00000000000466c5                shellNormalInput
                0x0000000000046703                shellExec
                0x000000000004681c                shellUp
                0x0000000000046840                shellDown
                0x0000000000046864                shellRight
                0x00000000000468c1                shellLeft
                0x0000000000046905                shellTab
                0x0000000000046c78                shellBackspace
                0x0000000000046c9c                shellDelete
                0x0000000000046cc0                shellEnter
                0x0000000000046dcc                shellHelp
                0x0000000000046e25                shellHandler
                0x0000000000047075                shellTask
                0x00000000000470e2                shellUsers
                0x000000000004710d                shellCmds
                0x0000000000047138                shellVars
                0x0000000000047163                shellKeys
                0x000000000004718e                shellClear
                0x00000000000471c3                shellRun
 .text          0x0000000000047298      0x16f /home/wh/.HoneyGUI-SDK/realgui/3rd/letter_shell/shell_companion.o
                0x0000000000047298                shellCompanionAdd
                0x000000000004730b                shellCompanionDel
                0x00000000000473ad                shellCompanionGet
 .text          0x0000000000047407      0x93b /home/wh/.HoneyGUI-SDK/realgui/3rd/letter_shell/shell_ext.o
                0x00000000000478e8                shellExtParsePara
                0x0000000000047a0d                shellExtRun
 .text          0x0000000000047d42      0x186 /home/wh/.HoneyGUI-SDK/realgui/3rd/letter_shell/shell_fs.o
                0x0000000000047d42                shellCD
                0x0000000000047ded                shellLS
                0x0000000000047e7a                shellFsInit
 .text          0x0000000000047ec8       0x5f /home/wh/.HoneyGUI-SDK/realgui/3rd/letter_shell/shell_port.o
                0x0000000000047ec8                userGetTick
                0x0000000000047ef0                userShellInit
 .text          0x0000000000047f27        0x0 /home/wh/.HoneyGUI-SDK/realgui/3rd/h264bsd/src/YUV2RGB.o
 .text          0x0000000000047f27      0x3c1 /home/wh/.HoneyGUI-SDK/realgui/3rd/h264bsd/src/gui_h264bsd.o
                0x0000000000047f27                gui_h264bsd_get_frame
                0x000000000004811b                gui_h264bsd_rewind
                0x0000000000048171                gui_h264bsd_destroy_decoder
                0x00000000000481f9                gui_h264bsd_create_decoder
 .text          0x00000000000482e8        0x0 /home/wh/.HoneyGUI-SDK/realgui/3rd/h264bsd/src/h264bsdTest.o
 .text          0x00000000000482e8      0x2f2 /home/wh/.HoneyGUI-SDK/realgui/3rd/h264bsd/src/h264bsd_byte_stream.o
                0x00000000000482e8                h264bsdExtractNalUnit
 .text          0x00000000000485da      0xff1 /home/wh/.HoneyGUI-SDK/realgui/3rd/h264bsd/src/h264bsd_cavlc.o
                0x0000000000048d6d                h264bsdDecodeResidualBlockCavlc
 .text          0x00000000000495cb     0x21ed /home/wh/.HoneyGUI-SDK/realgui/3rd/h264bsd/src/h264bsd_conceal.o
                0x00000000000495cb                h264bsdConceal
 .text          0x000000000004b7b8     0x4165 /home/wh/.HoneyGUI-SDK/realgui/3rd/h264bsd/src/h264bsd_deblocking.o
                0x000000000004b9ac                InnerBoundaryStrength2
                0x000000000004bb6a                h264bsdFilterPicture
                0x000000000004d3c0                GetBoundaryStrengthsA
 .text          0x000000000004f91d     0x233a /home/wh/.HoneyGUI-SDK/realgui/3rd/h264bsd/src/h264bsd_decoder.o
                0x000000000004f91d                h264bsdInit
                0x000000000004f98e                h264bsdDecode
                0x0000000000050632                h264bsdShutdown
                0x00000000000509af                h264bsdNextOutputPicture
                0x0000000000050a1f                h264bsdNextOutputPictureRGBA
                0x0000000000050b24                h264bsdNextOutputPictureBGRA
                0x0000000000050c45                h264bsdNextOutputPictureBGR565
                0x0000000000050d5d                h264bsdNextOutputPictureYCbCrA
                0x0000000000050e62                h264bsdPicWidth
                0x0000000000050e8f                h264bsdPicHeight
                0x0000000000050ebc                h264bsdFlushBuffer
                0x0000000000050ee1                h264bsdCheckValidParamSets
                0x0000000000050f07                h264bsdVideoRange
                0x0000000000050f74                h264bsdMatrixCoefficients
                0x0000000000050feb                h264bsdCroppingParams
                0x0000000000051107                h264bsdSampleAspectRatio
                0x000000000005132e                h264bsdProfile
                0x000000000005135a                h264bsdAlloc
                0x000000000005136e                h264bsdFree
                0x000000000005138d                h264bsdConvertToRGBA
                0x0000000000051602                h264bsdConvertToBGRA
                0x0000000000051877                h264bsdConvertToBGR565
                0x0000000000051af1                h264bsdConvertToYCbCrA
 .text          0x0000000000051c57     0x2137 /home/wh/.HoneyGUI-SDK/realgui/3rd/h264bsd/src/h264bsd_dpb.o
                0x0000000000051de4                h264bsdReorderRefPicList
                0x0000000000052769                h264bsdMarkDecRefPic
                0x0000000000052d1a                h264bsdGetRefPicData
                0x0000000000052d8e                h264bsdAllocateDpbImage
                0x0000000000052f35                h264bsdInitDpb
                0x0000000000053193                h264bsdResetDpb
                0x00000000000531e4                h264bsdInitRefPicList
                0x000000000005347b                h264bsdCheckGapsInFrameNum
                0x0000000000053a24                h264bsdDpbOutputPicture
                0x0000000000053a76                h264bsdFlushDpb
                0x0000000000053ab1                h264bsdFreeDpb
 .text          0x0000000000053d8e      0x83f /home/wh/.HoneyGUI-SDK/realgui/3rd/h264bsd/src/h264bsd_image.o
                0x0000000000053d8e                h264bsdWriteMacroblock
                0x0000000000053f5f                h264bsdWriteOutputBlocks
 .text          0x00000000000545cd     0x1a14 /home/wh/.HoneyGUI-SDK/realgui/3rd/h264bsd/src/h264bsd_inter_prediction.o
                0x00000000000545cd                h264bsdInterPrediction
 .text          0x0000000000055fe1     0x3c89 /home/wh/.HoneyGUI-SDK/realgui/3rd/h264bsd/src/h264bsd_intra_prediction.o
                0x0000000000055fe1                get_h264bsdClip
                0x0000000000055ff2                h264bsdIntraPrediction
                0x0000000000056185                h264bsdGetNeighbourPels
                0x00000000000563e8                h264bsdIntra16x16Prediction
                0x00000000000565ed                h264bsdIntra4x4Prediction
                0x0000000000056aef                h264bsdIntraChromaPrediction
                0x0000000000056d32                h264bsdAddResidual
 .text          0x0000000000059c6a     0x1318 /home/wh/.HoneyGUI-SDK/realgui/3rd/h264bsd/src/h264bsd_macroblock_layer.o
                0x0000000000059c6a                h264bsdDecodeMacroblockLayer
                0x0000000000059f68                h264bsdMbPartPredMode
                0x0000000000059f94                h264bsdNumMbPart
                0x0000000000059fc7                h264bsdNumSubMbPart
                0x000000000005aa0a                h264bsdPredModeIntra16x16
                0x000000000005aa26                h264bsdDecodeMacroblock
                0x000000000005af72                h264bsdSubMbPartMode
 .text          0x000000000005af82       0xe7 /home/wh/.HoneyGUI-SDK/realgui/3rd/h264bsd/src/h264bsd_nal_unit.o
                0x000000000005af82                h264bsdDecodeNalUnit
 .text          0x000000000005b069      0x2e8 /home/wh/.HoneyGUI-SDK/realgui/3rd/h264bsd/src/h264bsd_neighbour.o
                0x000000000005b069                h264bsdInitMbNeighbours
                0x000000000005b224                h264bsdGetNeighbourMb
                0x000000000005b292                h264bsdNeighbour4x4BlockA
                0x000000000005b2b4                h264bsdNeighbour4x4BlockB
                0x000000000005b2d6                h264bsdNeighbour4x4BlockC
                0x000000000005b2f8                h264bsdNeighbour4x4BlockD
                0x000000000005b31a                h264bsdIsNeighbourAvailable
 .text          0x000000000005b351      0x47f /home/wh/.HoneyGUI-SDK/realgui/3rd/h264bsd/src/h264bsd_pic_order_cnt.o
                0x000000000005b351                h264bsdDecodePicOrderCnt
 .text          0x000000000005b7d0      0x737 /home/wh/.HoneyGUI-SDK/realgui/3rd/h264bsd/src/h264bsd_pic_param_set.o
                0x000000000005b7d0                h264bsdDecodePicParamSet
 .text          0x000000000005bf07     0x5c6a /home/wh/.HoneyGUI-SDK/realgui/3rd/h264bsd/src/h264bsd_reconstruct.o
                0x000000000005bf07                h264bsdInterpolateChromaHor
                0x000000000005c349                h264bsdInterpolateChromaVer
                0x000000000005c796                h264bsdInterpolateChromaHorVer
                0x000000000005cf3a                h264bsdInterpolateVerHalf
                0x000000000005d4e6                h264bsdInterpolateVerQuarter
                0x000000000005db8d                h264bsdInterpolateHorHalf
                0x000000000005e13f                h264bsdInterpolateHorQuarter
                0x000000000005e795                h264bsdInterpolateHorVerQuarter
                0x000000000005f2a1                h264bsdInterpolateMidHalf
                0x000000000005fc41                h264bsdInterpolateMidVerQuarter
                0x0000000000060784                h264bsdInterpolateMidHorQuarter
                0x00000000000612d3                h264bsdPredictSamples
                0x000000000006180f                h264bsdFillRow7
                0x00000000000618b7                h264bsdFillBlock
 .text          0x0000000000061b71     0x1f5d /home/wh/.HoneyGUI-SDK/realgui/3rd/h264bsd/src/h264bsd_sei.o
                0x0000000000061b71                h264bsdDecodeSeiMessage
 .text          0x0000000000063ace      0xb72 /home/wh/.HoneyGUI-SDK/realgui/3rd/h264bsd/src/h264bsd_seq_param_set.o
                0x0000000000063ace                h264bsdDecodeSeqParamSet
                0x0000000000064415                h264bsdCompareSeqParamSets
 .text          0x0000000000064640      0x631 /home/wh/.HoneyGUI-SDK/realgui/3rd/h264bsd/src/h264bsd_slice_data.o
                0x0000000000064640                h264bsdDecodeSliceData
                0x0000000000064b42                h264bsdMarkSliceCorrupted
 .text          0x0000000000064c71      0x7ad /home/wh/.HoneyGUI-SDK/realgui/3rd/h264bsd/src/h264bsd_slice_group_map.o
                0x0000000000065216                h264bsdDecodeSliceGroupMap
 .text          0x000000000006541e     0x1a1a /home/wh/.HoneyGUI-SDK/realgui/3rd/h264bsd/src/h264bsd_slice_header.o
                0x000000000006541e                h264bsdDecodeSliceHeader
                0x000000000006615f                h264bsdCheckPpsId
                0x000000000006623d                h264bsdCheckFrameNum
                0x0000000000066352                h264bsdCheckIdrPicId
                0x0000000000066495                h264bsdCheckPicOrderCntLsb
                0x0000000000066625                h264bsdCheckDeltaPicOrderCntBottom
                0x00000000000667d0                h264bsdCheckDeltaPicOrderCnt
                0x0000000000066960                h264bsdCheckRedundantPicCnt
                0x0000000000066bb3                h264bsdCheckPriorPicsFlag
 .text          0x0000000000066e38     0x1369 /home/wh/.HoneyGUI-SDK/realgui/3rd/h264bsd/src/h264bsd_storage.o
                0x0000000000066e38                h264bsdInitStorage
                0x0000000000066e85                h264bsdStoreSeqParamSet
                0x000000000006715d                h264bsdStorePicParamSet
                0x00000000000674cc                h264bsdActivateParamSets
                0x0000000000067963                h264bsdResetStorage
                0x00000000000679e6                h264bsdIsStartOfPicture
                0x0000000000067a0e                h264bsdIsEndOfPicture
                0x0000000000067ab5                h264bsdComputeSliceGroupMap
                0x0000000000067b02                h264bsdCheckAccessUnitBoundary
                0x00000000000680ef                h264bsdValidParamSets
 .text          0x00000000000681a1      0x23b /home/wh/.HoneyGUI-SDK/realgui/3rd/h264bsd/src/h264bsd_stream.o
                0x00000000000681a1                h264bsdGetBits
                0x00000000000681f4                h264bsdShowBits32
                0x0000000000068341                h264bsdFlushBits
                0x00000000000683b7                h264bsdIsByteAligned
 .text          0x00000000000683dc      0xe00 /home/wh/.HoneyGUI-SDK/realgui/3rd/h264bsd/src/h264bsd_transform.o
                0x00000000000683dc                h264bsdProcessBlock
                0x0000000000068b8a                h264bsdProcessLumaDc
                0x0000000000068faa                h264bsdProcessChromaDc
 .text          0x00000000000691dc      0x26c /home/wh/.HoneyGUI-SDK/realgui/3rd/h264bsd/src/h264bsd_util.o
                0x00000000000691dc                h264bsdCountLeadingZeros
                0x0000000000069223                h264bsdRbspTrailingBits
                0x0000000000069292                h264bsdMoreRbspData
                0x0000000000069315                h264bsdNextMbAddress
                0x0000000000069382                h264bsdSetCurrImageMbPointers
 .text          0x0000000000069448      0x406 /home/wh/.HoneyGUI-SDK/realgui/3rd/h264bsd/src/h264bsd_vlc.o
                0x0000000000069448                h264bsdDecodeExpGolombUnsigned
                0x0000000000069678                h264bsdDecodeExpGolombSigned
                0x000000000006972e                h264bsdDecodeExpGolombMapped
                0x00000000000697db                h264bsdDecodeExpGolombTruncated
 .text          0x000000000006984e      0xc89 /home/wh/.HoneyGUI-SDK/realgui/3rd/h264bsd/src/h264bsd_vui.o
                0x000000000006984e                h264bsdDecodeVuiParameters
 .text          0x000000000006a4d7      0x132 /home/wh/.HoneyGUI-SDK/realgui/3rd/h264bsd/port/h264bsd_port.o
                0x000000000006a4d7                h264bsd_port_malloc
                0x000000000006a4f5                h264bsd_port_realloc
                0x000000000006a51e                h264bsd_port_free
                0x000000000006a53d                h264bsd_realloc
                0x000000000006a566                h264bsd_malloc
                0x000000000006a584                h264bsd_free
                0x000000000006a5a3                h264bsd_lower_realloc
                0x000000000006a5cc                h264bsd_lower_malloc
                0x000000000006a5ea                h264bsd_lower_free
 .text          0x000000000006a609     0x1fc3 /home/wh/.HoneyGUI-SDK/realgui/3rd/tjpgd/tjpgd.o
                0x000000000006bc36                jd_prepare
                0x000000000006c453                jd_decomp
 .text          0x000000000006c5cc     0x5404 /home/wh/.HoneyGUI-SDK/realgui/3rd/ezXML/ezxml.o
                0x000000000006c68f                __isspace_ascii
                0x000000000006c6b9                ezxml_child
                0x000000000006c71c                ezxml_idx
                0x000000000006c750                ezxml_attr
                0x000000000006c991                ezxml_vget
                0x000000000006ca98                ezxml_get
                0x000000000006cb74                ezxml_pi
                0x000000000006cc60                ezxml_err
                0x000000000006cdc5                ezxml_decode
                0x000000000006d3e2                ezxml_open_tag
                0x000000000006d464                ezxml_char_content
                0x000000000006d602                ezxml_close_tag
                0x000000000006d695                ezxml_ent_ok
                0x000000000006d7ed                ezxml_proc_inst
                0x000000000006dc6d                ezxml_internal_dtd
                0x000000000006e730                ezxml_str2utf8
                0x000000000006ea86                ezxml_free_attr
                0x000000000006ebb0                ezxml_parse_str
                0x000000000006f95a                ezxml_parse_fp
                0x000000000006fa2f                ezxml_parse_fd
                0x000000000006fada                ezxml_parse_file
                0x000000000006fb3f                ezxml_ampencode
                0x000000000006fe34                ezxml_toxml_r
                0x00000000000705c9                ezxml_toxml
                0x0000000000070aca                ezxml_free
                0x0000000000070e52                ezxml_error
                0x0000000000070e9c                ezxml_new
                0x0000000000070f6f                ezxml_insert
                0x00000000000711a0                ezxml_add_child
                0x0000000000071234                ezxml_set_txt
                0x000000000007129d                ezxml_set_attr
                0x00000000000717c4                ezxml_set_flag
                0x00000000000717f9                ezxml_cut
 .text          0x00000000000719d0    0x1332a /home/wh/.HoneyGUI-SDK/realgui/3rd/stb/stb_image.o
                0x0000000000071c59                stbi_failure_reason
                0x0000000000071f3e                stbi_image_free
                0x0000000000071f5d                stbi_set_flip_vertically_on_load
                0x0000000000072625                stbi_load
                0x00000000000726b0                stbi_load_from_file
                0x000000000007278c                stbi_load_from_file_16
                0x0000000000072868                stbi_load_16
                0x00000000000728f3                stbi_load_16_from_memory
                0x000000000007299c                stbi_load_16_from_callbacks
                0x0000000000072a47                stbi_load_from_memory
                0x0000000000072af0                stbi_load_from_callbacks
                0x0000000000072b9b                stbi_is_hdr_from_memory
                0x0000000000072bb1                stbi_is_hdr
                0x0000000000072c09                stbi_is_hdr_from_file
                0x0000000000072c1c                stbi_is_hdr_from_callbacks
                0x0000000000072c33                stbi_hdr_to_ldr_gamma(float)
                0x0000000000072c58                stbi_hdr_to_ldr_scale(float)
                0x0000000000081609                stbi_zlib_decode_malloc_guesssize
                0x0000000000081726                stbi_zlib_decode_malloc
                0x000000000008175a                stbi_zlib_decode_malloc_guesssize_headerflag
                0x0000000000081881                stbi_zlib_decode_buffer
                0x0000000000081948                stbi_zlib_decode_noheader_malloc
                0x0000000000081a58                stbi_zlib_decode_noheader_buffer
                0x00000000000831f1                stbi_set_unpremultiply_on_load
                0x0000000000083208                stbi_convert_iphone_png_to_rgb
                0x00000000000847e9                stbi_info
                0x0000000000084863                stbi_info_from_file
                0x0000000000084930                stbi_is_16_bit
                0x0000000000084992                stbi_is_16_bit_from_file
                0x0000000000084a35                stbi_info_from_memory
                0x0000000000084ace                stbi_info_from_callbacks
                0x0000000000084b69                stbi_is_16_bit_from_memory
                0x0000000000084bd8                stbi_is_16_bit_from_callbacks
                0x0000000000084c49                lottie_image_load
                0x0000000000084c89                lottie_image_load_from_data
                0x0000000000084cdb                lottie_image_free
 .text          0x0000000000084cfa     0x1872 /home/wh/.HoneyGUI-SDK/realgui/widget/gui_view/gui_view.o
                0x0000000000085e42                gui_view_create
                0x0000000000086117                gui_view_switch_on_event
                0x0000000000086488                gui_view_switch_direct
                0x00000000000864ed                gui_view_set_animate_step
                0x000000000008652b                gui_view_get_current
                0x000000000008653c                gui_view_get_next
                0x000000000008654d                gui_view_set_opacity
 .text          0x000000000008656c     0x118e /home/wh/.HoneyGUI-SDK/realgui/widget/gui_view/gui_view_animate.o
                0x00000000000876cf                view_transition_animation
 .text          0x00000000000876fa      0x554 /home/wh/.HoneyGUI-SDK/realgui/widget/gui_view/gui_view_blur.o
                0x0000000000087846                gui_view_blur
 .text          0x0000000000087c4e      0x7bd /home/wh/.HoneyGUI-SDK/realgui/widget/gui_view/gui_view_cube.o
                0x0000000000087c4e                gui_view_cube
 .text          0x000000000008840b      0x1b2 /home/wh/.HoneyGUI-SDK/realgui/widget/gui_view/gui_view_descriptor.o
                0x000000000008840b                gui_view_descriptor_register
                0x0000000000088475                gui_view_descriptor_get
 .text          0x00000000000885bd      0x2ae /home/wh/.HoneyGUI-SDK/realgui/widget/gui_view/gui_view_reduction.o
                0x00000000000885bd                gui_view_reduction
 .text          0x000000000008886b      0x71e /home/wh/.HoneyGUI-SDK/realgui/widget/gui_view/gui_view_rotate.o
                0x000000000008886b                gui_view_rotate
 .text          0x0000000000088f89      0x445 /home/wh/.HoneyGUI-SDK/realgui/widget/gui_view/gui_view_translation.o
                0x0000000000088f89                gui_view_translation
 .text          0x00000000000893ce     0x11c0 /home/wh/.HoneyGUI-SDK/realgui/widget/gui_text/gui_scroll_text.o
                0x000000000008a1ba                gui_scroll_text_skip_frame_set
                0x000000000008a1d4                gui_scroll_text_set
                0x000000000008a231                gui_scroll_text_type_set
                0x000000000008a261                gui_scroll_text_content_set
                0x000000000008a2a1                gui_scroll_text_reset
                0x000000000008a30c                gui_scroll_text_stop
                0x000000000008a340                gui_scroll_text_pause
                0x000000000008a363                gui_scroll_text_start
                0x000000000008a382                gui_scroll_text_resume
                0x000000000008a3cf                gui_scroll_text_encoding_set
                0x000000000008a3ee                gui_scroll_text_scroll_set
                0x000000000008a44f                gui_scroll_text_create
 .text          0x000000000008a58e     0x1539 /home/wh/.HoneyGUI-SDK/realgui/widget/gui_text/gui_text.o
                0x000000000008af46                gui_text_ctor
                0x000000000008b29c                gui_text_click
                0x000000000008b2d5                gui_text_pswd_done
                0x000000000008b30e                gui_text_set
                0x000000000008b376                gui_text_mode_set
                0x000000000008b3a9                gui_text_input_set
                0x000000000008b3e1                gui_text_color_set
                0x000000000008b3fd                gui_text_wordwrap_set
                0x000000000008b433                gui_text_extra_letter_spacing_set
                0x000000000008b455                gui_text_extra_line_spacing_set
                0x000000000008b477                gui_text_use_matrix_by_img
                0x000000000008b4af                gui_text_rendermode_set
                0x000000000008b546                gui_text_set_min_scale
                0x000000000008b56b                gui_text_move
                0x000000000008b5b4                gui_text_size_set
                0x000000000008b605                gui_text_font_mode_set
                0x000000000008b624                gui_text_type_set
                0x000000000008b66c                gui_text_emoji_set
                0x000000000008b6a1                gui_text_encoding_set
                0x000000000008b6c0                gui_text_set_matrix
                0x000000000008b71b                gui_text_content_set
                0x000000000008b7e0                gui_text_convert_to_img
                0x000000000008b998                gui_text_create
 .text          0x000000000008bac7     0x1193 /home/wh/.HoneyGUI-SDK/realgui/widget/gui_lite_geometry/gui_lite_geometry_arc.o
                0x000000000008c765                gui_lite_arc_create
                0x000000000008c972                gui_lite_arc_set_style
                0x000000000008ca3f                gui_lite_arc_set_position
                0x000000000008ca97                gui_lite_arc_set_radius
                0x000000000008cadf                gui_lite_arc_set_color
                0x000000000008cb39                gui_lite_arc_set_start_angle
                0x000000000008cb87                gui_lite_arc_set_end_angle
                0x000000000008cbd5                gui_lite_arc_set_line_width
                0x000000000008cc23                gui_lite_arc_on_click
 .text          0x000000000008cc5a     0x1110 /home/wh/.HoneyGUI-SDK/realgui/widget/gui_lite_geometry/gui_lite_geometry_circle.o
                0x000000000008da11                gui_lite_circle_create
                0x000000000008dbae                gui_lite_circle_set_style
                0x000000000008dc39                gui_lite_circle_set_position
                0x000000000008dc91                gui_lite_circle_set_radius
                0x000000000008dcd9                gui_lite_circle_set_color
                0x000000000008dd33                gui_lite_circle_on_click
 .text          0x000000000008dd6a     0x15c9 /home/wh/.HoneyGUI-SDK/realgui/widget/gui_lite_geometry/gui_lite_geometry_round_rect.o
                0x000000000008ef15                gui_lite_round_rect_create
                0x000000000008f109                gui_lite_round_rect_set_style
                0x000000000008f1ae                gui_lite_round_rect_set_position
                0x000000000008f206                gui_lite_round_rect_set_size
                0x000000000008f25e                gui_lite_round_rect_set_radius
                0x000000000008f2a6                gui_lite_round_rect_set_color
                0x000000000008f2fc                gui_lite_round_rect_on_click
 .text          0x000000000008f333     0x56f5 /home/wh/.HoneyGUI-SDK/realgui/widget/gui_lite_geometry/lite_geometry.o
                0x000000000008f428                RGB565_color
                0x000000000008f46b                RGBA_color
                0x000000000008f4a8                create_color_by_format
                0x000000000008f545                add_pixel_to_context
                0x000000000008f580                add_pixel_aa
                0x000000000008f85a                add_pixel_with_coverage_rgb565
                0x000000000008f921                add_pixel_with_coverage_argb8888
                0x000000000008f9fa                blend_colors_rgb565
                0x000000000008fa85                blend_colors_argb8888
                0x000000000008fe58                init_draw_context
                0x00000000000903fd                fill_rect
                0x0000000000090638                fill_rounded_rect_no_aa
                0x0000000000090d2a                fill_rounded_rect
                0x0000000000090de6                fill_circle
                0x00000000000910c0                fill_rounded_rect_df_aa
                0x000000000009179a                fill_circle_df_aa
                0x0000000000091b98                fill_circle_no_aa
                0x0000000000091e4b                check_degree_arc_range
                0x0000000000091ecd                lg_draw_arc_get_area
                0x0000000000092639                is_in_angle_range_quadrant
                0x00000000000934c4                draw_arc_df_aa
                0x0000000000093b44                draw_arc
                0x0000000000094080                calculate_coverage
                0x00000000000941ed                draw_arc_as_ring
                0x0000000000094529                draw_symmetric_pixels
 .text          0x0000000000094a28      0x5eb /home/wh/.HoneyGUI-SDK/realgui/widget/gui_lite_geometry/lite_geometry_math.o
                0x0000000000094a28                lg_trigo_sin
                0x0000000000094b56                lg_trigo_cos
                0x0000000000094b79                lg_sqrt
                0x0000000000094bde                lg_sqrt32
                0x0000000000094e67                lg_atan2
                0x0000000000094fc5                lg_pow
 .text          0x0000000000095013     0x3261 /home/wh/.HoneyGUI-SDK/realgui/widget/gui_list/gui_list.o
                0x0000000000097bf2                gui_list_create
                0x0000000000097e92                gui_list_set_note_num
                0x0000000000097ff0                gui_list_set_style
                0x000000000009801e                gui_list_set_out_scope
                0x0000000000098042                gui_list_set_factor
                0x0000000000098067                gui_list_set_auto_align
                0x0000000000098097                gui_list_set_inertia
                0x00000000000980c7                gui_list_set_offset
                0x00000000000981a6                gui_list_set_bar_color
                0x00000000000981c5                gui_list_set_card_stack_location
                0x00000000000981e9                gui_list_enable_loop
 .text          0x0000000000098274      0x501 /home/wh/.HoneyGUI-SDK/realgui/widget/gui_list/gui_list_rotate_curl.o
                0x0000000000098274                gui_list_rotate_curl
 .text          0x0000000000098775      0x517 /home/wh/.HoneyGUI-SDK/realgui/widget/gui_list/gui_list_rotate_helix.o
                0x0000000000098775                gui_list_rotate_helix
 .text          0x0000000000098c8c     0x27ba /home/wh/.HoneyGUI-SDK/realgui/widget/gui_qbcode/gui_barcode_gen.o
                0x0000000000098c8c                gui_barcode_gen_ctoi
                0x0000000000098cdf                gui_barcode_gen_expand
                0x0000000000098e98                gui_barcode_gen_hrt_cpy_iso8859_1
                0x000000000009909a                gui_barcode_gen_c128_parunmodd
                0x00000000000996fc                gui_barcode_gen_c128_dxsmooth
                0x000000000009983b                gui_barcode_gen_c128_set_a
                0x00000000000998ff                gui_barcode_gen_c128_set_b
                0x0000000000099993                gui_barcode_gen_c128_set_c
                0x0000000000099a12                c128_put_in_set
                0x000000000009ac6e                gui_barcode_gen_barcode_encode
 .text          0x000000000009b446     0x1387 /home/wh/.HoneyGUI-SDK/realgui/widget/gui_qbcode/gui_qbcode.o
                0x000000000009be1c                gui_qbcode_ctor
                0x000000000009c1f8                gui_qbcode_config
                0x000000000009c684                gui_qbcode_create
 .text          0x000000000009c7cd     0x2dbd /home/wh/.HoneyGUI-SDK/realgui/widget/gui_qbcode/gui_qrcode_gen.o
                0x000000000009c7cd                gui_qrcode_gen_encode_text
                0x000000000009ca29                gui_qrcode_gen_encode_binary
                0x000000000009cb7c                gui_qrcode_gen_encode_segments
                0x000000000009cbd1                gui_qrcode_gen_encode_segments_advanced
                0x000000000009e8e8                gui_qrcode_gen_get_size
                0x000000000009e92f                gui_qrcode_gen_get_module
                0x000000000009eb39                gui_qrcode_gen_is_numeric
                0x000000000009eb7b                gui_qrcode_gen_is_alphanumeric
                0x000000000009ebcb                gui_qrcode_gen_calc_segment_buffer_size
                0x000000000009ed09                gui_qrcode_gen_make_bytes
                0x000000000009ed8e                gui_qrcode_gen_make_numeric
                0x000000000009eef1                gui_qrcode_gen_make_alphanumeric
                0x000000000009f061                gui_qrcode_gen_make_eci
                0x000000000009f458                gui_qrcode_gen_get_data
 .text          0x000000000009f58a     0x10a2 /home/wh/.HoneyGUI-SDK/realgui/widget/gui_menu_cellular/gui_menu_cellular.o
                0x00000000000a011a                gui_menu_cellular_create
                0x00000000000a04df                gui_menu_cellular_offset
                0x00000000000a053e                gui_menu_cellular_on_click
 .text          0x00000000000a062c      0x71a /home/wh/.HoneyGUI-SDK/realgui/widget/gui_gray/gui_gray.o
                0x00000000000a0b18                gui_gray_create
                0x00000000000a0c56                gui_gray_set_attribute
                0x00000000000a0cfb                gui_gray_set_level
 .text          0x00000000000a0d46     0x1380 /home/wh/.HoneyGUI-SDK/realgui/widget/gui_obj/gui_obj.o
                0x00000000000a0e51                gui_obj_get_root
                0x00000000000a0e62                gui_obj_get_fake_root
                0x00000000000a0e73                gui_obj_ctor
                0x00000000000a0f88                gui_obj_create
                0x00000000000a105b                gui_obj_checksum
                0x00000000000a10ab                gui_obj_show
                0x00000000000a10e5                gui_obj_out_screen
                0x00000000000a12ff                gui_obj_get_clip_rect
                0x00000000000a184d                gui_obj_get_area
                0x00000000000a1b18                gui_obj_in_rect
                0x00000000000a1be1                gui_obj_point_in_obj_rect
                0x00000000000a1c8f                gui_obj_point_in_obj_circle
                0x00000000000a1dc5                gui_obj_absolute_xy
                0x00000000000a1ef0                gui_get_root
                0x00000000000a1f37                gui_obj_hidden
                0x00000000000a1f96                gui_widget_name
                0x00000000000a2000                gui_set_location
                0x00000000000a2066                gui_obj_move
 .text          0x00000000000a20c6      0x9b3 /home/wh/.HoneyGUI-SDK/realgui/widget/gui_obj/gui_obj_event.o
                0x00000000000a238f                gui_obj_add_event_cb
                0x00000000000a247e                gui_obj_enable_event
                0x00000000000a29dd                gui_obj_event_dispatch
 .text          0x00000000000a2a79      0x36f /home/wh/.HoneyGUI-SDK/realgui/widget/gui_obj/gui_obj_suppress.o
                0x00000000000a2bd9                gui_obj_suppress_set
                0x00000000000a2d09                gui_obj_event_is_suppressed
 .text          0x00000000000a2de8      0x234 /home/wh/.HoneyGUI-SDK/realgui/widget/gui_obj/gui_obj_timer.o
                0x00000000000a2de8                gui_obj_create_timer
                0x00000000000a2e97                gui_obj_delete_timer
                0x00000000000a2ed3                gui_obj_start_timer
                0x00000000000a2f2f                gui_obj_stop_timer
                0x00000000000a2f7c                gui_obj_timer_handler
 .text          0x00000000000a301c      0xe6a /home/wh/.HoneyGUI-SDK/realgui/widget/gui_obj/gui_obj_tree.o
                0x00000000000a3471                gui_obj_child_free
                0x00000000000a34a0                gui_obj_tree_free
                0x00000000000a361c                gui_obj_tree_free_async
                0x00000000000a368f                gui_obj_tree_show
                0x00000000000a36d8                gui_obj_tree_get_root
                0x00000000000a3731                gui_obj_get_child_handle
                0x00000000000a37be                gui_obj_tree_print
                0x00000000000a38c0                gui_obj_tree_count_by_type
                0x00000000000a39c4                gui_obj_tree_print_mmd
                0x00000000000a39d3                gui_obj_tree_get_widget_by_name
                0x00000000000a3b39                gui_obj_tree_get_widget_by_type
                0x00000000000a3c33                gui_obj_tree_get_widget_by_type_and_index
                0x00000000000a3ca5                gui_obj_tree_print_bfs
 .text          0x00000000000a3e86     0x2ff4 /home/wh/.HoneyGUI-SDK/realgui/widget/gui_soccer/gui_soccer.o
                0x00000000000a434a                quat_identity
                0x00000000000a43d2                quaternion_multiply
                0x00000000000a455d                quaternion_from_angle_axis
                0x00000000000a460e                quaternion_to_matrix
                0x00000000000a695d                gui_soccer_create
                0x00000000000a6a83                gui_soccer_create_ftl
                0x00000000000a6ba9                gui_soccer_get_mode
                0x00000000000a6bf1                gui_soccer_set_mode
                0x00000000000a6c7a                gui_soccer_get_opacity
                0x00000000000a6cbc                gui_soccer_set_opacity
                0x00000000000a6d35                gui_soccer_set_img
                0x00000000000a6dbe                gui_soccer_set_center
                0x00000000000a6df9                gui_soccer_set_size
                0x00000000000a6e1e                gui_soccer_set_slide_range
                0x00000000000a6e43                gui_soccer_on_click
 .text          0x00000000000a6e7a     0x2146 /home/wh/.HoneyGUI-SDK/realgui/widget/gui_glass/gui_glass.o
                0x00000000000a7220                gui_put_glass_on_bg
                0x00000000000a8450                gui_glass_enable_pressing_envent
                0x00000000000a84c2                gui_glass_enable_click_event
                0x00000000000a86b1                gui_glass_create_from_mem
                0x00000000000a87e6                gui_glass_create_from_ftl
                0x00000000000a891b                gui_glass_create_from_fs
                0x00000000000a8a50                gui_glass_get_width
                0x00000000000a8b72                gui_glass_get_height
                0x00000000000a8c94                gui_glass_refresh_size
                0x00000000000a8cd3                gui_glass_refresh_draw_data
                0x00000000000a8d55                gui_glass_set_attribute
                0x00000000000a8dfd                gui_glass_set_image_data
                0x00000000000a8e72                gui_glass_get_image_data
                0x00000000000a8eb9                gui_glass_translate
                0x00000000000a8f26                gui_glass_get_t_x
                0x00000000000a8f73                gui_glass_get_t_y
 .text          0x00000000000a8fc0     0x1a94 /home/wh/.HoneyGUI-SDK/realgui/widget/gui_img/gui_img.o
                0x00000000000a9d47                gui_img_create_from_mem
                0x00000000000a9e7c                gui_img_create_from_ftl
                0x00000000000a9fb1                gui_img_create_from_fs
                0x00000000000aa0e6                gui_img_get_width
                0x00000000000aa208                gui_img_get_height
                0x00000000000aa32a                gui_img_refresh_size
                0x00000000000aa369                gui_img_refresh_draw_data
                0x00000000000aa3eb                gui_img_set_mode
                0x00000000000aa447                gui_img_set_quality
                0x00000000000aa4a3                gui_img_set_attribute
                0x00000000000aa54b                gui_img_set_image_data
                0x00000000000aa5c0                gui_img_get_image_data
                0x00000000000aa607                gui_img_set_opacity
                0x00000000000aa629                gui_img_set_focus
                0x00000000000aa692                gui_img_rotation
                0x00000000000aa6e2                gui_img_scale
                0x00000000000aa748                gui_img_translate
                0x00000000000aa7b1                gui_img_get_scale_x
                0x00000000000aa7f6                gui_img_get_scale_y
                0x00000000000aa83e                gui_img_get_degrees
                0x00000000000aa883                gui_img_get_c_x
                0x00000000000aa8cb                gui_img_get_c_y
                0x00000000000aa913                gui_img_get_t_x
                0x00000000000aa95b                gui_img_get_t_y
                0x00000000000aa9a3                gui_img_skew_x
                0x00000000000aa9b7                gui_img_skew_y
                0x00000000000aa9cb                gui_img_a8_recolor
                0x00000000000aa9ff                gui_img_a8_fix_bg
                0x00000000000aaa33                gui_img_a8_mix_alpha
 .text          0x00000000000aaa54      0x544 /home/wh/.HoneyGUI-SDK/realgui/widget/gui_img/gui_img_api.o
                0x00000000000aaddd                gui_img_tree_convert_to_img
 .text          0x00000000000aaf98     0x2ce2 /home/wh/.HoneyGUI-SDK/realgui/widget/gui_video/gui_video.o
                0x00000000000ad5da                gui_video_set_frame_rate
                0x00000000000ad663                gui_video_get_frame_time
                0x00000000000ad689                gui_video_set_scale
                0x00000000000ad6ce                gui_video_set_state
                0x00000000000ad738                gui_video_set_repeat_count
                0x00000000000ad760                gui_video_get_state
                0x00000000000ad78a                gui_video_set_frame_step
                0x00000000000ad7b2                gui_video_get_frame_step
                0x00000000000ad7d8                gui_video_refresh_size
                0x00000000000ad8ab                gui_video_refresh_type
                0x00000000000ad953                gui_video_create_from_ftl
                0x00000000000ada60                gui_video_create_from_fs
                0x00000000000adb6d                gui_video_create_from_mem
 .text          0x00000000000adc7a      0xb3d /home/wh/.HoneyGUI-SDK/realgui/widget/gui_win/gui_win.o
                0x00000000000ae149                gui_win_ctor
                0x00000000000ae1f5                gui_win_left
                0x00000000000ae22e                gui_win_right
                0x00000000000ae267                gui_win_up
                0x00000000000ae2a0                gui_win_down
                0x00000000000ae2d9                gui_win_press
                0x00000000000ae310                gui_win_release
                0x00000000000ae347                gui_win_long
                0x00000000000ae37e                gui_win_click
                0x00000000000ae3b5                gui_win_hold_tp
                0x00000000000ae3d7                gui_win_create
                0x00000000000ae4aa                gui_win_set_scale_rate
                0x00000000000ae4ff                gui_win_set_scope
                0x00000000000ae541                gui_win_move
                0x00000000000ae5c3                gui_win_get_x
                0x00000000000ae608                gui_win_get_y
                0x00000000000ae64d                gui_win_set_opacity
                0x00000000000ae68c                gui_win_prepare_global
                0x00000000000ae6ab                gui_win_prepare
                0x00000000000ae6ca                gui_win_compensate
                0x00000000000ae723                gui_win_enable_blur
                0x00000000000ae775                gui_win_set_blur_degree
 .text          0x00000000000ae7b7      0x852 /home/wh/.HoneyGUI-SDK/realgui/widget/gui_canvas/gui_canvas.o
                0x00000000000aeca6                gui_canvas_set_canvas_cb
                0x00000000000aecc5                gui_canvas_create
                0x00000000000aee03                gui_canvas_render_to_image_buffer
 .text          0x00000000000af009     0x3d82 /home/wh/.HoneyGUI-SDK/realgui/widget/gui_canvas/gui_canvas_arc.o
                0x00000000000b2889                gui_canvas_arc_create
                0x00000000000b2ae4                gui_canvas_arc_create_ftl
                0x00000000000b2d3f                gui_canvas_arc_set_cap
                0x00000000000b2d5e                gui_canvas_arc_set_external_picture
 .text          0x00000000000b2d8b      0x9ce /home/wh/.HoneyGUI-SDK/realgui/widget/gui_canvas/gui_canvas_img.o
                0x00000000000b3594                gui_canvas_img_set_canvas_cb
                0x00000000000b35b3                gui_canvas_img_set_update_cb
                0x00000000000b35d5                gui_canvas_img_create
                0x00000000000b3713                gui_canvas_img_set_TransColor
 .text          0x00000000000b3759      0x736 /home/wh/.HoneyGUI-SDK/realgui/widget/gui_canvas/gui_canvas_rect.o
                0x00000000000b3b84                gui_canvas_rect_create
                0x00000000000b3d15                gui_canvas_rect_set_tp_block
                0x00000000000b3d42                gui_canvas_rect_set_opacity
                0x00000000000b3d8a                gui_canvas_rect_set_color
                0x00000000000b3dcf                gui_canvas_rect_set_location
                0x00000000000b3e2f                gui_canvas_rect_set_size
 .text          0x00000000000b3e8f     0x2496 /home/wh/.HoneyGUI-SDK/realgui/widget/gui_canvas/gui_canvas_round_rect.o
                0x00000000000b5f1c                gui_canvas_round_rect_create
                0x00000000000b6094                gui_canvas_round_rect_create_ftl
                0x00000000000b620c                gui_canvas_round_rect_set_external_picture
                0x00000000000b6239                gui_canvas_round_rect_set_opacity
                0x00000000000b627d                gui_canvas_round_rect_set_color
                0x00000000000b62c5                gui_canvas_round_rect_set_location
 .text          0x00000000000b6325     0xe07f /home/wh/.HoneyGUI-SDK/realgui/engine/acc_api.o
                0x00000000000b6325                gui_acc_blit_to_dc
                0x00000000000b6609                gui_stbi_failure_reason
                0x00000000000b68dc                gui_stbi_image_free
                0x00000000000b68fb                gui_stbi_set_flip_vertically_on_load
                0x00000000000b6f82                gui_stbi_load
                0x00000000000b700d                gui_stbi_load_from_file
                0x00000000000b70e9                gui_stbi_load_from_file_16
                0x00000000000b71c5                gui_stbi_load_16
                0x00000000000b7250                gui_stbi_load_16_from_memory
                0x00000000000b72f9                gui_stbi_load_16_from_callbacks
                0x00000000000b73a4                gui_stbi_load_from_memory
                0x00000000000b744d                gui_stbi_load_from_callbacks
                0x00000000000b74f8                gui_stbi_is_hdr_from_memory
                0x00000000000b750e                gui_stbi_is_hdr
                0x00000000000b7566                gui_stbi_is_hdr_from_file
                0x00000000000b7579                gui_stbi_is_hdr_from_callbacks
                0x00000000000b7590                gui_stbi_hdr_to_ldr_gamma
                0x00000000000b75b5                gui_stbi_hdr_to_ldr_scale
                0x00000000000c3df7                gui_stbi_info
                0x00000000000c3e71                gui_stbi_info_from_file
                0x00000000000c3f3e                gui_stbi_is_16_bit
                0x00000000000c3fa0                gui_stbi_is_16_bit_from_file
                0x00000000000c4043                gui_stbi_info_from_memory
                0x00000000000c40dc                gui_stbi_info_from_callbacks
                0x00000000000c4177                gui_stbi_is_16_bit_from_memory
                0x00000000000c41e6                gui_stbi_is_16_bit_from_callbacks
                0x00000000000c4257                gui_acc_jpeg_load
                0x00000000000c435c                gui_acc_jpeg_free
 .text          0x00000000000c43a4     0x22e3 /home/wh/.HoneyGUI-SDK/realgui/engine/draw_font.o
                0x00000000000c5297                get_thai_mark_pos
                0x00000000000c54af                process_content_by_charset
                0x00000000000c57ec                generate_emoji_file_path_from_unicode
                0x00000000000c594c                content_has_ap_unicode
                0x00000000000c59a1                content_has_ap
                0x00000000000c5a35                process_ap_unicode
                0x00000000000c5e55                content_has_thai_unicode
                0x00000000000c5eaa                content_has_thai
                0x00000000000c5f3e                get_thai_mark_char_width
                0x00000000000c5fc8                process_thai_char_struct
                0x00000000000c6332                post_process_thai_char_struct
                0x00000000000c659e                content_has_hebrew_unicode
                0x00000000000c65f3                content_has_hebrew
 .text          0x00000000000c6687      0xb6c /home/wh/.HoneyGUI-SDK/realgui/engine/draw_img.o
                0x00000000000c6687                draw_img_target_area
                0x00000000000c67a5                draw_img_get_header
                0x00000000000c688c                draw_img_load_scale
                0x00000000000c68da                draw_img_get_pixel_byte
                0x00000000000c694d                draw_img_new_area
                0x00000000000c6df1                draw_img_cache
                0x00000000000c7139                draw_img_free
 .text          0x00000000000c71f3      0x496 /home/wh/.HoneyGUI-SDK/realgui/engine/engine_gray.o
                0x00000000000c71f3                engine_gray16_blit_to_dc
                0x00000000000c745e                engine_gray256_blit_to_dc
 .text          0x00000000000c7689     0x2987 /home/wh/.HoneyGUI-SDK/realgui/engine/gui_matrix.o
                0x00000000000c7689                rect_intersect
                0x00000000000c775b                rect_move
                0x00000000000c77de                fix_sin
                0x00000000000c78ef                fix_cos
                0x00000000000c8449                matrix_transfrom_blit
                0x00000000000c891a                matrix_is_identity
                0x00000000000c8a73                matrix_only_translate
                0x00000000000c8b8a                matrix_identity
                0x00000000000c8c26                matrix_multiply_normal
                0x00000000000c8d74                matrix_multiply
                0x00000000000c9042                matrix_multiply_point
                0x00000000000c91dd                matrix_inverse
                0x00000000000c9460                matrix_compute_rotate
                0x00000000000c9623                matrix_translate
                0x00000000000c96ff                matrix_rotate
                0x00000000000c9816                matrix_scale
                0x00000000000c98fa                matrix_perspective
                0x00000000000c99ac                matrix_transfrom_rotate
                0x00000000000c9b09                matrix_is_full_rank
                0x00000000000c9cdf                matrix_get_transform_area
 .text          0x00000000000ca010      0x32b /home/wh/.HoneyGUI-SDK/realgui/engine/gui_post_process.o
                0x00000000000ca010                post_process_add
                0x00000000000ca0de                post_process_end
                0x00000000000ca1b8                post_process_handle
                0x00000000000ca2a4                pre_process_handle
 .text          0x00000000000ca33b      0x119 /home/wh/.HoneyGUI-SDK/realgui/engine/font/font_custom.o
                0x00000000000ca33b                gui_font_custom_set_callbacks
                0x00000000000ca382                gui_font_custom_load
                0x00000000000ca3bc                gui_font_custom_draw
                0x00000000000ca3f6                gui_font_custom_unload
                0x00000000000ca425                gui_font_custom_destroy
 .text          0x00000000000ca454     0x5c93 /home/wh/.HoneyGUI-SDK/realgui/engine/font/font_mem.o
                0x00000000000ca454                get_fontlib_by_size
                0x00000000000ca50f                get_fontlib_by_name
                0x00000000000ca5cc                gui_font_get_dot_info
                0x00000000000cc549                gui_font_mem_load
                0x00000000000cc5cb                gui_font_mem_layout
                0x00000000000ced84                gui_font_mem_unload
                0x00000000000ceeb6                gui_font_mem_destroy
                0x00000000000cf421                gui_font_draw_emoji
                0x00000000000cf524                gui_font_mem_draw
                0x00000000000cf73f                gui_font_mem_init_ftl
                0x00000000000cf9a1                gui_font_mem_init_fs
                0x00000000000cf9bf                gui_font_mem_init_mem
                0x00000000000cf9dd                gui_font_mem_init
                0x00000000000cfb19                gui_font_mem_delate
                0x00000000000cfc22                gui_get_mem_utf8_char_width
                0x00000000000cfc50                gui_get_mem_char_width
 .text          0x00000000000d00e7      0x614 /home/wh/.HoneyGUI-SDK/realgui/engine/font/font_mem_img.o
                0x00000000000d0325                gui_font_scale_destroy
                0x00000000000d0370                gui_text_bmp2img
 .text          0x00000000000d06fb     0x3da9 /home/wh/.HoneyGUI-SDK/realgui/engine/font/font_mem_matrix.o
                0x00000000000d3c36                gui_font_mat_unload
                0x00000000000d3d08                gui_font_mat_destroy
                0x00000000000d3dba                gui_font_mat_load
                0x00000000000d3e9e                gui_font_mat_draw
 .text          0x00000000000d44a4     0x328c /home/wh/.HoneyGUI-SDK/realgui/engine/font/font_rendering_utils.o
                0x00000000000d7458                font_glyph_render
                0x00000000000d76e2                font_get_bitdepth_by_cf
 .text          0x00000000000d7730    0x11620 /home/wh/.HoneyGUI-SDK/realgui/engine/font/font_stb.o
                0x00000000000d8f2d                stbtt_FindGlyphIndex
                0x00000000000d9428                stbtt_GetCodepointShape
                0x00000000000d9638                stbtt_GetGlyphBox
                0x00000000000d976b                stbtt_GetCodepointBox
                0x00000000000d97c5                stbtt_IsGlyphEmpty
                0x00000000000dc6b4                stbtt_GetGlyphShape
                0x00000000000dc704                stbtt_GetGlyphHMetrics
                0x00000000000dc852                stbtt_GetKerningTableLength
                0x00000000000dc8da                stbtt_GetKerningTable
                0x00000000000dd43f                stbtt_GetGlyphKernAdvance
                0x00000000000dd4a7                stbtt_GetCodepointKernAdvance
                0x00000000000dd517                stbtt_GetCodepointHMetrics
                0x00000000000dd55c                stbtt_GetFontVMetrics
                0x00000000000dd60b                stbtt_GetFontVMetricsOS2
                0x00000000000dd6e7                stbtt_GetFontBoundingBox
                0x00000000000dd7ae                stbtt_ScaleForPixelHeight
                0x00000000000dd829                stbtt_ScaleForMappingEmToPixels
                0x00000000000dd878                stbtt_FreeShape
                0x00000000000dd89b                stbtt_FindSVGDoc
                0x00000000000dd95a                stbtt_GetGlyphSVG
                0x00000000000dd9f7                stbtt_GetCodepointSVG
                0x00000000000dda35                stbtt_GetGlyphBitmapBoxSubpixel
                0x00000000000ddbe6                stbtt_GetGlyphBitmapBox
                0x00000000000ddc4c                stbtt_GetCodepointBitmapBoxSubpixel
                0x00000000000ddcd6                stbtt_GetCodepointBitmapBox
                0x00000000000e117c                stbtt_Rasterize
                0x00000000000e12ae                stbtt_FreeBitmap
                0x00000000000e12d1                stbtt_GetGlyphBitmapSubpixel
                0x00000000000e14ed                stbtt_GetGlyphBitmap
                0x00000000000e1552                stbtt_MakeGlyphBitmapSubpixel
                0x00000000000e1696                stbtt_MakeGlyphBitmap
                0x00000000000e16fa                stbtt_GetCodepointBitmapSubpixel
                0x00000000000e1781                stbtt_MakeCodepointBitmapSubpixelPrefilter
                0x00000000000e1820                stbtt_MakeCodepointBitmapSubpixel
                0x00000000000e18ac                stbtt_GetCodepointBitmap
                0x00000000000e1911                stbtt_MakeCodepointBitmap
                0x00000000000e1e4a                stbtt_GetBakedQuad
                0x00000000000e22c0                stbtt_PackBegin
                0x00000000000e241a                stbtt_PackEnd
                0x00000000000e244d                stbtt_PackSetOversampling
                0x00000000000e24ce                stbtt_PackSetSkipMissingCodepoints
                0x00000000000e2d3f                stbtt_PackFontRangesGatherRects
                0x00000000000e30e7                stbtt_MakeGlyphBitmapSubpixelPrefilter
                0x00000000000e31db                stbtt_PackFontRangesRenderIntoRects
                0x00000000000e3ab5                stbtt_PackFontRangesPackRects
                0x00000000000e3ae9                stbtt_PackFontRanges
                0x00000000000e3e51                stbtt_PackFontRange
                0x00000000000e3ee0                stbtt_GetScaledFontVMetrics
                0x00000000000e405c                stbtt_GetPackedQuad
                0x00000000000e5330                stbtt_GetGlyphSDF
                0x00000000000e6bd7                stbtt_GetCodepointSDF
                0x00000000000e6c5a                stbtt_FreeSDF
                0x00000000000e6ffc                stbtt_GetFontNameString
                0x00000000000e76fc                stbtt_BakeFontBitmap
                0x00000000000e775a                stbtt_GetFontOffsetForIndex
                0x00000000000e7780                stbtt_GetNumberOfFonts
                0x00000000000e779e                stbtt_InitFont
                0x00000000000e77cd                stbtt_FindMatchingFont
                0x00000000000e77fc                stbtt_CompareUTF8toUTF16_bigendian
                0x00000000000e8452                gui_font_stb_load
                0x00000000000e8771                gui_font_stb_unload
                0x00000000000e87cd                gui_font_stb_draw
                0x00000000000e8d22                gui_font_stb_init
 .text          0x00000000000e8d50     0x4fee /home/wh/.HoneyGUI-SDK/realgui/engine/font/font_ttf.o
                0x00000000000e971d                add_point_to_line
                0x00000000000e9878                font_ttf_draw_bitmap_classic
                0x00000000000e9c5c                getGlyphOffsetFromMemory
                0x00000000000e9d39                adjustImageBufferPrecision
                0x00000000000e9dfc                makeImageBuffer
                0x00000000000eb433                gui_font_get_ttf_info
                0x00000000000eb9d8                gui_font_ttf_adapt_rect
                0x00000000000ebaa1                gui_font_ttf_load
                0x00000000000ebb23                gui_font_ttf_unload
                0x00000000000ebbed                gui_font_ttf_draw
 .text          0x00000000000edd3e      0xde7 /home/wh/.HoneyGUI-SDK/realgui/engine/sw/a8_2_a8.o
                0x00000000000ee94e                a8_2_a8
 .text          0x00000000000eeb25     0x388b /home/wh/.HoneyGUI-SDK/realgui/engine/sw/a8_2_rgb565.o
                0x00000000000f21d9                a8_2_rgb565
 .text          0x00000000000f23b0      0x1ad /home/wh/.HoneyGUI-SDK/realgui/engine/sw/acc_sw.o
                0x00000000000f23b0                no_rle
                0x00000000000f24af                sw_acc_prepare_cb
                0x00000000000f24c2                sw_acc_end_cb
                0x00000000000f24d1                sw_acc_blit
                0x00000000000f2536                sw_acc_init
 .text          0x00000000000f255d      0xc14 /home/wh/.HoneyGUI-SDK/realgui/engine/sw/acc_sw_arm2d_blur.o
                0x00000000000f255d                arm2d_local_allocate_scratch_memory
                0x00000000000f25ee                arm2d_local_free_scratch_memory
                0x00000000000f295c                arm2d_local_rgb565_filter_iir_blur
                0x00000000000f2e10                sw_arm_2d_blur
                0x00000000000f3045                sw_arm_2d_create
                0x00000000000f3102                sw_arm_2d_depose
                0x00000000000f314a                sw_arm2d_blur_init
 .text          0x00000000000f3171     0x11de /home/wh/.HoneyGUI-SDK/realgui/engine/sw/acc_sw_raster.o
                0x00000000000f3e93                do_raster
 .text          0x00000000000f434f     0x1706 /home/wh/.HoneyGUI-SDK/realgui/engine/sw/argb8565_2_rgb565.o
                0x00000000000f587e                argb8565_2_rgb565
 .text          0x00000000000f5a55     0x3d7c /home/wh/.HoneyGUI-SDK/realgui/engine/sw/rgb565_2_rgb565.o
                0x00000000000f95fa                rgb565_2_rgb565
 .text          0x00000000000f97d1     0x1e2c /home/wh/.HoneyGUI-SDK/realgui/engine/sw/idu/acc_sw_idu.o
                0x00000000000fb4a1                gui_sw_idu_decode
 .text          0x00000000000fb5fd      0x8e0 /home/wh/.HoneyGUI-SDK/realgui/engine/sw/rle/acc_sw_rle.o
                0x00000000000fb5fd                uncompressed_rle_line
                0x00000000000fb6a7                uncompressed_rle_rect
                0x00000000000fb730                uncompressed_rle_rgb565
                0x00000000000fb7d3                uncompressed_rle_argb8565
                0x00000000000fb8db                uncompressed_rle_rgb888
                0x00000000000fb9d9                uncompressed_rle_argb8888
                0x00000000000fba79                sw_acc_rle_uncompress
                0x00000000000fbc73                is_identity_matrix
                0x00000000000fbd78                handle_image_blend_mode
                0x00000000000fbe19                rle
 .text          0x00000000000fbedd      0x2c1 /home/wh/.HoneyGUI-SDK/realgui/engine/sw/rle/acc_sw_rle_bypass.o
                0x00000000000fc003                rle_bypass_blit_2_rgb565
 .text          0x00000000000fc19e      0x2d9 /home/wh/.HoneyGUI-SDK/realgui/engine/sw/rle/acc_sw_rle_cover.o
                0x00000000000fc19e                rle_cover_blit_2_rgb565
 .text          0x00000000000fc477      0x2da /home/wh/.HoneyGUI-SDK/realgui/engine/sw/rle/acc_sw_rle_filter.o
                0x00000000000fc5b6                rle_filter_blit_2_rgb565
 .text          0x00000000000fc751     0x1002 /home/wh/.HoneyGUI-SDK/realgui/dc/gui_fb.o
                0x00000000000fc751                gui_set_bg_color
                0x00000000000fc768                gui_get_obj_count
                0x00000000000fd5c3                gui_fps
                0x00000000000fd5d3                gui_fb_change
                0x00000000000fd5e5                gui_fb_disp
 .text          0x00000000000fd753     0x21a2 /home/wh/.HoneyGUI-SDK/realgui/misc/tlsf/tlsf.o
                0x00000000000fea90                tlsf_check
                0x00000000000feeb6                tlsf_walk_pool
                0x00000000000fef7f                tlsf_block_size
                0x00000000000fefc4                tlsf_check_pool
                0x00000000000ff024                tlsf_size
                0x00000000000ff033                tlsf_align_size
                0x00000000000ff042                tlsf_block_size_min
                0x00000000000ff051                tlsf_block_size_max
                0x00000000000ff065                tlsf_pool_overhead
                0x00000000000ff077                tlsf_alloc_overhead
                0x00000000000ff086                tlsf_add_pool
                0x00000000000ff1e9                tlsf_remove_pool
                0x00000000000ff32a                tlsf_create
                0x00000000000ff378                tlsf_create_with_pool
                0x00000000000ff40d                tlsf_destroy
                0x00000000000ff41c                tlsf_get_pool
                0x00000000000ff43a                tlsf_malloc
                0x00000000000ff49b                tlsf_memalign
                0x00000000000ff66a                tlsf_free
                0x00000000000ff71f                tlsf_realloc
 .text          0x00000000000ff8f5      0x11f /home/wh/.HoneyGUI-SDK/example/widget/image/example_gui_img.o
                0x00000000000ff8f5                test_event_cb
                0x00000000000ff938                test_timer_cb
 .text          0x00000000000ffa14        0x0 /usr/lib/gcc/x86_64-linux-gnu/11/crtendS.o
 .text          0x00000000000ffa14        0x0 /usr/lib/gcc/x86_64-linux-gnu/11/../../../x86_64-linux-gnu/crtn.o
 *(.gnu.warning)

.fini           0x00000000000ffa14        0xd
 *(SORT_NONE(.fini))
 .fini          0x00000000000ffa14        0x8 /usr/lib/gcc/x86_64-linux-gnu/11/../../../x86_64-linux-gnu/crti.o
                0x00000000000ffa14                _fini
 .fini          0x00000000000ffa1c        0x5 /usr/lib/gcc/x86_64-linux-gnu/11/../../../x86_64-linux-gnu/crtn.o
                [!provide]                        PROVIDE (__etext = .)
                [!provide]                        PROVIDE (_etext = .)
                [!provide]                        PROVIDE (etext = .)
                0x0000000000100000                . = ALIGN (CONSTANT (MAXPAGESIZE))
                0x0000000000100000                . = SEGMENT_START ("rodata-segment", (ALIGN (CONSTANT (MAXPAGESIZE)) + (. & (CONSTANT (MAXPAGESIZE) - 0x1))))

.rodata         0x0000000000100000   0x100f38
 *(.rodata .rodata.* .gnu.linkonce.r.*)
 .rodata.cst4   0x0000000000100000        0x4 /usr/lib/gcc/x86_64-linux-gnu/11/../../../x86_64-linux-gnu/Scrt1.o
                0x0000000000100000                _IO_stdin_used
 *fill*         0x0000000000100004        0x4 
 .rodata        0x0000000000100008       0xac build/main.o
 *fill*         0x00000000001000b4        0x4 
 .rodata        0x00000000001000b8       0x55 build/port/realgui_port/gui_port_os.o
 .rodata        0x000000000010010d       0x3a build/port/realgui_port/sdl_driver.o
 *fill*         0x0000000000100147        0x9 
 .rodata        0x0000000000100150       0x20 /home/wh/.HoneyGUI-SDK/realgui/input/kb_algo.o
 .rodata        0x0000000000100170       0x30 /home/wh/.HoneyGUI-SDK/realgui/input/tp_algo.o
 .rodata        0x00000000001001a0       0x33 /home/wh/.HoneyGUI-SDK/realgui/input/wheel_algo.o
 *fill*         0x00000000001001d3        0xd 
 .rodata        0x00000000001001e0      0xbd8 /home/wh/.HoneyGUI-SDK/realgui/server/gui_api_color.o
 *fill*         0x0000000000100db8        0x8 
 .rodata        0x0000000000100dc0       0x45 /home/wh/.HoneyGUI-SDK/realgui/server/gui_api_dc.o
 *fill*         0x0000000000100e05        0xb 
 .rodata        0x0000000000100e10      0x1e9 /home/wh/.HoneyGUI-SDK/realgui/server/gui_api_fs.o
 *fill*         0x0000000000100ff9        0x7 
 .rodata        0x0000000000101000       0x47 /home/wh/.HoneyGUI-SDK/realgui/server/gui_api_indev.o
 *fill*         0x0000000000101047        0x9 
 .rodata        0x0000000000101050      0x261 /home/wh/.HoneyGUI-SDK/realgui/server/gui_api_os.o
 *fill*         0x00000000001012b1        0xf 
 .rodata        0x00000000001012c0       0x37 /home/wh/.HoneyGUI-SDK/realgui/server/gui_message.o
 .rodata        0x00000000001012f7       0x89 /home/wh/.HoneyGUI-SDK/realgui/server/gui_server.o
 .rodata        0x0000000000101380      0x2e0 /home/wh/.HoneyGUI-SDK/realgui/3rd/cJSON/cJSON.o
 .rodata        0x0000000000101660       0xc4 /home/wh/.HoneyGUI-SDK/realgui/3rd/nanovg/base/nanovg.o
 .rodata        0x0000000000101724        0x8 /home/wh/.HoneyGUI-SDK/realgui/3rd/nanovg/agge/math.o
                0x0000000000101724                agge::pi
 .rodata        0x000000000010172c       0x24 /home/wh/.HoneyGUI-SDK/realgui/3rd/nanovg/agge/stroke.o
 .rodata._ZTSN4agge5joins5miterE
                0x0000000000101750       0x14 /home/wh/.HoneyGUI-SDK/realgui/3rd/nanovg/agge/stroke_features.o
                0x0000000000101750                typeinfo name for agge::joins::miter
 *fill*         0x0000000000101764        0xc 
 .rodata._ZTSN4agge5joins5roundE
                0x0000000000101770       0x14 /home/wh/.HoneyGUI-SDK/realgui/3rd/nanovg/agge/stroke_features.o
                0x0000000000101770                typeinfo name for agge::joins::round
 *fill*         0x0000000000101784        0xc 
 .rodata._ZTSN4agge5joins5bevelE
                0x0000000000101790       0x14 /home/wh/.HoneyGUI-SDK/realgui/3rd/nanovg/agge/stroke_features.o
                0x0000000000101790                typeinfo name for agge::joins::bevel
 *fill*         0x00000000001017a4        0xc 
 .rodata._ZTSN4agge4caps8triangleE
                0x00000000001017b0       0x16 /home/wh/.HoneyGUI-SDK/realgui/3rd/nanovg/agge/stroke_features.o
                0x00000000001017b0                typeinfo name for agge::caps::triangle
 *fill*         0x00000000001017c6        0xa 
 .rodata._ZTSN4agge4caps5roundE
                0x00000000001017d0       0x13 /home/wh/.HoneyGUI-SDK/realgui/3rd/nanovg/agge/stroke_features.o
                0x00000000001017d0                typeinfo name for agge::caps::round
 *fill*         0x00000000001017e3        0xd 
 .rodata._ZTSN4agge4caps6squareE
                0x00000000001017f0       0x14 /home/wh/.HoneyGUI-SDK/realgui/3rd/nanovg/agge/stroke_features.o
                0x00000000001017f0                typeinfo name for agge::caps::square
 *fill*         0x0000000000101804        0xc 
 .rodata._ZTSN4agge4caps4buttE
                0x0000000000101810       0x12 /home/wh/.HoneyGUI-SDK/realgui/3rd/nanovg/agge/stroke_features.o
                0x0000000000101810                typeinfo name for agge::caps::butt
 *fill*         0x0000000000101822        0xe 
 .rodata._ZTSN4agge6stroke4joinE
                0x0000000000101830       0x14 /home/wh/.HoneyGUI-SDK/realgui/3rd/nanovg/agge/stroke_features.o
                0x0000000000101830                typeinfo name for agge::stroke::join
 *fill*         0x0000000000101844        0xc 
 .rodata._ZTSN4agge6stroke3capE
                0x0000000000101850       0x13 /home/wh/.HoneyGUI-SDK/realgui/3rd/nanovg/agge/stroke_features.o
                0x0000000000101850                typeinfo name for agge::stroke::cap
 *fill*         0x0000000000101863        0xd 
 .rodata        0x0000000000101870       0x1c /home/wh/.HoneyGUI-SDK/realgui/3rd/nanovg/agge/stroke_features.o
 *fill*         0x000000000010188c        0x4 
 .rodata        0x0000000000101890      0x6a8 /home/wh/.HoneyGUI-SDK/realgui/3rd/nanovg/agge/nanovg_agge.o
 .rodata._ZN4agge7clipperIiE7line_toINS_10rasterizerIS1_NS_7scalingIiEEEEEEvRT_ii
                0x0000000000101f38       0x34 /home/wh/.HoneyGUI-SDK/realgui/3rd/nanovg/agge/nanovg_agge.o
 .rodata        0x0000000000101f6c       0x65 /home/wh/.HoneyGUI-SDK/realgui/3rd/gifdec/gifdec.o
 *fill*         0x0000000000101fd1        0xf 
 .rodata        0x0000000000101fe0      0x3f6 /home/wh/.HoneyGUI-SDK/realgui/3rd/letter_shell/shell.o
                0x0000000000101fe0                shellCmdDefaultUser
                0x0000000000101fe4                shellPasswordDefaultUser
                0x0000000000101fe8                shellDesDefaultUser
                0x00000000001022cf                shellCmdsetVar
                0x00000000001022d8                shellDescsetVar
                0x00000000001022e9                shellDesc0x1B5B4100
                0x00000000001022ec                shellDesc0x1B5B4200
                0x00000000001022f1                shellDesc0x1B5B4300
                0x00000000001022f7                shellDesc0x1B5B4400
                0x00000000001022fc                shellDesc0x09000000
                0x0000000000102300                shellDesc0x08000000
                0x0000000000102310                shellDesc0x7F000000
                0x000000000010231a                shellDesc0x1B5B337E
                0x0000000000102321                shellDesc0x0A000000
                0x0000000000102327                shellDesc0x0D000000
                0x000000000010232d                shellCmdhelp
                0x0000000000102340                shellDeschelp
                0x000000000010235e                shellCmdusers
                0x0000000000102368                shellDescusers
                0x0000000000102376                shellCmdcmds
                0x0000000000102380                shellDesccmds
                0x000000000010238d                shellCmdvars
                0x0000000000102398                shellDescvars
                0x00000000001023a5                shellCmdkeys
                0x00000000001023b0                shellDesckeys
                0x00000000001023bd                shellCmdclear
                0x00000000001023c8                shellDescclear
 *fill*         0x00000000001023d6        0x2 
 .rodata        0x00000000001023d8       0x20 /home/wh/.HoneyGUI-SDK/realgui/3rd/letter_shell/shell_ext.o
 .rodata        0x00000000001023f8       0x47 /home/wh/.HoneyGUI-SDK/realgui/3rd/letter_shell/shell_fs.o
                0x0000000000102416                shellCmdcd
                0x0000000000102420                shellDesccd
                0x000000000010242b                shellCmdls
                0x0000000000102430                shellDescls
 *fill*         0x000000000010243f        0x1 
 .rodata        0x0000000000102440      0x80c /home/wh/.HoneyGUI-SDK/realgui/3rd/h264bsd/src/h264bsd_cavlc.o
 *fill*         0x0000000000102c4c       0x14 
 .rodata        0x0000000000102c60      0x160 /home/wh/.HoneyGUI-SDK/realgui/3rd/h264bsd/src/h264bsd_deblocking.o
 .rodata        0x0000000000102dc0       0x5c /home/wh/.HoneyGUI-SDK/realgui/3rd/h264bsd/src/h264bsd_decoder.o
 .rodata        0x0000000000102e1c       0x1c /home/wh/.HoneyGUI-SDK/realgui/3rd/h264bsd/src/h264bsd_dpb.o
 *fill*         0x0000000000102e38        0x8 
 .rodata        0x0000000000102e40      0x800 /home/wh/.HoneyGUI-SDK/realgui/3rd/h264bsd/src/h264bsd_inter_prediction.o
 .rodata        0x0000000000103640      0x5a0 /home/wh/.HoneyGUI-SDK/realgui/3rd/h264bsd/src/h264bsd_intra_prediction.o
                0x0000000000103640                h264bsdBlockX
                0x0000000000103680                h264bsdBlockY
                0x00000000001036c0                h264bsdClip
 .rodata        0x0000000000103be0       0x40 /home/wh/.HoneyGUI-SDK/realgui/3rd/h264bsd/src/h264bsd_macroblock_layer.o
 .rodata        0x0000000000103c20      0x300 /home/wh/.HoneyGUI-SDK/realgui/3rd/h264bsd/src/h264bsd_neighbour.o
 .rodata        0x0000000000103f20       0x20 /home/wh/.HoneyGUI-SDK/realgui/3rd/h264bsd/src/h264bsd_pic_param_set.o
 .rodata        0x0000000000103f40       0x7c /home/wh/.HoneyGUI-SDK/realgui/3rd/h264bsd/src/h264bsd_reconstruct.o
 *fill*         0x0000000000103fbc        0x4 
 .rodata        0x0000000000103fc0       0xb0 /home/wh/.HoneyGUI-SDK/realgui/3rd/h264bsd/src/h264bsd_sei.o
 .rodata        0x0000000000104070       0xa8 /home/wh/.HoneyGUI-SDK/realgui/3rd/h264bsd/src/h264bsd_seq_param_set.o
 .rodata        0x0000000000104118       0x18 /home/wh/.HoneyGUI-SDK/realgui/3rd/h264bsd/src/h264bsd_slice_group_map.o
 *fill*         0x0000000000104130       0x10 
 .rodata        0x0000000000104140       0xd4 /home/wh/.HoneyGUI-SDK/realgui/3rd/h264bsd/src/h264bsd_transform.o
 *fill*         0x0000000000104214        0xc 
 .rodata        0x0000000000104220       0xf0 /home/wh/.HoneyGUI-SDK/realgui/3rd/h264bsd/src/h264bsd_util.o
                0x0000000000104240                h264bsdQpC
 *fill*         0x0000000000104310       0x10 
 .rodata        0x0000000000104320       0x70 /home/wh/.HoneyGUI-SDK/realgui/3rd/h264bsd/src/h264bsd_vlc.o
 *fill*         0x0000000000104390       0x10 
 .rodata        0x00000000001043a0      0x4e0 /home/wh/.HoneyGUI-SDK/realgui/3rd/tjpgd/tjpgd.o
 .rodata        0x0000000000104880      0x37b /home/wh/.HoneyGUI-SDK/realgui/3rd/ezXML/ezxml.o
 *fill*         0x0000000000104bfb        0x5 
 .rodata        0x0000000000104c00      0xdcc /home/wh/.HoneyGUI-SDK/realgui/3rd/stb/stb_image.o
 *fill*         0x00000000001059cc        0x4 
 .rodata        0x00000000001059d0       0x90 /home/wh/.HoneyGUI-SDK/realgui/widget/gui_view/gui_view.o
 .rodata        0x0000000000105a60       0x80 /home/wh/.HoneyGUI-SDK/realgui/widget/gui_view/gui_view_animate.o
 .rodata        0x0000000000105ae0       0x14 /home/wh/.HoneyGUI-SDK/realgui/widget/gui_view/gui_view_blur.o
 *fill*         0x0000000000105af4        0xc 
 .rodata        0x0000000000105b00       0x2c /home/wh/.HoneyGUI-SDK/realgui/widget/gui_view/gui_view_cube.o
 *fill*         0x0000000000105b2c        0x4 
 .rodata        0x0000000000105b30       0xdc /home/wh/.HoneyGUI-SDK/realgui/widget/gui_view/gui_view_descriptor.o
 .rodata        0x0000000000105c0c        0x8 /home/wh/.HoneyGUI-SDK/realgui/widget/gui_view/gui_view_reduction.o
 *fill*         0x0000000000105c14        0xc 
 .rodata        0x0000000000105c20       0x2c /home/wh/.HoneyGUI-SDK/realgui/widget/gui_view/gui_view_rotate.o
 .rodata        0x0000000000105c4c        0x8 /home/wh/.HoneyGUI-SDK/realgui/widget/gui_view/gui_view_translation.o
 *fill*         0x0000000000105c54        0xc 
 .rodata        0x0000000000105c60       0x5c /home/wh/.HoneyGUI-SDK/realgui/widget/gui_text/gui_scroll_text.o
 *fill*         0x0000000000105cbc        0x4 
 .rodata        0x0000000000105cc0      0x124 /home/wh/.HoneyGUI-SDK/realgui/widget/gui_text/gui_text.o
 *fill*         0x0000000000105de4        0xc 
 .rodata        0x0000000000105df0      0x16c /home/wh/.HoneyGUI-SDK/realgui/widget/gui_lite_geometry/gui_lite_geometry_arc.o
 *fill*         0x0000000000105f5c        0x4 
 .rodata        0x0000000000105f60       0xea /home/wh/.HoneyGUI-SDK/realgui/widget/gui_lite_geometry/gui_lite_geometry_circle.o
 *fill*         0x000000000010604a       0x16 
 .rodata        0x0000000000106060      0x118 /home/wh/.HoneyGUI-SDK/realgui/widget/gui_lite_geometry/gui_lite_geometry_round_rect.o
 *fill*         0x0000000000106178        0x8 
 .rodata        0x0000000000106180       0x50 /home/wh/.HoneyGUI-SDK/realgui/widget/gui_lite_geometry/lite_geometry.o
 *fill*         0x00000000001061d0       0x10 
 .rodata        0x00000000001061e0      0x1c0 /home/wh/.HoneyGUI-SDK/realgui/widget/gui_lite_geometry/lite_geometry_math.o
 .rodata        0x00000000001063a0       0xb4 /home/wh/.HoneyGUI-SDK/realgui/widget/gui_list/gui_list.o
 *fill*         0x0000000000106454        0xc 
 .rodata        0x0000000000106460       0x24 /home/wh/.HoneyGUI-SDK/realgui/widget/gui_list/gui_list_rotate_curl.o
 *fill*         0x0000000000106484        0xc 
 .rodata        0x0000000000106490       0x24 /home/wh/.HoneyGUI-SDK/realgui/widget/gui_list/gui_list_rotate_helix.o
 *fill*         0x00000000001064b4        0xc 
 .rodata        0x00000000001064c0      0x42f /home/wh/.HoneyGUI-SDK/realgui/widget/gui_qbcode/gui_barcode_gen.o
                0x00000000001064c0                C128Table
 *fill*         0x00000000001068ef        0x1 
 .rodata        0x00000000001068f0       0xb8 /home/wh/.HoneyGUI-SDK/realgui/widget/gui_qbcode/gui_qbcode.o
 *fill*         0x00000000001069a8       0x18 
 .rodata        0x00000000001069c0      0x238 /home/wh/.HoneyGUI-SDK/realgui/widget/gui_qbcode/gui_qrcode_gen.o
 *fill*         0x0000000000106bf8        0x8 
 .rodata        0x0000000000106c00       0x80 /home/wh/.HoneyGUI-SDK/realgui/widget/gui_menu_cellular/gui_menu_cellular.o
 .rodata        0x0000000000106c80       0xe3 /home/wh/.HoneyGUI-SDK/realgui/widget/gui_gray/gui_gray.o
 *fill*         0x0000000000106d63        0xd 
 .rodata        0x0000000000106d70      0x140 /home/wh/.HoneyGUI-SDK/realgui/widget/gui_obj/gui_obj.o
 .rodata        0x0000000000106eb0       0x55 /home/wh/.HoneyGUI-SDK/realgui/widget/gui_obj/gui_obj_event.o
 *fill*         0x0000000000106f05        0xb 
 .rodata        0x0000000000106f10       0x73 /home/wh/.HoneyGUI-SDK/realgui/widget/gui_obj/gui_obj_timer.o
 *fill*         0x0000000000106f83       0x1d 
 .rodata        0x0000000000106fa0       0xe0 /home/wh/.HoneyGUI-SDK/realgui/widget/gui_obj/gui_obj_tree.o
 .rodata        0x0000000000107080      0x260 /home/wh/.HoneyGUI-SDK/realgui/widget/gui_soccer/gui_soccer.o
                0x0000000000107080                vertices
 .rodata        0x00000000001072e0      0x262 /home/wh/.HoneyGUI-SDK/realgui/widget/gui_glass/gui_glass.o
 *fill*         0x0000000000107542        0xe 
 .rodata        0x0000000000107550      0x380 /home/wh/.HoneyGUI-SDK/realgui/widget/gui_img/gui_img.o
 .rodata        0x00000000001078d0        0x4 /home/wh/.HoneyGUI-SDK/realgui/widget/gui_img/gui_img_api.o
 *fill*         0x00000000001078d4        0xc 
 .rodata        0x00000000001078e0      0x3b0 /home/wh/.HoneyGUI-SDK/realgui/widget/gui_video/gui_video.o
 .rodata        0x0000000000107c90      0x180 /home/wh/.HoneyGUI-SDK/realgui/widget/gui_win/gui_win.o
 .rodata        0x0000000000107e10       0x60 /home/wh/.HoneyGUI-SDK/realgui/widget/gui_canvas/gui_canvas.o
 .rodata        0x0000000000107e70       0xdc /home/wh/.HoneyGUI-SDK/realgui/widget/gui_canvas/gui_canvas_arc.o
 *fill*         0x0000000000107f4c        0x4 
 .rodata        0x0000000000107f50       0xa0 /home/wh/.HoneyGUI-SDK/realgui/widget/gui_canvas/gui_canvas_img.o
 .rodata        0x0000000000107ff0       0xe9 /home/wh/.HoneyGUI-SDK/realgui/widget/gui_canvas/gui_canvas_rect.o
 *fill*         0x00000000001080d9        0x7 
 .rodata        0x00000000001080e0      0x160 /home/wh/.HoneyGUI-SDK/realgui/widget/gui_canvas/gui_canvas_round_rect.o
 .rodata        0x0000000000108240      0x440 /home/wh/.HoneyGUI-SDK/realgui/engine/acc_api.o
 .rodata        0x0000000000108680      0x3eb /home/wh/.HoneyGUI-SDK/realgui/engine/draw_font.o
                0x0000000000108680                ap_chars_map
 *fill*         0x0000000000108a6b        0x5 
 .rodata        0x0000000000108a70       0x3c /home/wh/.HoneyGUI-SDK/realgui/engine/draw_img.o
 *fill*         0x0000000000108aac        0x4 
 .rodata        0x0000000000108ab0       0x25 /home/wh/.HoneyGUI-SDK/realgui/engine/engine_gray.o
 *fill*         0x0000000000108ad5        0xb 
 .rodata        0x0000000000108ae0      0x108 /home/wh/.HoneyGUI-SDK/realgui/engine/gui_matrix.o
 *fill*         0x0000000000108be8        0x8 
 .rodata        0x0000000000108bf0      0x376 /home/wh/.HoneyGUI-SDK/realgui/engine/font/font_mem.o
 *fill*         0x0000000000108f66        0xa 
 .rodata        0x0000000000108f70       0xe2 /home/wh/.HoneyGUI-SDK/realgui/engine/font/font_mem_matrix.o
 *fill*         0x0000000000109052        0xe 
 .rodata        0x0000000000109060       0x40 /home/wh/.HoneyGUI-SDK/realgui/engine/font/font_rendering_utils.o
 .rodata        0x00000000001090a0      0x684 /home/wh/.HoneyGUI-SDK/realgui/engine/font/font_stb.o
 *fill*         0x0000000000109724       0x1c 
 .rodata        0x0000000000109740      0x29c /home/wh/.HoneyGUI-SDK/realgui/engine/font/font_ttf.o
 *fill*         0x00000000001099dc        0x4 
 .rodata        0x00000000001099e0       0x28 /home/wh/.HoneyGUI-SDK/realgui/engine/sw/a8_2_a8.o
 .rodata        0x0000000000109a08        0xc /home/wh/.HoneyGUI-SDK/realgui/engine/sw/a8_2_rgb565.o
 *fill*         0x0000000000109a14        0xc 
 .rodata        0x0000000000109a20      0x138 /home/wh/.HoneyGUI-SDK/realgui/engine/sw/acc_sw_arm2d_blur.o
 *fill*         0x0000000000109b58        0x8 
 .rodata        0x0000000000109b60       0xb5 /home/wh/.HoneyGUI-SDK/realgui/engine/sw/acc_sw_raster.o
 *fill*         0x0000000000109c15        0x3 
 .rodata        0x0000000000109c18        0x4 /home/wh/.HoneyGUI-SDK/realgui/engine/sw/argb8565_2_rgb565.o
 *fill*         0x0000000000109c1c        0x4 
 .rodata        0x0000000000109c20       0x50 /home/wh/.HoneyGUI-SDK/realgui/engine/sw/rgb565_2_rgb565.o
 .rodata        0x0000000000109c70        0x4 /home/wh/.HoneyGUI-SDK/realgui/engine/sw/rle/acc_sw_rle.o
 *fill*         0x0000000000109c74        0xc 
 .rodata        0x0000000000109c80       0xa8 /home/wh/.HoneyGUI-SDK/realgui/dc/gui_fb.o
 *fill*         0x0000000000109d28        0x8 
 .rodata        0x0000000000109d30      0xac5 /home/wh/.HoneyGUI-SDK/realgui/misc/tlsf/tlsf.o
 *fill*         0x000000000010a7f5        0xb 
 .rodata        0x000000000010a800    0xf6738 /home/wh/.HoneyGUI-SDK/example/widget/image/example_gui_img.o
LOAD /usr/lib/gcc/x86_64-linux-gnu/11/../../../x86_64-linux-gnu/Scrt1.o
LOAD /usr/lib/gcc/x86_64-linux-gnu/11/../../../x86_64-linux-gnu/crti.o
LOAD /usr/lib/gcc/x86_64-linux-gnu/11/crtbeginS.o
LOAD build/main.o
LOAD build/port/realgui_port/gui_port_acc.o
LOAD build/port/realgui_port/gui_port_dc.o
LOAD build/port/realgui_port/gui_port_filesystem.o
LOAD build/port/realgui_port/gui_port_ftl.o
LOAD build/port/realgui_port/gui_port_indev.o
LOAD build/port/realgui_port/gui_port_os.o
LOAD build/port/realgui_port/gui_queue.o
LOAD build/port/realgui_port/sdl_driver.o
LOAD /home/wh/.HoneyGUI-SDK/realgui/input/kb_algo.o
LOAD /home/wh/.HoneyGUI-SDK/realgui/input/tp_algo.o
LOAD /home/wh/.HoneyGUI-SDK/realgui/input/wheel_algo.o
LOAD /home/wh/.HoneyGUI-SDK/realgui/server/gui_api_acc.o
LOAD /home/wh/.HoneyGUI-SDK/realgui/server/gui_api_color.o
LOAD /home/wh/.HoneyGUI-SDK/realgui/server/gui_api_dc.o
LOAD /home/wh/.HoneyGUI-SDK/realgui/server/gui_api_fs.o
LOAD /home/wh/.HoneyGUI-SDK/realgui/server/gui_api_ftl.o
LOAD /home/wh/.HoneyGUI-SDK/realgui/server/gui_api_indev.o
LOAD /home/wh/.HoneyGUI-SDK/realgui/server/gui_api_os.o
LOAD /home/wh/.HoneyGUI-SDK/realgui/server/gui_components_init.o
LOAD /home/wh/.HoneyGUI-SDK/realgui/server/gui_message.o
LOAD /home/wh/.HoneyGUI-SDK/realgui/server/gui_pm.o
LOAD /home/wh/.HoneyGUI-SDK/realgui/server/gui_server.o
LOAD /home/wh/.HoneyGUI-SDK/realgui/3rd/cJSON/cJSON.o
LOAD /home/wh/.HoneyGUI-SDK/realgui/3rd/nanovg/base/nanovg_port.o
LOAD /home/wh/.HoneyGUI-SDK/realgui/3rd/nanovg/base/nanovg.o
LOAD /home/wh/.HoneyGUI-SDK/realgui/3rd/nanovg/agge/math.o
LOAD /home/wh/.HoneyGUI-SDK/realgui/3rd/nanovg/agge/stroke.o
LOAD /home/wh/.HoneyGUI-SDK/realgui/3rd/nanovg/agge/stroke_features.o
LOAD /home/wh/.HoneyGUI-SDK/realgui/3rd/nanovg/agge/vector_rasterizer.o
LOAD /home/wh/.HoneyGUI-SDK/realgui/3rd/nanovg/agge/nanovg_agge.o
LOAD /home/wh/.HoneyGUI-SDK/realgui/3rd/nanovg/agge/nanovg_vertex.o
LOAD /home/wh/.HoneyGUI-SDK/realgui/3rd/gifdec/gifdec.o
LOAD /home/wh/.HoneyGUI-SDK/realgui/3rd/letter_shell/shell.o
LOAD /home/wh/.HoneyGUI-SDK/realgui/3rd/letter_shell/shell_companion.o
LOAD /home/wh/.HoneyGUI-SDK/realgui/3rd/letter_shell/shell_ext.o
LOAD /home/wh/.HoneyGUI-SDK/realgui/3rd/letter_shell/shell_fs.o
LOAD /home/wh/.HoneyGUI-SDK/realgui/3rd/letter_shell/shell_port.o
LOAD /home/wh/.HoneyGUI-SDK/realgui/3rd/h264bsd/src/YUV2RGB.o
LOAD /home/wh/.HoneyGUI-SDK/realgui/3rd/h264bsd/src/gui_h264bsd.o
LOAD /home/wh/.HoneyGUI-SDK/realgui/3rd/h264bsd/src/h264bsdTest.o
LOAD /home/wh/.HoneyGUI-SDK/realgui/3rd/h264bsd/src/h264bsd_byte_stream.o
LOAD /home/wh/.HoneyGUI-SDK/realgui/3rd/h264bsd/src/h264bsd_cavlc.o
LOAD /home/wh/.HoneyGUI-SDK/realgui/3rd/h264bsd/src/h264bsd_conceal.o
LOAD /home/wh/.HoneyGUI-SDK/realgui/3rd/h264bsd/src/h264bsd_deblocking.o
LOAD /home/wh/.HoneyGUI-SDK/realgui/3rd/h264bsd/src/h264bsd_decoder.o
LOAD /home/wh/.HoneyGUI-SDK/realgui/3rd/h264bsd/src/h264bsd_dpb.o
LOAD /home/wh/.HoneyGUI-SDK/realgui/3rd/h264bsd/src/h264bsd_image.o
LOAD /home/wh/.HoneyGUI-SDK/realgui/3rd/h264bsd/src/h264bsd_inter_prediction.o
LOAD /home/wh/.HoneyGUI-SDK/realgui/3rd/h264bsd/src/h264bsd_intra_prediction.o
LOAD /home/wh/.HoneyGUI-SDK/realgui/3rd/h264bsd/src/h264bsd_macroblock_layer.o
LOAD /home/wh/.HoneyGUI-SDK/realgui/3rd/h264bsd/src/h264bsd_nal_unit.o
LOAD /home/wh/.HoneyGUI-SDK/realgui/3rd/h264bsd/src/h264bsd_neighbour.o
LOAD /home/wh/.HoneyGUI-SDK/realgui/3rd/h264bsd/src/h264bsd_pic_order_cnt.o
LOAD /home/wh/.HoneyGUI-SDK/realgui/3rd/h264bsd/src/h264bsd_pic_param_set.o
LOAD /home/wh/.HoneyGUI-SDK/realgui/3rd/h264bsd/src/h264bsd_reconstruct.o
LOAD /home/wh/.HoneyGUI-SDK/realgui/3rd/h264bsd/src/h264bsd_sei.o
LOAD /home/wh/.HoneyGUI-SDK/realgui/3rd/h264bsd/src/h264bsd_seq_param_set.o
LOAD /home/wh/.HoneyGUI-SDK/realgui/3rd/h264bsd/src/h264bsd_slice_data.o
LOAD /home/wh/.HoneyGUI-SDK/realgui/3rd/h264bsd/src/h264bsd_slice_group_map.o
LOAD /home/wh/.HoneyGUI-SDK/realgui/3rd/h264bsd/src/h264bsd_slice_header.o
LOAD /home/wh/.HoneyGUI-SDK/realgui/3rd/h264bsd/src/h264bsd_storage.o
LOAD /home/wh/.HoneyGUI-SDK/realgui/3rd/h264bsd/src/h264bsd_stream.o
LOAD /home/wh/.HoneyGUI-SDK/realgui/3rd/h264bsd/src/h264bsd_transform.o
LOAD /home/wh/.HoneyGUI-SDK/realgui/3rd/h264bsd/src/h264bsd_util.o
LOAD /home/wh/.HoneyGUI-SDK/realgui/3rd/h264bsd/src/h264bsd_vlc.o
LOAD /home/wh/.HoneyGUI-SDK/realgui/3rd/h264bsd/src/h264bsd_vui.o
LOAD /home/wh/.HoneyGUI-SDK/realgui/3rd/h264bsd/port/h264bsd_port.o
LOAD /home/wh/.HoneyGUI-SDK/realgui/3rd/tjpgd/tjpgd.o
LOAD /home/wh/.HoneyGUI-SDK/realgui/3rd/ezXML/ezxml.o
LOAD /home/wh/.HoneyGUI-SDK/realgui/3rd/stb/stb_image.o
LOAD /home/wh/.HoneyGUI-SDK/realgui/widget/gui_view/gui_view.o
LOAD /home/wh/.HoneyGUI-SDK/realgui/widget/gui_view/gui_view_animate.o
LOAD /home/wh/.HoneyGUI-SDK/realgui/widget/gui_view/gui_view_blur.o
LOAD /home/wh/.HoneyGUI-SDK/realgui/widget/gui_view/gui_view_cube.o
LOAD /home/wh/.HoneyGUI-SDK/realgui/widget/gui_view/gui_view_descriptor.o
LOAD /home/wh/.HoneyGUI-SDK/realgui/widget/gui_view/gui_view_reduction.o
LOAD /home/wh/.HoneyGUI-SDK/realgui/widget/gui_view/gui_view_rotate.o
LOAD /home/wh/.HoneyGUI-SDK/realgui/widget/gui_view/gui_view_translation.o
LOAD /home/wh/.HoneyGUI-SDK/realgui/widget/gui_text/gui_scroll_text.o
LOAD /home/wh/.HoneyGUI-SDK/realgui/widget/gui_text/gui_text.o
LOAD /home/wh/.HoneyGUI-SDK/realgui/widget/gui_lite_geometry/gui_lite_geometry_arc.o
LOAD /home/wh/.HoneyGUI-SDK/realgui/widget/gui_lite_geometry/gui_lite_geometry_circle.o
LOAD /home/wh/.HoneyGUI-SDK/realgui/widget/gui_lite_geometry/gui_lite_geometry_round_rect.o
LOAD /home/wh/.HoneyGUI-SDK/realgui/widget/gui_lite_geometry/lite_geometry.o
LOAD /home/wh/.HoneyGUI-SDK/realgui/widget/gui_lite_geometry/lite_geometry_math.o
LOAD /home/wh/.HoneyGUI-SDK/realgui/widget/gui_list/gui_list.o
LOAD /home/wh/.HoneyGUI-SDK/realgui/widget/gui_list/gui_list_rotate_curl.o
LOAD /home/wh/.HoneyGUI-SDK/realgui/widget/gui_list/gui_list_rotate_helix.o
LOAD /home/wh/.HoneyGUI-SDK/realgui/widget/gui_qbcode/gui_barcode_gen.o
LOAD /home/wh/.HoneyGUI-SDK/realgui/widget/gui_qbcode/gui_qbcode.o
LOAD /home/wh/.HoneyGUI-SDK/realgui/widget/gui_qbcode/gui_qrcode_gen.o
LOAD /home/wh/.HoneyGUI-SDK/realgui/widget/gui_menu_cellular/gui_menu_cellular.o
LOAD /home/wh/.HoneyGUI-SDK/realgui/widget/gui_gray/gui_gray.o
LOAD /home/wh/.HoneyGUI-SDK/realgui/widget/gui_obj/gui_obj.o
LOAD /home/wh/.HoneyGUI-SDK/realgui/widget/gui_obj/gui_obj_event.o
LOAD /home/wh/.HoneyGUI-SDK/realgui/widget/gui_obj/gui_obj_suppress.o
LOAD /home/wh/.HoneyGUI-SDK/realgui/widget/gui_obj/gui_obj_timer.o
LOAD /home/wh/.HoneyGUI-SDK/realgui/widget/gui_obj/gui_obj_tree.o
LOAD /home/wh/.HoneyGUI-SDK/realgui/widget/gui_soccer/gui_soccer.o
LOAD /home/wh/.HoneyGUI-SDK/realgui/widget/gui_glass/gui_glass.o
LOAD /home/wh/.HoneyGUI-SDK/realgui/widget/gui_img/gui_img.o
LOAD /home/wh/.HoneyGUI-SDK/realgui/widget/gui_img/gui_img_api.o
LOAD /home/wh/.HoneyGUI-SDK/realgui/widget/gui_video/gui_video.o
LOAD /home/wh/.HoneyGUI-SDK/realgui/widget/gui_win/gui_win.o
LOAD /home/wh/.HoneyGUI-SDK/realgui/widget/gui_canvas/gui_canvas.o
LOAD /home/wh/.HoneyGUI-SDK/realgui/widget/gui_canvas/gui_canvas_arc.o
LOAD /home/wh/.HoneyGUI-SDK/realgui/widget/gui_canvas/gui_canvas_img.o
LOAD /home/wh/.HoneyGUI-SDK/realgui/widget/gui_canvas/gui_canvas_rect.o
LOAD /home/wh/.HoneyGUI-SDK/realgui/widget/gui_canvas/gui_canvas_round_rect.o
LOAD /home/wh/.HoneyGUI-SDK/realgui/engine/acc_api.o
LOAD /home/wh/.HoneyGUI-SDK/realgui/engine/draw_font.o
LOAD /home/wh/.HoneyGUI-SDK/realgui/engine/draw_img.o
LOAD /home/wh/.HoneyGUI-SDK/realgui/engine/engine_gray.o
LOAD /home/wh/.HoneyGUI-SDK/realgui/engine/gui_matrix.o
LOAD /home/wh/.HoneyGUI-SDK/realgui/engine/gui_post_process.o
LOAD /home/wh/.HoneyGUI-SDK/realgui/engine/font/font_custom.o
LOAD /home/wh/.HoneyGUI-SDK/realgui/engine/font/font_mem.o
LOAD /home/wh/.HoneyGUI-SDK/realgui/engine/font/font_mem_img.o
LOAD /home/wh/.HoneyGUI-SDK/realgui/engine/font/font_mem_matrix.o
LOAD /home/wh/.HoneyGUI-SDK/realgui/engine/font/font_rendering_utils.o
LOAD /home/wh/.HoneyGUI-SDK/realgui/engine/font/font_stb.o
LOAD /home/wh/.HoneyGUI-SDK/realgui/engine/font/font_ttf.o
LOAD /home/wh/.HoneyGUI-SDK/realgui/engine/sw/a8_2_a8.o
LOAD /home/wh/.HoneyGUI-SDK/realgui/engine/sw/a8_2_rgb565.o
LOAD /home/wh/.HoneyGUI-SDK/realgui/engine/sw/acc_sw.o
LOAD /home/wh/.HoneyGUI-SDK/realgui/engine/sw/acc_sw_arm2d_blur.o
LOAD /home/wh/.HoneyGUI-SDK/realgui/engine/sw/acc_sw_raster.o
LOAD /home/wh/.HoneyGUI-SDK/realgui/engine/sw/argb8565_2_rgb565.o
LOAD /home/wh/.HoneyGUI-SDK/realgui/engine/sw/rgb565_2_rgb565.o
LOAD /home/wh/.HoneyGUI-SDK/realgui/engine/sw/idu/acc_sw_idu.o
LOAD /home/wh/.HoneyGUI-SDK/realgui/engine/sw/rle/acc_sw_rle.o
LOAD /home/wh/.HoneyGUI-SDK/realgui/engine/sw/rle/acc_sw_rle_bypass.o
LOAD /home/wh/.HoneyGUI-SDK/realgui/engine/sw/rle/acc_sw_rle_cover.o
LOAD /home/wh/.HoneyGUI-SDK/realgui/engine/sw/rle/acc_sw_rle_filter.o
LOAD /home/wh/.HoneyGUI-SDK/realgui/dc/gui_fb.o
LOAD /home/wh/.HoneyGUI-SDK/realgui/misc/tlsf/tlsf.o
LOAD /home/wh/.HoneyGUI-SDK/example/widget/image/example_gui_img.o
LOAD /usr/lib/gcc/x86_64-linux-gnu/11/../../../x86_64-linux-gnu/libSDL2.so
LOAD /usr/lib/gcc/x86_64-linux-gnu/11/../../../x86_64-linux-gnu/libGL.so
LOAD /usr/lib/gcc/x86_64-linux-gnu/11/../../../x86_64-linux-gnu/libpthread.a
LOAD /usr/lib/gcc/x86_64-linux-gnu/11/../../../x86_64-linux-gnu/libdl.a
LOAD /usr/lib/gcc/x86_64-linux-gnu/11/libstdc++.so
LOAD /usr/lib/gcc/x86_64-linux-gnu/11/../../../x86_64-linux-gnu/libm.so
START GROUP
LOAD /lib/x86_64-linux-gnu/libm.so.6
LOAD /lib/x86_64-linux-gnu/libmvec.so.1
END GROUP
LOAD /usr/lib/gcc/x86_64-linux-gnu/11/libgcc_s.so
START GROUP
LOAD /usr/lib/gcc/x86_64-linux-gnu/11/../../../x86_64-linux-gnu/libgcc_s.so.1
LOAD /usr/lib/gcc/x86_64-linux-gnu/11/libgcc.a
END GROUP
LOAD /usr/lib/gcc/x86_64-linux-gnu/11/libgcc.a
LOAD /usr/lib/gcc/x86_64-linux-gnu/11/../../../x86_64-linux-gnu/libpthread.a
LOAD /usr/lib/gcc/x86_64-linux-gnu/11/../../../x86_64-linux-gnu/libc.so
START GROUP
LOAD /lib/x86_64-linux-gnu/libc.so.6
LOAD /usr/lib/x86_64-linux-gnu/libc_nonshared.a
LOAD /lib64/ld-linux-x86-64.so.2
END GROUP
LOAD /usr/lib/gcc/x86_64-linux-gnu/11/libgcc_s.so
START GROUP
LOAD /usr/lib/gcc/x86_64-linux-gnu/11/../../../x86_64-linux-gnu/libgcc_s.so.1
LOAD /usr/lib/gcc/x86_64-linux-gnu/11/libgcc.a
END GROUP
LOAD /usr/lib/gcc/x86_64-linux-gnu/11/libgcc.a
LOAD /usr/lib/gcc/x86_64-linux-gnu/11/crtendS.o
LOAD /usr/lib/gcc/x86_64-linux-gnu/11/../../../x86_64-linux-gnu/crtn.o

.honeygui_init  0x0000000000200f38       0x20
                0x0000000000200f38                __honeygui_init_start = .
 *(SORT_BY_NAME(.honeygui$init*))
 .honeygui$init0
                0x0000000000200f38        0x8 /home/wh/.HoneyGUI-SDK/realgui/server/gui_components_init.o
 .honeygui$init6
                0x0000000000200f40        0x8 /home/wh/.HoneyGUI-SDK/realgui/widget/gui_view/gui_view_descriptor.o
 .honeygui$init7
                0x0000000000200f48        0x8 /home/wh/.HoneyGUI-SDK/example/widget/image/example_gui_img.o
                0x0000000000200f48                __honeygui_init_app_init
 .honeygui$initZ
                0x0000000000200f50        0x8 /home/wh/.HoneyGUI-SDK/realgui/server/gui_components_init.o
                0x0000000000200f58                __honeygui_init_end = .

.shellCommand   0x0000000000200f58        0x0
                0x0000000000200f58                _shell_command_start = .
 *(.shellCommand)
                0x0000000000200f58                _shell_command_end = .

.rodata1
 *(.rodata1)

.eh_frame_hdr   0x0000000000200f58     0x57bc
 *(.eh_frame_hdr)
 .eh_frame_hdr  0x0000000000200f58     0x57bc /usr/lib/gcc/x86_64-linux-gnu/11/../../../x86_64-linux-gnu/Scrt1.o
                0x0000000000200f58                __GNU_EH_FRAME_HDR
 *(.eh_frame_entry .eh_frame_entry.*)

.eh_frame       0x0000000000206718    0x163bc
 *(.eh_frame)
 .eh_frame      0x0000000000206718       0x30 /usr/lib/gcc/x86_64-linux-gnu/11/../../../x86_64-linux-gnu/Scrt1.o
                                         0x2c (size before relaxing)
 *fill*         0x0000000000206748        0x0 
 .eh_frame      0x0000000000206748       0x28 /usr/lib/gcc/x86_64-linux-gnu/11/../../../x86_64-linux-gnu/Scrt1.o
                                         0x40 (size before relaxing)
 .eh_frame      0x0000000000206770       0x18 /usr/lib/gcc/x86_64-linux-gnu/11/../../../x86_64-linux-gnu/Scrt1.o
                                         0x30 (size before relaxing)
 .eh_frame      0x0000000000206788       0x18 /usr/lib/gcc/x86_64-linux-gnu/11/../../../x86_64-linux-gnu/Scrt1.o
                                         0x30 (size before relaxing)
 .eh_frame      0x00000000002067a0       0x20 build/main.o
                                         0x38 (size before relaxing)
 .eh_frame      0x00000000002067c0       0x20 build/port/realgui_port/gui_port_acc.o
                                         0x38 (size before relaxing)
 .eh_frame      0x00000000002067e0       0x40 build/port/realgui_port/gui_port_dc.o
                                         0x58 (size before relaxing)
 .eh_frame      0x0000000000206820       0xc0 build/port/realgui_port/gui_port_filesystem.o
                                         0xd8 (size before relaxing)
 .eh_frame      0x00000000002068e0       0x80 build/port/realgui_port/gui_port_ftl.o
                                         0x98 (size before relaxing)
 .eh_frame      0x0000000000206960       0x80 build/port/realgui_port/gui_port_indev.o
                                         0x98 (size before relaxing)
 .eh_frame      0x00000000002069e0      0x1c0 build/port/realgui_port/gui_port_os.o
                                        0x1d8 (size before relaxing)
 .eh_frame      0x0000000000206ba0      0x120 build/port/realgui_port/gui_queue.o
                                        0x138 (size before relaxing)
 .eh_frame      0x0000000000206cc0       0x60 build/port/realgui_port/sdl_driver.o
                                         0x78 (size before relaxing)
 .eh_frame      0x0000000000206d20       0xe0 /home/wh/.HoneyGUI-SDK/realgui/input/kb_algo.o
                                         0xf8 (size before relaxing)
 .eh_frame      0x0000000000206e00      0x2d8 /home/wh/.HoneyGUI-SDK/realgui/input/tp_algo.o
                                        0x2f0 (size before relaxing)
 .eh_frame      0x00000000002070d8       0x40 /home/wh/.HoneyGUI-SDK/realgui/input/wheel_algo.o
                                         0x58 (size before relaxing)
 .eh_frame      0x0000000000207118       0x40 /home/wh/.HoneyGUI-SDK/realgui/server/gui_api_acc.o
                                         0x58 (size before relaxing)
 .eh_frame      0x0000000000207158      0x120 /home/wh/.HoneyGUI-SDK/realgui/server/gui_api_color.o
                                        0x138 (size before relaxing)
 .eh_frame      0x0000000000207278      0x100 /home/wh/.HoneyGUI-SDK/realgui/server/gui_api_dc.o
                                        0x118 (size before relaxing)
 .eh_frame      0x0000000000207378      0x208 /home/wh/.HoneyGUI-SDK/realgui/server/gui_api_fs.o
                                        0x220 (size before relaxing)
 .eh_frame      0x0000000000207580       0x80 /home/wh/.HoneyGUI-SDK/realgui/server/gui_api_ftl.o
                                         0x98 (size before relaxing)
 .eh_frame      0x0000000000207600       0xc0 /home/wh/.HoneyGUI-SDK/realgui/server/gui_api_indev.o
                                         0xd8 (size before relaxing)
 .eh_frame      0x00000000002076c0      0x3c0 /home/wh/.HoneyGUI-SDK/realgui/server/gui_api_os.o
                                        0x3d8 (size before relaxing)
 .eh_frame      0x0000000000207a80       0x20 /home/wh/.HoneyGUI-SDK/realgui/server/gui_components_init.o
                                         0x38 (size before relaxing)
 .eh_frame      0x0000000000207aa0       0xc0 /home/wh/.HoneyGUI-SDK/realgui/server/gui_message.o
                                         0xd8 (size before relaxing)
 .eh_frame      0x0000000000207b60       0x20 /home/wh/.HoneyGUI-SDK/realgui/server/gui_pm.o
                                         0x38 (size before relaxing)
 .eh_frame      0x0000000000207b80       0x60 /home/wh/.HoneyGUI-SDK/realgui/server/gui_server.o
                                         0x78 (size before relaxing)
 .eh_frame      0x0000000000207be0      0xe10 /home/wh/.HoneyGUI-SDK/realgui/3rd/cJSON/cJSON.o
                                        0xe28 (size before relaxing)
 .eh_frame      0x00000000002089f0       0xc0 /home/wh/.HoneyGUI-SDK/realgui/3rd/nanovg/base/nanovg_port.o
                                         0xd8 (size before relaxing)
 .eh_frame      0x0000000000208ab0     0x11b8 /home/wh/.HoneyGUI-SDK/realgui/3rd/nanovg/base/nanovg.o
                                       0x11d0 (size before relaxing)
 .eh_frame      0x0000000000209c68       0xe0 /home/wh/.HoneyGUI-SDK/realgui/3rd/nanovg/agge/math.o
                                         0xf8 (size before relaxing)
 .eh_frame      0x0000000000209d48      0x570 /home/wh/.HoneyGUI-SDK/realgui/3rd/nanovg/agge/stroke.o
                                        0x588 (size before relaxing)
 .eh_frame      0x000000000020a2b8      0x420 /home/wh/.HoneyGUI-SDK/realgui/3rd/nanovg/agge/stroke_features.o
                                        0x4b8 (size before relaxing)
 .eh_frame      0x000000000020a6d8      0x570 /home/wh/.HoneyGUI-SDK/realgui/3rd/nanovg/agge/vector_rasterizer.o
                                        0x5c8 (size before relaxing)
 .eh_frame      0x000000000020ac48     0x3988 /home/wh/.HoneyGUI-SDK/realgui/3rd/nanovg/agge/nanovg_agge.o
                                       0x3c60 (size before relaxing)
 .eh_frame      0x000000000020e5d0       0x80 /home/wh/.HoneyGUI-SDK/realgui/3rd/nanovg/agge/nanovg_vertex.o
                                         0x98 (size before relaxing)
 .eh_frame      0x000000000020e650      0x408 /home/wh/.HoneyGUI-SDK/realgui/3rd/gifdec/gifdec.o
                                        0x420 (size before relaxing)
 .eh_frame      0x000000000020ea58      0x780 /home/wh/.HoneyGUI-SDK/realgui/3rd/letter_shell/shell.o
                                        0x798 (size before relaxing)
 .eh_frame      0x000000000020f1d8       0x60 /home/wh/.HoneyGUI-SDK/realgui/3rd/letter_shell/shell_companion.o
                                         0x78 (size before relaxing)
 .eh_frame      0x000000000020f238      0x108 /home/wh/.HoneyGUI-SDK/realgui/3rd/letter_shell/shell_ext.o
                                        0x120 (size before relaxing)
 .eh_frame      0x000000000020f340       0x60 /home/wh/.HoneyGUI-SDK/realgui/3rd/letter_shell/shell_fs.o
                                         0x78 (size before relaxing)
 .eh_frame      0x000000000020f3a0       0x60 /home/wh/.HoneyGUI-SDK/realgui/3rd/letter_shell/shell_port.o
                                         0x78 (size before relaxing)
 .eh_frame      0x000000000020f400       0x80 /home/wh/.HoneyGUI-SDK/realgui/3rd/h264bsd/src/gui_h264bsd.o
                                         0x98 (size before relaxing)
 .eh_frame      0x000000000020f480       0x20 /home/wh/.HoneyGUI-SDK/realgui/3rd/h264bsd/src/h264bsd_byte_stream.o
                                         0x38 (size before relaxing)
 .eh_frame      0x000000000020f4a0       0xa0 /home/wh/.HoneyGUI-SDK/realgui/3rd/h264bsd/src/h264bsd_cavlc.o
                                         0xb8 (size before relaxing)
 .eh_frame      0x000000000020f540       0x60 /home/wh/.HoneyGUI-SDK/realgui/3rd/h264bsd/src/h264bsd_conceal.o
                                         0x78 (size before relaxing)
 .eh_frame      0x000000000020f5a0      0x268 /home/wh/.HoneyGUI-SDK/realgui/3rd/h264bsd/src/h264bsd_deblocking.o
                                        0x280 (size before relaxing)
 .eh_frame      0x000000000020f808      0x2e0 /home/wh/.HoneyGUI-SDK/realgui/3rd/h264bsd/src/h264bsd_decoder.o
                                        0x2f8 (size before relaxing)
 .eh_frame      0x000000000020fae8      0x308 /home/wh/.HoneyGUI-SDK/realgui/3rd/h264bsd/src/h264bsd_dpb.o
                                        0x320 (size before relaxing)
 .eh_frame      0x000000000020fdf0       0x40 /home/wh/.HoneyGUI-SDK/realgui/3rd/h264bsd/src/h264bsd_image.o
                                         0x58 (size before relaxing)
 .eh_frame      0x000000000020fe30      0x120 /home/wh/.HoneyGUI-SDK/realgui/3rd/h264bsd/src/h264bsd_inter_prediction.o
                                        0x138 (size before relaxing)
 .eh_frame      0x000000000020ff50      0x360 /home/wh/.HoneyGUI-SDK/realgui/3rd/h264bsd/src/h264bsd_intra_prediction.o
                                        0x378 (size before relaxing)
 .eh_frame      0x00000000002102b0      0x1a0 /home/wh/.HoneyGUI-SDK/realgui/3rd/h264bsd/src/h264bsd_macroblock_layer.o
                                        0x1b8 (size before relaxing)
 .eh_frame      0x0000000000210450       0x20 /home/wh/.HoneyGUI-SDK/realgui/3rd/h264bsd/src/h264bsd_nal_unit.o
                                         0x38 (size before relaxing)
 .eh_frame      0x0000000000210470       0xe0 /home/wh/.HoneyGUI-SDK/realgui/3rd/h264bsd/src/h264bsd_neighbour.o
                                         0xf8 (size before relaxing)
 .eh_frame      0x0000000000210550       0x20 /home/wh/.HoneyGUI-SDK/realgui/3rd/h264bsd/src/h264bsd_pic_order_cnt.o
                                         0x38 (size before relaxing)
 .eh_frame      0x0000000000210570       0x28 /home/wh/.HoneyGUI-SDK/realgui/3rd/h264bsd/src/h264bsd_pic_param_set.o
                                         0x40 (size before relaxing)
 .eh_frame      0x0000000000210598      0x200 /home/wh/.HoneyGUI-SDK/realgui/3rd/h264bsd/src/h264bsd_reconstruct.o
                                        0x218 (size before relaxing)
 .eh_frame      0x0000000000210798      0x280 /home/wh/.HoneyGUI-SDK/realgui/3rd/h264bsd/src/h264bsd_sei.o
                                        0x298 (size before relaxing)
 .eh_frame      0x0000000000210a18       0x60 /home/wh/.HoneyGUI-SDK/realgui/3rd/h264bsd/src/h264bsd_seq_param_set.o
                                         0x78 (size before relaxing)
 .eh_frame      0x0000000000210a78       0x60 /home/wh/.HoneyGUI-SDK/realgui/3rd/h264bsd/src/h264bsd_slice_data.o
                                         0x78 (size before relaxing)
 .eh_frame      0x0000000000210ad8       0xe0 /home/wh/.HoneyGUI-SDK/realgui/3rd/h264bsd/src/h264bsd_slice_group_map.o
                                         0xf8 (size before relaxing)
 .eh_frame      0x0000000000210bb8      0x180 /home/wh/.HoneyGUI-SDK/realgui/3rd/h264bsd/src/h264bsd_slice_header.o
                                        0x198 (size before relaxing)
 .eh_frame      0x0000000000210d38      0x168 /home/wh/.HoneyGUI-SDK/realgui/3rd/h264bsd/src/h264bsd_storage.o
                                        0x180 (size before relaxing)
 .eh_frame      0x0000000000210ea0       0x80 /home/wh/.HoneyGUI-SDK/realgui/3rd/h264bsd/src/h264bsd_stream.o
                                         0x98 (size before relaxing)
 .eh_frame      0x0000000000210f20       0x60 /home/wh/.HoneyGUI-SDK/realgui/3rd/h264bsd/src/h264bsd_transform.o
                                         0x78 (size before relaxing)
 .eh_frame      0x0000000000210f80       0xa0 /home/wh/.HoneyGUI-SDK/realgui/3rd/h264bsd/src/h264bsd_util.o
                                         0xb8 (size before relaxing)
 .eh_frame      0x0000000000211020       0x80 /home/wh/.HoneyGUI-SDK/realgui/3rd/h264bsd/src/h264bsd_vlc.o
                                         0x98 (size before relaxing)
 .eh_frame      0x00000000002110a0       0x40 /home/wh/.HoneyGUI-SDK/realgui/3rd/h264bsd/src/h264bsd_vui.o
                                         0x58 (size before relaxing)
 .eh_frame      0x00000000002110e0      0x120 /home/wh/.HoneyGUI-SDK/realgui/3rd/h264bsd/port/h264bsd_port.o
                                        0x138 (size before relaxing)
 .eh_frame      0x0000000000211200      0x160 /home/wh/.HoneyGUI-SDK/realgui/3rd/tjpgd/tjpgd.o
                                        0x178 (size before relaxing)
 .eh_frame      0x0000000000211360      0x4c8 /home/wh/.HoneyGUI-SDK/realgui/3rd/ezXML/ezxml.o
                                        0x4e0 (size before relaxing)
 .eh_frame      0x0000000000211828     0x12a8 /home/wh/.HoneyGUI-SDK/realgui/3rd/stb/stb_image.o
                                       0x12c0 (size before relaxing)
 .eh_frame      0x0000000000212ad0      0x320 /home/wh/.HoneyGUI-SDK/realgui/widget/gui_view/gui_view.o
                                        0x338 (size before relaxing)
 .eh_frame      0x0000000000212df0      0x220 /home/wh/.HoneyGUI-SDK/realgui/widget/gui_view/gui_view_animate.o
                                        0x238 (size before relaxing)
 .eh_frame      0x0000000000213010       0x40 /home/wh/.HoneyGUI-SDK/realgui/widget/gui_view/gui_view_blur.o
                                         0x58 (size before relaxing)
 .eh_frame      0x0000000000213050       0x20 /home/wh/.HoneyGUI-SDK/realgui/widget/gui_view/gui_view_cube.o
                                         0x38 (size before relaxing)
 .eh_frame      0x0000000000213070       0x68 /home/wh/.HoneyGUI-SDK/realgui/widget/gui_view/gui_view_descriptor.o
                                         0x80 (size before relaxing)
 .eh_frame      0x00000000002130d8       0x20 /home/wh/.HoneyGUI-SDK/realgui/widget/gui_view/gui_view_reduction.o
                                         0x38 (size before relaxing)
 .eh_frame      0x00000000002130f8       0x20 /home/wh/.HoneyGUI-SDK/realgui/widget/gui_view/gui_view_rotate.o
                                         0x38 (size before relaxing)
 .eh_frame      0x0000000000213118       0x20 /home/wh/.HoneyGUI-SDK/realgui/widget/gui_view/gui_view_translation.o
                                         0x38 (size before relaxing)
 .eh_frame      0x0000000000213138      0x340 /home/wh/.HoneyGUI-SDK/realgui/widget/gui_text/gui_scroll_text.o
                                        0x358 (size before relaxing)
 .eh_frame      0x0000000000213478      0x500 /home/wh/.HoneyGUI-SDK/realgui/widget/gui_text/gui_text.o
                                        0x518 (size before relaxing)
 .eh_frame      0x0000000000213978      0x320 /home/wh/.HoneyGUI-SDK/realgui/widget/gui_lite_geometry/gui_lite_geometry_arc.o
                                        0x338 (size before relaxing)
 .eh_frame      0x0000000000213c98      0x2a0 /home/wh/.HoneyGUI-SDK/realgui/widget/gui_lite_geometry/gui_lite_geometry_circle.o
                                        0x2b8 (size before relaxing)
 .eh_frame      0x0000000000213f38      0x250 /home/wh/.HoneyGUI-SDK/realgui/widget/gui_lite_geometry/gui_lite_geometry_round_rect.o
                                        0x268 (size before relaxing)
 .eh_frame      0x0000000000214188      0x5d0 /home/wh/.HoneyGUI-SDK/realgui/widget/gui_lite_geometry/lite_geometry.o
                                        0x5e8 (size before relaxing)
 .eh_frame      0x0000000000214758       0xc0 /home/wh/.HoneyGUI-SDK/realgui/widget/gui_lite_geometry/lite_geometry_math.o
                                         0xd8 (size before relaxing)
 .eh_frame      0x0000000000214818      0x510 /home/wh/.HoneyGUI-SDK/realgui/widget/gui_list/gui_list.o
                                        0x528 (size before relaxing)
 .eh_frame      0x0000000000214d28       0x20 /home/wh/.HoneyGUI-SDK/realgui/widget/gui_list/gui_list_rotate_curl.o
                                         0x38 (size before relaxing)
 .eh_frame      0x0000000000214d48       0x20 /home/wh/.HoneyGUI-SDK/realgui/widget/gui_list/gui_list_rotate_helix.o
                                         0x38 (size before relaxing)
 .eh_frame      0x0000000000214d68      0x2a8 /home/wh/.HoneyGUI-SDK/realgui/widget/gui_qbcode/gui_barcode_gen.o
                                        0x2c0 (size before relaxing)
 .eh_frame      0x0000000000215010      0x1c0 /home/wh/.HoneyGUI-SDK/realgui/widget/gui_qbcode/gui_qbcode.o
                                        0x1d8 (size before relaxing)
 .eh_frame      0x00000000002151d0      0x568 /home/wh/.HoneyGUI-SDK/realgui/widget/gui_qbcode/gui_qrcode_gen.o
                                        0x580 (size before relaxing)
 .eh_frame      0x0000000000215738      0x140 /home/wh/.HoneyGUI-SDK/realgui/widget/gui_menu_cellular/gui_menu_cellular.o
                                        0x158 (size before relaxing)
 .eh_frame      0x0000000000215878      0x160 /home/wh/.HoneyGUI-SDK/realgui/widget/gui_gray/gui_gray.o
                                        0x178 (size before relaxing)
 .eh_frame      0x00000000002159d8      0x2c0 /home/wh/.HoneyGUI-SDK/realgui/widget/gui_obj/gui_obj.o
                                        0x2d8 (size before relaxing)
 .eh_frame      0x0000000000215c98       0xa0 /home/wh/.HoneyGUI-SDK/realgui/widget/gui_obj/gui_obj_event.o
                                         0xb8 (size before relaxing)
 .eh_frame      0x0000000000215d38       0x60 /home/wh/.HoneyGUI-SDK/realgui/widget/gui_obj/gui_obj_suppress.o
                                         0x78 (size before relaxing)
 .eh_frame      0x0000000000215d98       0xa8 /home/wh/.HoneyGUI-SDK/realgui/widget/gui_obj/gui_obj_timer.o
                                         0xc0 (size before relaxing)
 .eh_frame      0x0000000000215e40      0x288 /home/wh/.HoneyGUI-SDK/realgui/widget/gui_obj/gui_obj_tree.o
                                        0x2a0 (size before relaxing)
 .eh_frame      0x00000000002160c8      0x440 /home/wh/.HoneyGUI-SDK/realgui/widget/gui_soccer/gui_soccer.o
                                        0x458 (size before relaxing)
 .eh_frame      0x0000000000216508      0x360 /home/wh/.HoneyGUI-SDK/realgui/widget/gui_glass/gui_glass.o
                                        0x378 (size before relaxing)
 .eh_frame      0x0000000000216868      0x500 /home/wh/.HoneyGUI-SDK/realgui/widget/gui_img/gui_img.o
                                        0x518 (size before relaxing)
 .eh_frame      0x0000000000216d68       0x60 /home/wh/.HoneyGUI-SDK/realgui/widget/gui_img/gui_img_api.o
                                         0x78 (size before relaxing)
 .eh_frame      0x0000000000216dc8      0x428 /home/wh/.HoneyGUI-SDK/realgui/widget/gui_video/gui_video.o
                                        0x440 (size before relaxing)
 .eh_frame      0x00000000002171f0      0x3c0 /home/wh/.HoneyGUI-SDK/realgui/widget/gui_win/gui_win.o
                                        0x3d8 (size before relaxing)
 .eh_frame      0x00000000002175b0      0x160 /home/wh/.HoneyGUI-SDK/realgui/widget/gui_canvas/gui_canvas.o
                                        0x178 (size before relaxing)
 .eh_frame      0x0000000000217710      0x288 /home/wh/.HoneyGUI-SDK/realgui/widget/gui_canvas/gui_canvas_arc.o
                                        0x2a0 (size before relaxing)
 .eh_frame      0x0000000000217998      0x188 /home/wh/.HoneyGUI-SDK/realgui/widget/gui_canvas/gui_canvas_img.o
                                        0x1a0 (size before relaxing)
 .eh_frame      0x0000000000217b20      0x1c0 /home/wh/.HoneyGUI-SDK/realgui/widget/gui_canvas/gui_canvas_rect.o
                                        0x1d8 (size before relaxing)
 .eh_frame      0x0000000000217ce0      0x2e8 /home/wh/.HoneyGUI-SDK/realgui/widget/gui_canvas/gui_canvas_round_rect.o
                                        0x300 (size before relaxing)
 .eh_frame      0x0000000000217fc8      0xcd8 /home/wh/.HoneyGUI-SDK/realgui/engine/acc_api.o
                                        0xcf0 (size before relaxing)
 .eh_frame      0x0000000000218ca0      0x4a0 /home/wh/.HoneyGUI-SDK/realgui/engine/draw_font.o
                                        0x4b8 (size before relaxing)
 .eh_frame      0x0000000000219140       0xe8 /home/wh/.HoneyGUI-SDK/realgui/engine/draw_img.o
                                        0x100 (size before relaxing)
 .eh_frame      0x0000000000219228       0x40 /home/wh/.HoneyGUI-SDK/realgui/engine/engine_gray.o
                                         0x58 (size before relaxing)
 .eh_frame      0x0000000000219268      0x2e0 /home/wh/.HoneyGUI-SDK/realgui/engine/gui_matrix.o
                                        0x2f8 (size before relaxing)
 .eh_frame      0x0000000000219548       0x90 /home/wh/.HoneyGUI-SDK/realgui/engine/gui_post_process.o
                                         0xa8 (size before relaxing)
 .eh_frame      0x00000000002195d8       0xa0 /home/wh/.HoneyGUI-SDK/realgui/engine/font/font_custom.o
                                         0xb8 (size before relaxing)
 .eh_frame      0x0000000000219678      0x228 /home/wh/.HoneyGUI-SDK/realgui/engine/font/font_mem.o
                                        0x240 (size before relaxing)
 .eh_frame      0x00000000002198a0       0x60 /home/wh/.HoneyGUI-SDK/realgui/engine/font/font_mem_img.o
                                         0x78 (size before relaxing)
 .eh_frame      0x0000000000219900      0x170 /home/wh/.HoneyGUI-SDK/realgui/engine/font/font_mem_matrix.o
                                        0x188 (size before relaxing)
 .eh_frame      0x0000000000219a70      0x4d8 /home/wh/.HoneyGUI-SDK/realgui/engine/font/font_rendering_utils.o
                                        0x4f0 (size before relaxing)
 .eh_frame      0x0000000000219f48     0x1280 /home/wh/.HoneyGUI-SDK/realgui/engine/font/font_stb.o
                                       0x1298 (size before relaxing)
 .eh_frame      0x000000000021b1c8      0x228 /home/wh/.HoneyGUI-SDK/realgui/engine/font/font_ttf.o
                                        0x240 (size before relaxing)
 .eh_frame      0x000000000021b3f0      0x100 /home/wh/.HoneyGUI-SDK/realgui/engine/sw/a8_2_a8.o
                                        0x118 (size before relaxing)
 .eh_frame      0x000000000021b4f0      0x1e0 /home/wh/.HoneyGUI-SDK/realgui/engine/sw/a8_2_rgb565.o
                                        0x1f8 (size before relaxing)
 .eh_frame      0x000000000021b6d0       0xa0 /home/wh/.HoneyGUI-SDK/realgui/engine/sw/acc_sw.o
                                         0xb8 (size before relaxing)
 .eh_frame      0x000000000021b770      0x160 /home/wh/.HoneyGUI-SDK/realgui/engine/sw/acc_sw_arm2d_blur.o
                                        0x178 (size before relaxing)
 .eh_frame      0x000000000021b8d0      0x108 /home/wh/.HoneyGUI-SDK/realgui/engine/sw/acc_sw_raster.o
                                        0x120 (size before relaxing)
 .eh_frame      0x000000000021b9d8      0x130 /home/wh/.HoneyGUI-SDK/realgui/engine/sw/argb8565_2_rgb565.o
                                        0x148 (size before relaxing)
 .eh_frame      0x000000000021bb08      0x220 /home/wh/.HoneyGUI-SDK/realgui/engine/sw/rgb565_2_rgb565.o
                                        0x238 (size before relaxing)
 .eh_frame      0x000000000021bd28      0x1a0 /home/wh/.HoneyGUI-SDK/realgui/engine/sw/idu/acc_sw_idu.o
                                        0x1b8 (size before relaxing)
 .eh_frame      0x000000000021bec8      0x140 /home/wh/.HoneyGUI-SDK/realgui/engine/sw/rle/acc_sw_rle.o
                                        0x158 (size before relaxing)
 .eh_frame      0x000000000021c008       0x40 /home/wh/.HoneyGUI-SDK/realgui/engine/sw/rle/acc_sw_rle_bypass.o
                                         0x58 (size before relaxing)
 .eh_frame      0x000000000021c048       0x30 /home/wh/.HoneyGUI-SDK/realgui/engine/sw/rle/acc_sw_rle_cover.o
                                         0x48 (size before relaxing)
 .eh_frame      0x000000000021c078       0x40 /home/wh/.HoneyGUI-SDK/realgui/engine/sw/rle/acc_sw_rle_filter.o
                                         0x58 (size before relaxing)
 .eh_frame      0x000000000021c0b8      0x1a0 /home/wh/.HoneyGUI-SDK/realgui/dc/gui_fb.o
                                        0x1b8 (size before relaxing)
 .eh_frame      0x000000000021c258      0x818 /home/wh/.HoneyGUI-SDK/realgui/misc/tlsf/tlsf.o
                                        0x830 (size before relaxing)
 .eh_frame      0x000000000021ca70       0x60 /home/wh/.HoneyGUI-SDK/example/widget/image/example_gui_img.o
                                         0x78 (size before relaxing)
 .eh_frame      0x000000000021cad0        0x4 /usr/lib/gcc/x86_64-linux-gnu/11/crtendS.o
 *(.eh_frame.*)

.gcc_except_table
                0x000000000021cad4      0x166
 *(.gcc_except_table .gcc_except_table.*)
 .gcc_except_table
                0x000000000021cad4       0x11 /home/wh/.HoneyGUI-SDK/realgui/3rd/nanovg/agge/stroke.o
 .gcc_except_table
                0x000000000021cae5       0x20 /home/wh/.HoneyGUI-SDK/realgui/3rd/nanovg/agge/vector_rasterizer.o
 .gcc_except_table._ZN14AGGENVGcontextC2Ev
                0x000000000021cb05       0x1f /home/wh/.HoneyGUI-SDK/realgui/3rd/nanovg/agge/nanovg_agge.o
 .gcc_except_table._ZN14AGGENVGcontextD2Ev
                0x000000000021cb24        0x4 /home/wh/.HoneyGUI-SDK/realgui/3rd/nanovg/agge/nanovg_agge.o
 .gcc_except_table
                0x000000000021cb28      0x112 /home/wh/.HoneyGUI-SDK/realgui/3rd/nanovg/agge/nanovg_agge.o

.gnu_extab
 *(.gnu_extab*)

.exception_ranges
 *(.exception_ranges*)
                0x000000000021dec8                . = DATA_SEGMENT_ALIGN (CONSTANT (MAXPAGESIZE), CONSTANT (COMMONPAGESIZE))

.eh_frame
 *(.eh_frame)
 *(.eh_frame.*)

.gnu_extab
 *(.gnu_extab)

.gcc_except_table
 *(.gcc_except_table .gcc_except_table.*)

.exception_ranges
 *(.exception_ranges*)

.tdata          0x000000000021dec8        0x0
                [!provide]                        PROVIDE (__tdata_start = .)
 *(.tdata .tdata.* .gnu.linkonce.td.*)

.tbss
 *(.tbss .tbss.* .gnu.linkonce.tb.*)
 *(.tcommon)

.preinit_array  0x000000000021dec8        0x0
                [!provide]                        PROVIDE (__preinit_array_start = .)
 *(.preinit_array)
                [!provide]                        PROVIDE (__preinit_array_end = .)

.init_array     0x000000000021dec8       0x10
                [!provide]                        PROVIDE (__init_array_start = .)
 *(SORT_BY_INIT_PRIORITY(.init_array.*) SORT_BY_INIT_PRIORITY(.ctors.*))
 *(.init_array EXCLUDE_FILE(*crtend?.o *crtend.o *crtbegin?.o *crtbegin.o) .ctors)
 .init_array    0x000000000021dec8        0x8 /usr/lib/gcc/x86_64-linux-gnu/11/crtbeginS.o
 .init_array    0x000000000021ded0        0x8 /home/wh/.HoneyGUI-SDK/realgui/3rd/nanovg/agge/math.o
                [!provide]                        PROVIDE (__init_array_end = .)

.fini_array     0x000000000021ded8        0x8
                [!provide]                        PROVIDE (__fini_array_start = .)
 *(SORT_BY_INIT_PRIORITY(.fini_array.*) SORT_BY_INIT_PRIORITY(.dtors.*))
 *(.fini_array EXCLUDE_FILE(*crtend?.o *crtend.o *crtbegin?.o *crtbegin.o) .dtors)
 .fini_array    0x000000000021ded8        0x8 /usr/lib/gcc/x86_64-linux-gnu/11/crtbeginS.o
                [!provide]                        PROVIDE (__fini_array_end = .)

.ctors
 *crtbegin.o(.ctors)
 *crtbegin?.o(.ctors)
 *(EXCLUDE_FILE(*crtend?.o *crtend.o) .ctors)
 *(SORT_BY_NAME(.ctors.*))
 *(.ctors)

.dtors
 *crtbegin.o(.dtors)
 *crtbegin?.o(.dtors)
 *(EXCLUDE_FILE(*crtend?.o *crtend.o) .dtors)
 *(SORT_BY_NAME(.dtors.*))
 *(.dtors)

.jcr
 *(.jcr)

.data.rel.ro    0x000000000021dee0      0xb70
 *(.data.rel.ro.local* .gnu.linkonce.d.rel.ro.local.*)
 .data.rel.ro.local
                0x000000000021dee0      0x940 /home/wh/.HoneyGUI-SDK/realgui/server/gui_api_color.o
 .data.rel.ro.local._ZTVN4agge5joins5miterE
                0x000000000021e820       0x28 /home/wh/.HoneyGUI-SDK/realgui/3rd/nanovg/agge/stroke_features.o
                0x000000000021e820                vtable for agge::joins::miter
 .data.rel.ro.local._ZTVN4agge5joins5roundE
                0x000000000021e848       0x28 /home/wh/.HoneyGUI-SDK/realgui/3rd/nanovg/agge/stroke_features.o
                0x000000000021e848                vtable for agge::joins::round
 .data.rel.ro.local._ZTVN4agge5joins5bevelE
                0x000000000021e870       0x28 /home/wh/.HoneyGUI-SDK/realgui/3rd/nanovg/agge/stroke_features.o
                0x000000000021e870                vtable for agge::joins::bevel
 .data.rel.ro.local._ZTVN4agge4caps8triangleE
                0x000000000021e898       0x28 /home/wh/.HoneyGUI-SDK/realgui/3rd/nanovg/agge/stroke_features.o
                0x000000000021e898                vtable for agge::caps::triangle
 .data.rel.ro.local._ZTVN4agge4caps5roundE
                0x000000000021e8c0       0x28 /home/wh/.HoneyGUI-SDK/realgui/3rd/nanovg/agge/stroke_features.o
                0x000000000021e8c0                vtable for agge::caps::round
 .data.rel.ro.local._ZTVN4agge4caps6squareE
                0x000000000021e8e8       0x28 /home/wh/.HoneyGUI-SDK/realgui/3rd/nanovg/agge/stroke_features.o
                0x000000000021e8e8                vtable for agge::caps::square
 .data.rel.ro.local._ZTVN4agge4caps4buttE
                0x000000000021e910       0x28 /home/wh/.HoneyGUI-SDK/realgui/3rd/nanovg/agge/stroke_features.o
                0x000000000021e910                vtable for agge::caps::butt
 *(.data.rel.ro .data.rel.ro.* .gnu.linkonce.d.rel.ro.*)
 .data.rel.ro   0x000000000021e938        0x0 /usr/lib/gcc/x86_64-linux-gnu/11/../../../x86_64-linux-gnu/Scrt1.o
 .data.rel.ro._ZTVN4agge6stroke4joinE
                0x000000000021e938       0x28 /home/wh/.HoneyGUI-SDK/realgui/3rd/nanovg/agge/stroke_features.o
                0x000000000021e938                vtable for agge::stroke::join
 .data.rel.ro._ZTVN4agge6stroke3capE
                0x000000000021e960       0x28 /home/wh/.HoneyGUI-SDK/realgui/3rd/nanovg/agge/stroke_features.o
                0x000000000021e960                vtable for agge::stroke::cap
 .data.rel.ro._ZTIN4agge5joins5miterE
                0x000000000021e988       0x18 /home/wh/.HoneyGUI-SDK/realgui/3rd/nanovg/agge/stroke_features.o
                0x000000000021e988                typeinfo for agge::joins::miter
 .data.rel.ro._ZTIN4agge5joins5roundE
                0x000000000021e9a0       0x18 /home/wh/.HoneyGUI-SDK/realgui/3rd/nanovg/agge/stroke_features.o
                0x000000000021e9a0                typeinfo for agge::joins::round
 .data.rel.ro._ZTIN4agge5joins5bevelE
                0x000000000021e9b8       0x18 /home/wh/.HoneyGUI-SDK/realgui/3rd/nanovg/agge/stroke_features.o
                0x000000000021e9b8                typeinfo for agge::joins::bevel
 .data.rel.ro._ZTIN4agge4caps8triangleE
                0x000000000021e9d0       0x18 /home/wh/.HoneyGUI-SDK/realgui/3rd/nanovg/agge/stroke_features.o
                0x000000000021e9d0                typeinfo for agge::caps::triangle
 .data.rel.ro._ZTIN4agge4caps5roundE
                0x000000000021e9e8       0x18 /home/wh/.HoneyGUI-SDK/realgui/3rd/nanovg/agge/stroke_features.o
                0x000000000021e9e8                typeinfo for agge::caps::round
 .data.rel.ro._ZTIN4agge4caps6squareE
                0x000000000021ea00       0x18 /home/wh/.HoneyGUI-SDK/realgui/3rd/nanovg/agge/stroke_features.o
                0x000000000021ea00                typeinfo for agge::caps::square
 .data.rel.ro._ZTIN4agge4caps4buttE
                0x000000000021ea18       0x18 /home/wh/.HoneyGUI-SDK/realgui/3rd/nanovg/agge/stroke_features.o
                0x000000000021ea18                typeinfo for agge::caps::butt
 .data.rel.ro._ZTIN4agge6stroke4joinE
                0x000000000021ea30       0x10 /home/wh/.HoneyGUI-SDK/realgui/3rd/nanovg/agge/stroke_features.o
                0x000000000021ea30                typeinfo for agge::stroke::join
 .data.rel.ro._ZTIN4agge6stroke3capE
                0x000000000021ea40       0x10 /home/wh/.HoneyGUI-SDK/realgui/3rd/nanovg/agge/stroke_features.o
                0x000000000021ea40                typeinfo for agge::stroke::cap

.dynamic        0x000000000021ea50      0x230
 *(.dynamic)
 .dynamic       0x000000000021ea50      0x230 /usr/lib/gcc/x86_64-linux-gnu/11/../../../x86_64-linux-gnu/Scrt1.o
                0x000000000021ea50                _DYNAMIC

.got            0x000000000021ec80      0x378
 *(.got.plt)
 .got.plt       0x000000000021ec80      0x338 /usr/lib/gcc/x86_64-linux-gnu/11/../../../x86_64-linux-gnu/Scrt1.o
                0x000000000021ec80                _GLOBAL_OFFSET_TABLE_
 *(.igot.plt)
 *(.got)
 .got           0x000000000021efb8       0x40 /usr/lib/gcc/x86_64-linux-gnu/11/../../../x86_64-linux-gnu/Scrt1.o
 *(.igot)
                0x000000000021f000                . = DATA_SEGMENT_RELRO_END (., 0x0)

.data           0x000000000021f000      0x7c4
 *(.data .data.* .gnu.linkonce.d.*)
 .data          0x000000000021f000        0x4 /usr/lib/gcc/x86_64-linux-gnu/11/../../../x86_64-linux-gnu/Scrt1.o
                0x000000000021f000                __data_start
                0x000000000021f000                data_start
 .data          0x000000000021f004        0x0 /usr/lib/gcc/x86_64-linux-gnu/11/../../../x86_64-linux-gnu/crti.o
 .data          0x000000000021f004        0x0 /usr/lib/gcc/x86_64-linux-gnu/11/crtbeginS.o
 *fill*         0x000000000021f004        0x4 
 .data.rel.local
                0x000000000021f008        0x8 /usr/lib/gcc/x86_64-linux-gnu/11/crtbeginS.o
                0x000000000021f008                __dso_handle
 .data          0x000000000021f010        0x0 build/main.o
 .data          0x000000000021f010        0x0 build/port/realgui_port/gui_port_acc.o
 *fill*         0x000000000021f010       0x10 
 .data.rel      0x000000000021f020       0x50 build/port/realgui_port/gui_port_acc.o
 .data          0x000000000021f070        0x0 build/port/realgui_port/gui_port_dc.o
 *fill*         0x000000000021f070       0x10 
 .data.rel.local
                0x000000000021f080       0xb8 build/port/realgui_port/gui_port_dc.o
 .data          0x000000000021f138        0x0 build/port/realgui_port/gui_port_filesystem.o
 *fill*         0x000000000021f138        0x8 
 .data.rel      0x000000000021f140       0x50 build/port/realgui_port/gui_port_filesystem.o
 .data          0x000000000021f190        0x0 build/port/realgui_port/gui_port_ftl.o
 .data.rel.local
                0x000000000021f190       0x18 build/port/realgui_port/gui_port_ftl.o
 .data          0x000000000021f1a8        0x0 build/port/realgui_port/gui_port_indev.o
 *fill*         0x000000000021f1a8       0x18 
 .data.rel.local
                0x000000000021f1c0       0x38 build/port/realgui_port/gui_port_indev.o
 .data          0x000000000021f1f8        0x0 build/port/realgui_port/gui_port_os.o
 *fill*         0x000000000021f1f8        0x8 
 .data.rel.local
                0x000000000021f200       0xb0 build/port/realgui_port/gui_port_os.o
 .data          0x000000000021f2b0        0x0 build/port/realgui_port/gui_queue.o
 .data          0x000000000021f2b0        0xc build/port/realgui_port/sdl_driver.o
 *fill*         0x000000000021f2bc        0x4 
 .data          0x000000000021f2c0       0xb0 /home/wh/.HoneyGUI-SDK/realgui/input/kb_algo.o
 .data          0x000000000021f370        0x0 /home/wh/.HoneyGUI-SDK/realgui/input/tp_algo.o
 .data          0x000000000021f370       0x14 /home/wh/.HoneyGUI-SDK/realgui/input/wheel_algo.o
 .data          0x000000000021f384        0x0 /home/wh/.HoneyGUI-SDK/realgui/server/gui_api_acc.o
 .data          0x000000000021f384        0x0 /home/wh/.HoneyGUI-SDK/realgui/server/gui_api_color.o
 .data          0x000000000021f384        0x0 /home/wh/.HoneyGUI-SDK/realgui/server/gui_api_dc.o
 .data          0x000000000021f384        0x0 /home/wh/.HoneyGUI-SDK/realgui/server/gui_api_fs.o
 *fill*         0x000000000021f384        0x4 
 .data.rel.local
                0x000000000021f388        0x8 /home/wh/.HoneyGUI-SDK/realgui/server/gui_api_fs.o
                0x000000000021f388                defaultPath
 .data          0x000000000021f390        0x0 /home/wh/.HoneyGUI-SDK/realgui/server/gui_api_ftl.o
 .data          0x000000000021f390        0x0 /home/wh/.HoneyGUI-SDK/realgui/server/gui_api_indev.o
 .data          0x000000000021f390        0x0 /home/wh/.HoneyGUI-SDK/realgui/server/gui_api_os.o
 .data          0x000000000021f390        0x0 /home/wh/.HoneyGUI-SDK/realgui/server/gui_components_init.o
 .data          0x000000000021f390        0x4 /home/wh/.HoneyGUI-SDK/realgui/server/gui_message.o
 .data          0x000000000021f394        0x0 /home/wh/.HoneyGUI-SDK/realgui/server/gui_pm.o
 .data          0x000000000021f394        0x0 /home/wh/.HoneyGUI-SDK/realgui/server/gui_server.o
 .data          0x000000000021f394        0x0 /home/wh/.HoneyGUI-SDK/realgui/3rd/cJSON/cJSON.o
 *fill*         0x000000000021f394        0xc 
 .data.rel      0x000000000021f3a0       0x18 /home/wh/.HoneyGUI-SDK/realgui/3rd/cJSON/cJSON.o
 .data          0x000000000021f3b8        0x0 /home/wh/.HoneyGUI-SDK/realgui/3rd/nanovg/base/nanovg_port.o
 .data          0x000000000021f3b8        0x0 /home/wh/.HoneyGUI-SDK/realgui/3rd/nanovg/base/nanovg.o
 .data          0x000000000021f3b8        0x0 /home/wh/.HoneyGUI-SDK/realgui/3rd/nanovg/agge/math.o
 .data          0x000000000021f3b8        0x0 /home/wh/.HoneyGUI-SDK/realgui/3rd/nanovg/agge/stroke.o
 .data.rel.local.DW.ref.__gxx_personality_v0
                0x000000000021f3b8        0x8 /home/wh/.HoneyGUI-SDK/realgui/3rd/nanovg/agge/stroke.o
                0x000000000021f3b8                DW.ref.__gxx_personality_v0
 .data          0x000000000021f3c0        0x0 /home/wh/.HoneyGUI-SDK/realgui/3rd/nanovg/agge/stroke_features.o
 .data          0x000000000021f3c0        0x0 /home/wh/.HoneyGUI-SDK/realgui/3rd/nanovg/agge/vector_rasterizer.o
 .data          0x000000000021f3c0        0x0 /home/wh/.HoneyGUI-SDK/realgui/3rd/nanovg/agge/nanovg_agge.o
 .data          0x000000000021f3c0        0x0 /home/wh/.HoneyGUI-SDK/realgui/3rd/nanovg/agge/nanovg_vertex.o
 .data          0x000000000021f3c0        0x0 /home/wh/.HoneyGUI-SDK/realgui/3rd/gifdec/gifdec.o
 .data          0x000000000021f3c0        0x2 /home/wh/.HoneyGUI-SDK/realgui/3rd/letter_shell/shell.o
                0x000000000021f3c0                pairedChars
 *fill*         0x000000000021f3c2       0x1e 
 .data.rel.local
                0x000000000021f3e0       0xa8 /home/wh/.HoneyGUI-SDK/realgui/3rd/letter_shell/shell.o
 .data          0x000000000021f488        0x0 /home/wh/.HoneyGUI-SDK/realgui/3rd/letter_shell/shell_companion.o
 .data          0x000000000021f488        0x0 /home/wh/.HoneyGUI-SDK/realgui/3rd/letter_shell/shell_ext.o
 .data          0x000000000021f488        0x0 /home/wh/.HoneyGUI-SDK/realgui/3rd/letter_shell/shell_fs.o
 .data          0x000000000021f488        0x0 /home/wh/.HoneyGUI-SDK/realgui/3rd/letter_shell/shell_port.o
 .data          0x000000000021f488        0x0 /home/wh/.HoneyGUI-SDK/realgui/3rd/h264bsd/src/YUV2RGB.o
 .data          0x000000000021f488        0x0 /home/wh/.HoneyGUI-SDK/realgui/3rd/h264bsd/src/gui_h264bsd.o
 .data          0x000000000021f488        0x0 /home/wh/.HoneyGUI-SDK/realgui/3rd/h264bsd/src/h264bsdTest.o
 .data          0x000000000021f488        0x0 /home/wh/.HoneyGUI-SDK/realgui/3rd/h264bsd/src/h264bsd_byte_stream.o
 .data          0x000000000021f488        0x0 /home/wh/.HoneyGUI-SDK/realgui/3rd/h264bsd/src/h264bsd_cavlc.o
 .data          0x000000000021f488        0x0 /home/wh/.HoneyGUI-SDK/realgui/3rd/h264bsd/src/h264bsd_conceal.o
 .data          0x000000000021f488        0x0 /home/wh/.HoneyGUI-SDK/realgui/3rd/h264bsd/src/h264bsd_deblocking.o
 .data          0x000000000021f488        0x0 /home/wh/.HoneyGUI-SDK/realgui/3rd/h264bsd/src/h264bsd_decoder.o
 .data          0x000000000021f488        0x0 /home/wh/.HoneyGUI-SDK/realgui/3rd/h264bsd/src/h264bsd_dpb.o
 .data          0x000000000021f488        0x0 /home/wh/.HoneyGUI-SDK/realgui/3rd/h264bsd/src/h264bsd_image.o
 .data          0x000000000021f488        0x0 /home/wh/.HoneyGUI-SDK/realgui/3rd/h264bsd/src/h264bsd_inter_prediction.o
 .data          0x000000000021f488        0x0 /home/wh/.HoneyGUI-SDK/realgui/3rd/h264bsd/src/h264bsd_intra_prediction.o
 .data          0x000000000021f488        0x0 /home/wh/.HoneyGUI-SDK/realgui/3rd/h264bsd/src/h264bsd_macroblock_layer.o
 .data          0x000000000021f488        0x0 /home/wh/.HoneyGUI-SDK/realgui/3rd/h264bsd/src/h264bsd_nal_unit.o
 .data          0x000000000021f488        0x0 /home/wh/.HoneyGUI-SDK/realgui/3rd/h264bsd/src/h264bsd_neighbour.o
 .data          0x000000000021f488        0x0 /home/wh/.HoneyGUI-SDK/realgui/3rd/h264bsd/src/h264bsd_pic_order_cnt.o
 .data          0x000000000021f488        0x0 /home/wh/.HoneyGUI-SDK/realgui/3rd/h264bsd/src/h264bsd_pic_param_set.o
 .data          0x000000000021f488        0x0 /home/wh/.HoneyGUI-SDK/realgui/3rd/h264bsd/src/h264bsd_reconstruct.o
 .data          0x000000000021f488        0x0 /home/wh/.HoneyGUI-SDK/realgui/3rd/h264bsd/src/h264bsd_sei.o
 .data          0x000000000021f488        0x0 /home/wh/.HoneyGUI-SDK/realgui/3rd/h264bsd/src/h264bsd_seq_param_set.o
 .data          0x000000000021f488        0x0 /home/wh/.HoneyGUI-SDK/realgui/3rd/h264bsd/src/h264bsd_slice_data.o
 .data          0x000000000021f488        0x0 /home/wh/.HoneyGUI-SDK/realgui/3rd/h264bsd/src/h264bsd_slice_group_map.o
 .data          0x000000000021f488        0x0 /home/wh/.HoneyGUI-SDK/realgui/3rd/h264bsd/src/h264bsd_slice_header.o
 .data          0x000000000021f488        0x0 /home/wh/.HoneyGUI-SDK/realgui/3rd/h264bsd/src/h264bsd_storage.o
 .data          0x000000000021f488        0x0 /home/wh/.HoneyGUI-SDK/realgui/3rd/h264bsd/src/h264bsd_stream.o
 .data          0x000000000021f488        0x0 /home/wh/.HoneyGUI-SDK/realgui/3rd/h264bsd/src/h264bsd_transform.o
 .data          0x000000000021f488        0x0 /home/wh/.HoneyGUI-SDK/realgui/3rd/h264bsd/src/h264bsd_util.o
 .data          0x000000000021f488        0x0 /home/wh/.HoneyGUI-SDK/realgui/3rd/h264bsd/src/h264bsd_vlc.o
 .data          0x000000000021f488        0x0 /home/wh/.HoneyGUI-SDK/realgui/3rd/h264bsd/src/h264bsd_vui.o
 .data          0x000000000021f488        0x0 /home/wh/.HoneyGUI-SDK/realgui/3rd/h264bsd/port/h264bsd_port.o
 .data          0x000000000021f488        0x0 /home/wh/.HoneyGUI-SDK/realgui/3rd/tjpgd/tjpgd.o
 .data          0x000000000021f488        0x0 /home/wh/.HoneyGUI-SDK/realgui/3rd/ezXML/ezxml.o
 *fill*         0x000000000021f488       0x18 
 .data.rel.local
                0x000000000021f4a0       0x58 /home/wh/.HoneyGUI-SDK/realgui/3rd/ezXML/ezxml.o
 *fill*         0x000000000021f4f8        0x8 
 .data          0x000000000021f500       0x29 /home/wh/.HoneyGUI-SDK/realgui/3rd/stb/stb_image.o
 *fill*         0x000000000021f529        0x7 
 .data.rel.local
                0x000000000021f530       0x18 /home/wh/.HoneyGUI-SDK/realgui/3rd/stb/stb_image.o
 .data          0x000000000021f548        0x1 /home/wh/.HoneyGUI-SDK/realgui/widget/gui_view/gui_view.o
 .data          0x000000000021f549        0x0 /home/wh/.HoneyGUI-SDK/realgui/widget/gui_view/gui_view_animate.o
 .data          0x000000000021f549        0x0 /home/wh/.HoneyGUI-SDK/realgui/widget/gui_view/gui_view_blur.o
 .data          0x000000000021f549        0x0 /home/wh/.HoneyGUI-SDK/realgui/widget/gui_view/gui_view_cube.o
 .data          0x000000000021f549        0x0 /home/wh/.HoneyGUI-SDK/realgui/widget/gui_view/gui_view_descriptor.o
 .data          0x000000000021f549        0x0 /home/wh/.HoneyGUI-SDK/realgui/widget/gui_view/gui_view_reduction.o
 .data          0x000000000021f549        0x0 /home/wh/.HoneyGUI-SDK/realgui/widget/gui_view/gui_view_rotate.o
 .data          0x000000000021f549        0x0 /home/wh/.HoneyGUI-SDK/realgui/widget/gui_view/gui_view_translation.o
 .data          0x000000000021f549        0x1 /home/wh/.HoneyGUI-SDK/realgui/widget/gui_text/gui_scroll_text.o
 .data          0x000000000021f54a        0x0 /home/wh/.HoneyGUI-SDK/realgui/widget/gui_text/gui_text.o
 .data          0x000000000021f54a        0x0 /home/wh/.HoneyGUI-SDK/realgui/widget/gui_lite_geometry/gui_lite_geometry_arc.o
 .data          0x000000000021f54a        0x0 /home/wh/.HoneyGUI-SDK/realgui/widget/gui_lite_geometry/gui_lite_geometry_circle.o
 .data          0x000000000021f54a        0x0 /home/wh/.HoneyGUI-SDK/realgui/widget/gui_lite_geometry/gui_lite_geometry_round_rect.o
 .data          0x000000000021f54a        0x0 /home/wh/.HoneyGUI-SDK/realgui/widget/gui_lite_geometry/lite_geometry.o
 .data          0x000000000021f54a        0x0 /home/wh/.HoneyGUI-SDK/realgui/widget/gui_lite_geometry/lite_geometry_math.o
 .data          0x000000000021f54a        0x1 /home/wh/.HoneyGUI-SDK/realgui/widget/gui_list/gui_list.o
 .data          0x000000000021f54b        0x0 /home/wh/.HoneyGUI-SDK/realgui/widget/gui_list/gui_list_rotate_curl.o
 .data          0x000000000021f54b        0x0 /home/wh/.HoneyGUI-SDK/realgui/widget/gui_list/gui_list_rotate_helix.o
 .data          0x000000000021f54b        0x0 /home/wh/.HoneyGUI-SDK/realgui/widget/gui_qbcode/gui_barcode_gen.o
 .data          0x000000000021f54b        0x0 /home/wh/.HoneyGUI-SDK/realgui/widget/gui_qbcode/gui_qbcode.o
 .data          0x000000000021f54b        0x0 /home/wh/.HoneyGUI-SDK/realgui/widget/gui_qbcode/gui_qrcode_gen.o
 *fill*         0x000000000021f54b        0x5 
 .data.rel.local
                0x000000000021f550        0x8 /home/wh/.HoneyGUI-SDK/realgui/widget/gui_qbcode/gui_qrcode_gen.o
 .data          0x000000000021f558        0x0 /home/wh/.HoneyGUI-SDK/realgui/widget/gui_menu_cellular/gui_menu_cellular.o
 .data          0x000000000021f558        0x0 /home/wh/.HoneyGUI-SDK/realgui/widget/gui_gray/gui_gray.o
 *fill*         0x000000000021f558        0x8 
 .data          0x000000000021f560       0x24 /home/wh/.HoneyGUI-SDK/realgui/widget/gui_obj/gui_obj.o
 *fill*         0x000000000021f584       0x1c 
 .data.rel.local
                0x000000000021f5a0       0xf0 /home/wh/.HoneyGUI-SDK/realgui/widget/gui_obj/gui_obj.o
 .data          0x000000000021f690        0x0 /home/wh/.HoneyGUI-SDK/realgui/widget/gui_obj/gui_obj_event.o
 .data          0x000000000021f690        0x0 /home/wh/.HoneyGUI-SDK/realgui/widget/gui_obj/gui_obj_suppress.o
 .data          0x000000000021f690        0x0 /home/wh/.HoneyGUI-SDK/realgui/widget/gui_obj/gui_obj_timer.o
 .data          0x000000000021f690        0x0 /home/wh/.HoneyGUI-SDK/realgui/widget/gui_obj/gui_obj_tree.o
 *fill*         0x000000000021f690       0x10 
 .data          0x000000000021f6a0       0xf0 /home/wh/.HoneyGUI-SDK/realgui/widget/gui_soccer/gui_soccer.o
                0x000000000021f6a0                faces
 .data          0x000000000021f790        0x0 /home/wh/.HoneyGUI-SDK/realgui/widget/gui_glass/gui_glass.o
 .data          0x000000000021f790        0x0 /home/wh/.HoneyGUI-SDK/realgui/widget/gui_img/gui_img.o
 .data          0x000000000021f790        0x0 /home/wh/.HoneyGUI-SDK/realgui/widget/gui_img/gui_img_api.o
 .data          0x000000000021f790        0x0 /home/wh/.HoneyGUI-SDK/realgui/widget/gui_video/gui_video.o
 .data          0x000000000021f790        0x0 /home/wh/.HoneyGUI-SDK/realgui/widget/gui_win/gui_win.o
 .data          0x000000000021f790        0x0 /home/wh/.HoneyGUI-SDK/realgui/widget/gui_canvas/gui_canvas.o
 .data          0x000000000021f790        0x0 /home/wh/.HoneyGUI-SDK/realgui/widget/gui_canvas/gui_canvas_arc.o
 .data          0x000000000021f790        0x0 /home/wh/.HoneyGUI-SDK/realgui/widget/gui_canvas/gui_canvas_img.o
 .data          0x000000000021f790        0x0 /home/wh/.HoneyGUI-SDK/realgui/widget/gui_canvas/gui_canvas_rect.o
 .data          0x000000000021f790        0x0 /home/wh/.HoneyGUI-SDK/realgui/widget/gui_canvas/gui_canvas_round_rect.o
 .data          0x000000000021f790        0x8 /home/wh/.HoneyGUI-SDK/realgui/engine/acc_api.o
 *fill*         0x000000000021f798        0x8 
 .data.rel.local
                0x000000000021f7a0       0x18 /home/wh/.HoneyGUI-SDK/realgui/engine/acc_api.o
 .data          0x000000000021f7b8        0x0 /home/wh/.HoneyGUI-SDK/realgui/engine/draw_font.o
 .data          0x000000000021f7b8        0x0 /home/wh/.HoneyGUI-SDK/realgui/engine/draw_img.o
 .data          0x000000000021f7b8        0x0 /home/wh/.HoneyGUI-SDK/realgui/engine/engine_gray.o
 .data          0x000000000021f7b8        0x0 /home/wh/.HoneyGUI-SDK/realgui/engine/gui_matrix.o
 .data          0x000000000021f7b8        0x0 /home/wh/.HoneyGUI-SDK/realgui/engine/gui_post_process.o
 .data          0x000000000021f7b8        0x0 /home/wh/.HoneyGUI-SDK/realgui/engine/font/font_custom.o
 .data          0x000000000021f7b8        0x0 /home/wh/.HoneyGUI-SDK/realgui/engine/font/font_mem.o
 .data          0x000000000021f7b8        0x0 /home/wh/.HoneyGUI-SDK/realgui/engine/font/font_mem_img.o
 .data          0x000000000021f7b8        0x0 /home/wh/.HoneyGUI-SDK/realgui/engine/font/font_mem_matrix.o
 .data          0x000000000021f7b8        0x0 /home/wh/.HoneyGUI-SDK/realgui/engine/font/font_rendering_utils.o
 .data          0x000000000021f7b8        0x0 /home/wh/.HoneyGUI-SDK/realgui/engine/font/font_stb.o
 .data          0x000000000021f7b8        0x0 /home/wh/.HoneyGUI-SDK/realgui/engine/font/font_ttf.o
 .data          0x000000000021f7b8        0x0 /home/wh/.HoneyGUI-SDK/realgui/engine/sw/a8_2_a8.o
 .data          0x000000000021f7b8        0x0 /home/wh/.HoneyGUI-SDK/realgui/engine/sw/a8_2_rgb565.o
 .data          0x000000000021f7b8        0x0 /home/wh/.HoneyGUI-SDK/realgui/engine/sw/acc_sw.o
 .data          0x000000000021f7b8        0x0 /home/wh/.HoneyGUI-SDK/realgui/engine/sw/acc_sw_arm2d_blur.o
 .data          0x000000000021f7b8        0x8 /home/wh/.HoneyGUI-SDK/realgui/engine/sw/acc_sw_raster.o
 .data          0x000000000021f7c0        0x0 /home/wh/.HoneyGUI-SDK/realgui/engine/sw/argb8565_2_rgb565.o
 .data          0x000000000021f7c0        0x0 /home/wh/.HoneyGUI-SDK/realgui/engine/sw/rgb565_2_rgb565.o
 .data          0x000000000021f7c0        0x0 /home/wh/.HoneyGUI-SDK/realgui/engine/sw/idu/acc_sw_idu.o
 .data          0x000000000021f7c0        0x0 /home/wh/.HoneyGUI-SDK/realgui/engine/sw/rle/acc_sw_rle.o
 .data          0x000000000021f7c0        0x0 /home/wh/.HoneyGUI-SDK/realgui/engine/sw/rle/acc_sw_rle_bypass.o
 .data          0x000000000021f7c0        0x0 /home/wh/.HoneyGUI-SDK/realgui/engine/sw/rle/acc_sw_rle_cover.o
 .data          0x000000000021f7c0        0x0 /home/wh/.HoneyGUI-SDK/realgui/engine/sw/rle/acc_sw_rle_filter.o
 .data          0x000000000021f7c0        0x4 /home/wh/.HoneyGUI-SDK/realgui/dc/gui_fb.o
 .data          0x000000000021f7c4        0x0 /home/wh/.HoneyGUI-SDK/realgui/misc/tlsf/tlsf.o
 .data          0x000000000021f7c4        0x0 /home/wh/.HoneyGUI-SDK/example/widget/image/example_gui_img.o
 .data          0x000000000021f7c4        0x0 /usr/lib/gcc/x86_64-linux-gnu/11/crtendS.o
 .data          0x000000000021f7c4        0x0 /usr/lib/gcc/x86_64-linux-gnu/11/../../../x86_64-linux-gnu/crtn.o

.tm_clone_table
                0x000000000021f7c8        0x0
 .tm_clone_table
                0x000000000021f7c8        0x0 /usr/lib/gcc/x86_64-linux-gnu/11/crtbeginS.o
 .tm_clone_table
                0x000000000021f7c8        0x0 /usr/lib/gcc/x86_64-linux-gnu/11/crtendS.o

shellCommand    0x000000000021f7c4      0x280
 shellCommand   0x000000000021f7c4      0x240 /home/wh/.HoneyGUI-SDK/realgui/3rd/letter_shell/shell.o
                0x000000000021f7c4                shellUserDefault
                0x000000000021f7e4                shellCommandsetVar
                0x000000000021f804                shellKey0x1B5B4100
                0x000000000021f824                shellKey0x1B5B4200
                0x000000000021f844                shellKey0x1B5B4300
                0x000000000021f864                shellKey0x1B5B4400
                0x000000000021f884                shellKey0x09000000
                0x000000000021f8a4                shellKey0x08000000
                0x000000000021f8c4                shellKey0x7F000000
                0x000000000021f8e4                shellKey0x1B5B337E
                0x000000000021f904                shellKey0x0A000000
                0x000000000021f924                shellKey0x0D000000
                0x000000000021f944                shellCommandhelp
                0x000000000021f964                shellCommandusers
                0x000000000021f984                shellCommandcmds
                0x000000000021f9a4                shellCommandvars
                0x000000000021f9c4                shellCommandkeys
                0x000000000021f9e4                shellCommandclear
 shellCommand   0x000000000021fa04       0x40 /home/wh/.HoneyGUI-SDK/realgui/3rd/letter_shell/shell_fs.o
                0x000000000021fa04                shellCommandcd
                0x000000000021fa24                shellCommandls

.data1
 *(.data1)
                0x000000000021fa44                _edata = .
                [!provide]                        PROVIDE (edata = .)
                0x000000000021fa44                . = .
                0x000000000021fa44                __bss_start = .

.bss            0x000000000021fa60  0x14015c8
 *(.dynbss)
 .dynbss        0x000000000021fa60        0x8 /usr/lib/gcc/x86_64-linux-gnu/11/../../../x86_64-linux-gnu/Scrt1.o
                0x000000000021fa60                stderr@@GLIBC_2.2.5
 *(.bss .bss.* .gnu.linkonce.b.*)
 .bss           0x000000000021fa68        0x0 /usr/lib/gcc/x86_64-linux-gnu/11/../../../x86_64-linux-gnu/Scrt1.o
 .bss           0x000000000021fa68        0x0 /usr/lib/gcc/x86_64-linux-gnu/11/../../../x86_64-linux-gnu/crti.o
 .bss           0x000000000021fa68        0x1 /usr/lib/gcc/x86_64-linux-gnu/11/crtbeginS.o
 .bss           0x000000000021fa69        0x0 build/main.o
 .bss           0x000000000021fa69        0x0 build/port/realgui_port/gui_port_acc.o
 .bss           0x000000000021fa69        0x0 build/port/realgui_port/gui_port_dc.o
 .bss           0x000000000021fa69        0x0 build/port/realgui_port/gui_port_filesystem.o
 .bss           0x000000000021fa69        0x0 build/port/realgui_port/gui_port_ftl.o
 *fill*         0x000000000021fa69       0x17 
 .bss           0x000000000021fa80       0x40 build/port/realgui_port/gui_port_indev.o
                0x000000000021fa80                tp_port_data
                0x000000000021faa0                kb_port_data
                0x000000000021fab8                wheel_port_data
 .bss           0x000000000021fac0  0x14000e0 build/port/realgui_port/gui_port_os.o
                0x000000000021fac0                write_to_file
 .bss           0x000000000161fba0        0x0 build/port/realgui_port/gui_queue.o
 .bss           0x000000000161fba0       0x91 build/port/realgui_port/sdl_driver.o
                0x000000000161fba0                windowSurface
                0x000000000161fba8                customSurface
 *fill*         0x000000000161fc31        0x3 
 .bss           0x000000000161fc34        0x5 /home/wh/.HoneyGUI-SDK/realgui/input/kb_algo.o
 *fill*         0x000000000161fc39        0x7 
 .bss           0x000000000161fc40       0xf1 /home/wh/.HoneyGUI-SDK/realgui/input/tp_algo.o
 *fill*         0x000000000161fd31        0x3 
 .bss           0x000000000161fd34        0x4 /home/wh/.HoneyGUI-SDK/realgui/input/wheel_algo.o
 .bss           0x000000000161fd38        0x8 /home/wh/.HoneyGUI-SDK/realgui/server/gui_api_acc.o
 .bss           0x000000000161fd40        0x0 /home/wh/.HoneyGUI-SDK/realgui/server/gui_api_color.o
 .bss           0x000000000161fd40        0x8 /home/wh/.HoneyGUI-SDK/realgui/server/gui_api_dc.o
 .bss           0x000000000161fd48       0x10 /home/wh/.HoneyGUI-SDK/realgui/server/gui_api_fs.o
 .bss           0x000000000161fd58        0x8 /home/wh/.HoneyGUI-SDK/realgui/server/gui_api_ftl.o
 .bss           0x000000000161fd60        0x8 /home/wh/.HoneyGUI-SDK/realgui/server/gui_api_indev.o
 .bss           0x000000000161fd68       0x1c /home/wh/.HoneyGUI-SDK/realgui/server/gui_api_os.o
 .bss           0x000000000161fd84        0x1 /home/wh/.HoneyGUI-SDK/realgui/server/gui_components_init.o
 *fill*         0x000000000161fd85        0x3 
 .bss           0x000000000161fd88        0xc /home/wh/.HoneyGUI-SDK/realgui/server/gui_message.o
 .bss           0x000000000161fd94        0x1 /home/wh/.HoneyGUI-SDK/realgui/server/gui_pm.o
 *fill*         0x000000000161fd95        0x3 
 .bss           0x000000000161fd98        0x9 /home/wh/.HoneyGUI-SDK/realgui/server/gui_server.o
 *fill*         0x000000000161fda1        0xf 
 .bss           0x000000000161fdb0       0x1f /home/wh/.HoneyGUI-SDK/realgui/3rd/cJSON/cJSON.o
 .bss           0x000000000161fdcf        0x0 /home/wh/.HoneyGUI-SDK/realgui/3rd/nanovg/base/nanovg_port.o
 *fill*         0x000000000161fdcf        0x1 
 .bss           0x000000000161fdd0       0x10 /home/wh/.HoneyGUI-SDK/realgui/3rd/nanovg/base/nanovg.o
                0x000000000161fdd0                patch_nvg_fill
                0x000000000161fdd8                patch_nvg_stroke
 .bss           0x000000000161fde0        0x4 /home/wh/.HoneyGUI-SDK/realgui/3rd/nanovg/agge/math.o
                0x000000000161fde0                agge::distance_epsilon
 .bss           0x000000000161fde4        0x0 /home/wh/.HoneyGUI-SDK/realgui/3rd/nanovg/agge/stroke.o
 .bss           0x000000000161fde4        0x0 /home/wh/.HoneyGUI-SDK/realgui/3rd/nanovg/agge/stroke_features.o
 .bss           0x000000000161fde4        0x0 /home/wh/.HoneyGUI-SDK/realgui/3rd/nanovg/agge/vector_rasterizer.o
 .bss           0x000000000161fde4        0x0 /home/wh/.HoneyGUI-SDK/realgui/3rd/nanovg/agge/nanovg_agge.o
 .bss           0x000000000161fde4        0x0 /home/wh/.HoneyGUI-SDK/realgui/3rd/nanovg/agge/nanovg_vertex.o
 .bss           0x000000000161fde4        0x0 /home/wh/.HoneyGUI-SDK/realgui/3rd/gifdec/gifdec.o
 *fill*         0x000000000161fde4       0x1c 
 .bss           0x000000000161fe00       0x31 /home/wh/.HoneyGUI-SDK/realgui/3rd/letter_shell/shell.o
 .bss           0x000000000161fe31        0x0 /home/wh/.HoneyGUI-SDK/realgui/3rd/letter_shell/shell_companion.o
 .bss           0x000000000161fe31        0x0 /home/wh/.HoneyGUI-SDK/realgui/3rd/letter_shell/shell_ext.o
 .bss           0x000000000161fe31        0x0 /home/wh/.HoneyGUI-SDK/realgui/3rd/letter_shell/shell_fs.o
 *fill*         0x000000000161fe31        0xf 
 .bss           0x000000000161fe40      0x2e8 /home/wh/.HoneyGUI-SDK/realgui/3rd/letter_shell/shell_port.o
                0x000000000161fe40                shell_user
                0x000000000161ff20                shellBuffer
                0x0000000001620120                shell_task_handle
 .bss           0x0000000001620128        0x0 /home/wh/.HoneyGUI-SDK/realgui/3rd/h264bsd/src/YUV2RGB.o
 .bss           0x0000000001620128        0x0 /home/wh/.HoneyGUI-SDK/realgui/3rd/h264bsd/src/gui_h264bsd.o
 .bss           0x0000000001620128        0x0 /home/wh/.HoneyGUI-SDK/realgui/3rd/h264bsd/src/h264bsdTest.o
 .bss           0x0000000001620128        0x0 /home/wh/.HoneyGUI-SDK/realgui/3rd/h264bsd/src/h264bsd_byte_stream.o
 .bss           0x0000000001620128        0x0 /home/wh/.HoneyGUI-SDK/realgui/3rd/h264bsd/src/h264bsd_cavlc.o
 .bss           0x0000000001620128        0x0 /home/wh/.HoneyGUI-SDK/realgui/3rd/h264bsd/src/h264bsd_conceal.o
 .bss           0x0000000001620128       0x14 /home/wh/.HoneyGUI-SDK/realgui/3rd/h264bsd/src/h264bsd_deblocking.o
                0x0000000001620128                sample
                0x000000000162012c                hashA
                0x0000000001620130                hashB
                0x0000000001620134                hashC
                0x0000000001620138                hashD
 .bss           0x000000000162013c        0x0 /home/wh/.HoneyGUI-SDK/realgui/3rd/h264bsd/src/h264bsd_decoder.o
 .bss           0x000000000162013c        0x0 /home/wh/.HoneyGUI-SDK/realgui/3rd/h264bsd/src/h264bsd_dpb.o
 .bss           0x000000000162013c        0x0 /home/wh/.HoneyGUI-SDK/realgui/3rd/h264bsd/src/h264bsd_image.o
 .bss           0x000000000162013c        0x0 /home/wh/.HoneyGUI-SDK/realgui/3rd/h264bsd/src/h264bsd_inter_prediction.o
 .bss           0x000000000162013c        0x0 /home/wh/.HoneyGUI-SDK/realgui/3rd/h264bsd/src/h264bsd_intra_prediction.o
 .bss           0x000000000162013c        0x0 /home/wh/.HoneyGUI-SDK/realgui/3rd/h264bsd/src/h264bsd_macroblock_layer.o
 .bss           0x000000000162013c        0x0 /home/wh/.HoneyGUI-SDK/realgui/3rd/h264bsd/src/h264bsd_nal_unit.o
 .bss           0x000000000162013c        0x0 /home/wh/.HoneyGUI-SDK/realgui/3rd/h264bsd/src/h264bsd_neighbour.o
 .bss           0x000000000162013c        0x0 /home/wh/.HoneyGUI-SDK/realgui/3rd/h264bsd/src/h264bsd_pic_order_cnt.o
 .bss           0x000000000162013c        0x0 /home/wh/.HoneyGUI-SDK/realgui/3rd/h264bsd/src/h264bsd_pic_param_set.o
 .bss           0x000000000162013c        0x0 /home/wh/.HoneyGUI-SDK/realgui/3rd/h264bsd/src/h264bsd_reconstruct.o
 .bss           0x000000000162013c        0x0 /home/wh/.HoneyGUI-SDK/realgui/3rd/h264bsd/src/h264bsd_sei.o
 .bss           0x000000000162013c        0x0 /home/wh/.HoneyGUI-SDK/realgui/3rd/h264bsd/src/h264bsd_seq_param_set.o
 .bss           0x000000000162013c        0x0 /home/wh/.HoneyGUI-SDK/realgui/3rd/h264bsd/src/h264bsd_slice_data.o
 .bss           0x000000000162013c        0x0 /home/wh/.HoneyGUI-SDK/realgui/3rd/h264bsd/src/h264bsd_slice_group_map.o
 .bss           0x000000000162013c        0x0 /home/wh/.HoneyGUI-SDK/realgui/3rd/h264bsd/src/h264bsd_slice_header.o
 .bss           0x000000000162013c        0x0 /home/wh/.HoneyGUI-SDK/realgui/3rd/h264bsd/src/h264bsd_storage.o
 .bss           0x000000000162013c        0x0 /home/wh/.HoneyGUI-SDK/realgui/3rd/h264bsd/src/h264bsd_stream.o
 .bss           0x000000000162013c        0x0 /home/wh/.HoneyGUI-SDK/realgui/3rd/h264bsd/src/h264bsd_transform.o
 .bss           0x000000000162013c        0x0 /home/wh/.HoneyGUI-SDK/realgui/3rd/h264bsd/src/h264bsd_util.o
 .bss           0x000000000162013c        0x0 /home/wh/.HoneyGUI-SDK/realgui/3rd/h264bsd/src/h264bsd_vlc.o
 .bss           0x000000000162013c        0x0 /home/wh/.HoneyGUI-SDK/realgui/3rd/h264bsd/src/h264bsd_vui.o
 .bss           0x000000000162013c        0x0 /home/wh/.HoneyGUI-SDK/realgui/3rd/h264bsd/port/h264bsd_port.o
 .bss           0x000000000162013c        0x0 /home/wh/.HoneyGUI-SDK/realgui/3rd/tjpgd/tjpgd.o
 *fill*         0x000000000162013c        0x4 
 .bss           0x0000000001620140        0x8 /home/wh/.HoneyGUI-SDK/realgui/3rd/ezXML/ezxml.o
                0x0000000001620140                EZXML_NIL
 .bss           0x0000000001620148       0x14 /home/wh/.HoneyGUI-SDK/realgui/3rd/stb/stb_image.o
 *fill*         0x000000000162015c        0x4 
 .bss           0x0000000001620160       0x24 /home/wh/.HoneyGUI-SDK/realgui/widget/gui_view/gui_view.o
 .bss           0x0000000001620184        0x0 /home/wh/.HoneyGUI-SDK/realgui/widget/gui_view/gui_view_animate.o
 .bss           0x0000000001620184        0x8 /home/wh/.HoneyGUI-SDK/realgui/widget/gui_view/gui_view_blur.o
 .bss           0x000000000162018c        0x0 /home/wh/.HoneyGUI-SDK/realgui/widget/gui_view/gui_view_cube.o
 *fill*         0x000000000162018c       0x14 
 .bss           0x00000000016201a0      0x324 /home/wh/.HoneyGUI-SDK/realgui/widget/gui_view/gui_view_descriptor.o
 .bss           0x00000000016204c4        0x0 /home/wh/.HoneyGUI-SDK/realgui/widget/gui_view/gui_view_reduction.o
 .bss           0x00000000016204c4        0x0 /home/wh/.HoneyGUI-SDK/realgui/widget/gui_view/gui_view_rotate.o
 .bss           0x00000000016204c4        0x0 /home/wh/.HoneyGUI-SDK/realgui/widget/gui_view/gui_view_translation.o
 .bss           0x00000000016204c4        0x2 /home/wh/.HoneyGUI-SDK/realgui/widget/gui_text/gui_scroll_text.o
 .bss           0x00000000016204c6        0x0 /home/wh/.HoneyGUI-SDK/realgui/widget/gui_text/gui_text.o
 .bss           0x00000000016204c6        0x0 /home/wh/.HoneyGUI-SDK/realgui/widget/gui_lite_geometry/gui_lite_geometry_arc.o
 .bss           0x00000000016204c6        0x0 /home/wh/.HoneyGUI-SDK/realgui/widget/gui_lite_geometry/gui_lite_geometry_circle.o
 .bss           0x00000000016204c6        0x0 /home/wh/.HoneyGUI-SDK/realgui/widget/gui_lite_geometry/gui_lite_geometry_round_rect.o
 .bss           0x00000000016204c6        0x0 /home/wh/.HoneyGUI-SDK/realgui/widget/gui_lite_geometry/lite_geometry.o
 .bss           0x00000000016204c6        0x0 /home/wh/.HoneyGUI-SDK/realgui/widget/gui_lite_geometry/lite_geometry_math.o
 *fill*         0x00000000016204c6        0x2 
 .bss           0x00000000016204c8        0xc /home/wh/.HoneyGUI-SDK/realgui/widget/gui_list/gui_list.o
 .bss           0x00000000016204d4        0x0 /home/wh/.HoneyGUI-SDK/realgui/widget/gui_list/gui_list_rotate_curl.o
 .bss           0x00000000016204d4        0x0 /home/wh/.HoneyGUI-SDK/realgui/widget/gui_list/gui_list_rotate_helix.o
 .bss           0x00000000016204d4        0x0 /home/wh/.HoneyGUI-SDK/realgui/widget/gui_qbcode/gui_barcode_gen.o
 .bss           0x00000000016204d4        0x0 /home/wh/.HoneyGUI-SDK/realgui/widget/gui_qbcode/gui_qbcode.o
 *fill*         0x00000000016204d4        0xc 
 .bss           0x00000000016204e0      0x6cc /home/wh/.HoneyGUI-SDK/realgui/widget/gui_qbcode/gui_qrcode_gen.o
                0x00000000016204e0                app_qrcode
 .bss           0x0000000001620bac        0x0 /home/wh/.HoneyGUI-SDK/realgui/widget/gui_menu_cellular/gui_menu_cellular.o
 .bss           0x0000000001620bac        0x0 /home/wh/.HoneyGUI-SDK/realgui/widget/gui_gray/gui_gray.o
 .bss           0x0000000001620bac        0x0 /home/wh/.HoneyGUI-SDK/realgui/widget/gui_obj/gui_obj.o
 *fill*         0x0000000001620bac       0x14 
 .bss           0x0000000001620bc0      0x151 /home/wh/.HoneyGUI-SDK/realgui/widget/gui_obj/gui_obj_event.o
 .bss           0x0000000001620d11        0x0 /home/wh/.HoneyGUI-SDK/realgui/widget/gui_obj/gui_obj_suppress.o
 .bss           0x0000000001620d11        0x0 /home/wh/.HoneyGUI-SDK/realgui/widget/gui_obj/gui_obj_timer.o
 .bss           0x0000000001620d11        0x0 /home/wh/.HoneyGUI-SDK/realgui/widget/gui_obj/gui_obj_tree.o
 *fill*         0x0000000001620d11        0xf 
 .bss           0x0000000001620d20       0xc0 /home/wh/.HoneyGUI-SDK/realgui/widget/gui_soccer/gui_soccer.o
 .bss           0x0000000001620de0        0x4 /home/wh/.HoneyGUI-SDK/realgui/widget/gui_glass/gui_glass.o
 .bss           0x0000000001620de4        0x0 /home/wh/.HoneyGUI-SDK/realgui/widget/gui_img/gui_img.o
 .bss           0x0000000001620de4        0x0 /home/wh/.HoneyGUI-SDK/realgui/widget/gui_img/gui_img_api.o
 .bss           0x0000000001620de4        0x0 /home/wh/.HoneyGUI-SDK/realgui/widget/gui_video/gui_video.o
 .bss           0x0000000001620de4        0x0 /home/wh/.HoneyGUI-SDK/realgui/widget/gui_win/gui_win.o
 .bss           0x0000000001620de4        0x0 /home/wh/.HoneyGUI-SDK/realgui/widget/gui_canvas/gui_canvas.o
 .bss           0x0000000001620de4        0x0 /home/wh/.HoneyGUI-SDK/realgui/widget/gui_canvas/gui_canvas_arc.o
 .bss           0x0000000001620de4        0x0 /home/wh/.HoneyGUI-SDK/realgui/widget/gui_canvas/gui_canvas_img.o
 .bss           0x0000000001620de4        0x0 /home/wh/.HoneyGUI-SDK/realgui/widget/gui_canvas/gui_canvas_rect.o
 .bss           0x0000000001620de4        0x0 /home/wh/.HoneyGUI-SDK/realgui/widget/gui_canvas/gui_canvas_round_rect.o
 *fill*         0x0000000001620de4        0x4 
 .bss           0x0000000001620de8        0xc /home/wh/.HoneyGUI-SDK/realgui/engine/acc_api.o
 .bss           0x0000000001620df4        0x0 /home/wh/.HoneyGUI-SDK/realgui/engine/draw_font.o
 *fill*         0x0000000001620df4        0x4 
 .bss           0x0000000001620df8       0x10 /home/wh/.HoneyGUI-SDK/realgui/engine/draw_img.o
                0x0000000001620df8                draw_img_acc_prepare_cb
                0x0000000001620e00                draw_img_acc_end_cb
 .bss           0x0000000001620e08        0x0 /home/wh/.HoneyGUI-SDK/realgui/engine/engine_gray.o
 .bss           0x0000000001620e08        0x0 /home/wh/.HoneyGUI-SDK/realgui/engine/gui_matrix.o
 .bss           0x0000000001620e08       0x20 /home/wh/.HoneyGUI-SDK/realgui/engine/gui_post_process.o
                0x0000000001620e08                blur_prepare
                0x0000000001620e10                blur_depose
 .bss           0x0000000001620e28       0x20 /home/wh/.HoneyGUI-SDK/realgui/engine/font/font_custom.o
                0x0000000001620e28                gui_font_custom_load_cb
                0x0000000001620e30                gui_font_custom_draw_cb
                0x0000000001620e38                gui_font_custom_unload_cb
                0x0000000001620e40                gui_font_custom_destroy_cb
 *fill*         0x0000000001620e48       0x18 
 .bss           0x0000000001620e60       0xf0 /home/wh/.HoneyGUI-SDK/realgui/engine/font/font_mem.o
                0x0000000001620e60                font_lib_tab
 .bss           0x0000000001620f50        0x0 /home/wh/.HoneyGUI-SDK/realgui/engine/font/font_mem_img.o
 .bss           0x0000000001620f50        0x0 /home/wh/.HoneyGUI-SDK/realgui/engine/font/font_mem_matrix.o
 .bss           0x0000000001620f50        0x0 /home/wh/.HoneyGUI-SDK/realgui/engine/font/font_rendering_utils.o
 *fill*         0x0000000001620f50       0x10 
 .bss           0x0000000001620f60       0xa0 /home/wh/.HoneyGUI-SDK/realgui/engine/font/font_stb.o
 .bss           0x0000000001621000        0x0 /home/wh/.HoneyGUI-SDK/realgui/engine/font/font_ttf.o
 .bss           0x0000000001621000        0x0 /home/wh/.HoneyGUI-SDK/realgui/engine/sw/a8_2_a8.o
 .bss           0x0000000001621000        0x0 /home/wh/.HoneyGUI-SDK/realgui/engine/sw/a8_2_rgb565.o
 .bss           0x0000000001621000        0x0 /home/wh/.HoneyGUI-SDK/realgui/engine/sw/acc_sw.o
 .bss           0x0000000001621000        0x0 /home/wh/.HoneyGUI-SDK/realgui/engine/sw/acc_sw_arm2d_blur.o
 .bss           0x0000000001621000       0x10 /home/wh/.HoneyGUI-SDK/realgui/engine/sw/acc_sw_raster.o
 .bss           0x0000000001621010        0x0 /home/wh/.HoneyGUI-SDK/realgui/engine/sw/argb8565_2_rgb565.o
 .bss           0x0000000001621010        0x0 /home/wh/.HoneyGUI-SDK/realgui/engine/sw/rgb565_2_rgb565.o
 .bss           0x0000000001621010        0x0 /home/wh/.HoneyGUI-SDK/realgui/engine/sw/idu/acc_sw_idu.o
 .bss           0x0000000001621010        0x0 /home/wh/.HoneyGUI-SDK/realgui/engine/sw/rle/acc_sw_rle.o
 .bss           0x0000000001621010        0x0 /home/wh/.HoneyGUI-SDK/realgui/engine/sw/rle/acc_sw_rle_bypass.o
 .bss           0x0000000001621010        0x0 /home/wh/.HoneyGUI-SDK/realgui/engine/sw/rle/acc_sw_rle_cover.o
 .bss           0x0000000001621010        0x0 /home/wh/.HoneyGUI-SDK/realgui/engine/sw/rle/acc_sw_rle_filter.o
 .bss           0x0000000001621010       0x18 /home/wh/.HoneyGUI-SDK/realgui/dc/gui_fb.o
 .bss           0x0000000001621028        0x0 /home/wh/.HoneyGUI-SDK/realgui/misc/tlsf/tlsf.o
 .bss           0x0000000001621028        0x0 /home/wh/.HoneyGUI-SDK/example/widget/image/example_gui_img.o
 .bss           0x0000000001621028        0x0 /usr/lib/gcc/x86_64-linux-gnu/11/crtendS.o
 .bss           0x0000000001621028        0x0 /usr/lib/gcc/x86_64-linux-gnu/11/../../../x86_64-linux-gnu/crtn.o
 *(COMMON)
                0x0000000001621028                . = ALIGN ((. != 0x0)?0x8:0x1)

.lbss
 *(.dynlbss)
 *(.lbss .lbss.* .gnu.linkonce.lb.*)
 *(LARGE_COMMON)
                0x0000000001621028                . = ALIGN (0x8)
                0x0000000001621028                . = SEGMENT_START ("ldata-segment", .)

.lrodata
 *(.lrodata .lrodata.* .gnu.linkonce.lr.*)

.ldata          0x0000000001623028        0x0
 *(.ldata .ldata.* .gnu.linkonce.l.*)
                0x0000000001623028                . = ALIGN ((. != 0x0)?0x8:0x1)
                0x0000000001623028                . = ALIGN (0x8)
                0x0000000001621028                _end = .
                [!provide]                        PROVIDE (end = .)
                0x0000000001623028                . = DATA_SEGMENT_END (.)

.stab
 *(.stab)

.stabstr
 *(.stabstr)

.stab.excl
 *(.stab.excl)

.stab.exclstr
 *(.stab.exclstr)

.stab.index
 *(.stab.index)

.stab.indexstr
 *(.stab.indexstr)

.comment        0x0000000000000000       0x2d
 *(.comment)
 .comment       0x0000000000000000       0x2d /usr/lib/gcc/x86_64-linux-gnu/11/crtbeginS.o
                                         0x2e (size before relaxing)
 .comment       0x000000000000002d       0x2e build/main.o
 .comment       0x000000000000002d       0x2e build/port/realgui_port/gui_port_acc.o
 .comment       0x000000000000002d       0x2e build/port/realgui_port/gui_port_dc.o
 .comment       0x000000000000002d       0x2e build/port/realgui_port/gui_port_filesystem.o
 .comment       0x000000000000002d       0x2e build/port/realgui_port/gui_port_ftl.o
 .comment       0x000000000000002d       0x2e build/port/realgui_port/gui_port_indev.o
 .comment       0x000000000000002d       0x2e build/port/realgui_port/gui_port_os.o
 .comment       0x000000000000002d       0x2e build/port/realgui_port/gui_queue.o
 .comment       0x000000000000002d       0x2e build/port/realgui_port/sdl_driver.o
 .comment       0x000000000000002d       0x2e /home/wh/.HoneyGUI-SDK/realgui/input/kb_algo.o
 .comment       0x000000000000002d       0x2e /home/wh/.HoneyGUI-SDK/realgui/input/tp_algo.o
 .comment       0x000000000000002d       0x2e /home/wh/.HoneyGUI-SDK/realgui/input/wheel_algo.o
 .comment       0x000000000000002d       0x2e /home/wh/.HoneyGUI-SDK/realgui/server/gui_api_acc.o
 .comment       0x000000000000002d       0x2e /home/wh/.HoneyGUI-SDK/realgui/server/gui_api_color.o
 .comment       0x000000000000002d       0x2e /home/wh/.HoneyGUI-SDK/realgui/server/gui_api_dc.o
 .comment       0x000000000000002d       0x2e /home/wh/.HoneyGUI-SDK/realgui/server/gui_api_fs.o
 .comment       0x000000000000002d       0x2e /home/wh/.HoneyGUI-SDK/realgui/server/gui_api_ftl.o
 .comment       0x000000000000002d       0x2e /home/wh/.HoneyGUI-SDK/realgui/server/gui_api_indev.o
 .comment       0x000000000000002d       0x2e /home/wh/.HoneyGUI-SDK/realgui/server/gui_api_os.o
 .comment       0x000000000000002d       0x2e /home/wh/.HoneyGUI-SDK/realgui/server/gui_components_init.o
 .comment       0x000000000000002d       0x2e /home/wh/.HoneyGUI-SDK/realgui/server/gui_message.o
 .comment       0x000000000000002d       0x2e /home/wh/.HoneyGUI-SDK/realgui/server/gui_pm.o
 .comment       0x000000000000002d       0x2e /home/wh/.HoneyGUI-SDK/realgui/server/gui_server.o
 .comment       0x000000000000002d       0x2e /home/wh/.HoneyGUI-SDK/realgui/3rd/cJSON/cJSON.o
 .comment       0x000000000000002d       0x2e /home/wh/.HoneyGUI-SDK/realgui/3rd/nanovg/base/nanovg_port.o
 .comment       0x000000000000002d       0x2e /home/wh/.HoneyGUI-SDK/realgui/3rd/nanovg/base/nanovg.o
 .comment       0x000000000000002d       0x2e /home/wh/.HoneyGUI-SDK/realgui/3rd/nanovg/agge/math.o
 .comment       0x000000000000002d       0x2e /home/wh/.HoneyGUI-SDK/realgui/3rd/nanovg/agge/stroke.o
 .comment       0x000000000000002d       0x2e /home/wh/.HoneyGUI-SDK/realgui/3rd/nanovg/agge/stroke_features.o
 .comment       0x000000000000002d       0x2e /home/wh/.HoneyGUI-SDK/realgui/3rd/nanovg/agge/vector_rasterizer.o
 .comment       0x000000000000002d       0x2e /home/wh/.HoneyGUI-SDK/realgui/3rd/nanovg/agge/nanovg_agge.o
 .comment       0x000000000000002d       0x2e /home/wh/.HoneyGUI-SDK/realgui/3rd/nanovg/agge/nanovg_vertex.o
 .comment       0x000000000000002d       0x2e /home/wh/.HoneyGUI-SDK/realgui/3rd/gifdec/gifdec.o
 .comment       0x000000000000002d       0x2e /home/wh/.HoneyGUI-SDK/realgui/3rd/letter_shell/shell.o
 .comment       0x000000000000002d       0x2e /home/wh/.HoneyGUI-SDK/realgui/3rd/letter_shell/shell_companion.o
 .comment       0x000000000000002d       0x2e /home/wh/.HoneyGUI-SDK/realgui/3rd/letter_shell/shell_ext.o
 .comment       0x000000000000002d       0x2e /home/wh/.HoneyGUI-SDK/realgui/3rd/letter_shell/shell_fs.o
 .comment       0x000000000000002d       0x2e /home/wh/.HoneyGUI-SDK/realgui/3rd/letter_shell/shell_port.o
 .comment       0x000000000000002d       0x2e /home/wh/.HoneyGUI-SDK/realgui/3rd/h264bsd/src/YUV2RGB.o
 .comment       0x000000000000002d       0x2e /home/wh/.HoneyGUI-SDK/realgui/3rd/h264bsd/src/gui_h264bsd.o
 .comment       0x000000000000002d       0x2e /home/wh/.HoneyGUI-SDK/realgui/3rd/h264bsd/src/h264bsdTest.o
 .comment       0x000000000000002d       0x2e /home/wh/.HoneyGUI-SDK/realgui/3rd/h264bsd/src/h264bsd_byte_stream.o
 .comment       0x000000000000002d       0x2e /home/wh/.HoneyGUI-SDK/realgui/3rd/h264bsd/src/h264bsd_cavlc.o
 .comment       0x000000000000002d       0x2e /home/wh/.HoneyGUI-SDK/realgui/3rd/h264bsd/src/h264bsd_conceal.o
 .comment       0x000000000000002d       0x2e /home/wh/.HoneyGUI-SDK/realgui/3rd/h264bsd/src/h264bsd_deblocking.o
 .comment       0x000000000000002d       0x2e /home/wh/.HoneyGUI-SDK/realgui/3rd/h264bsd/src/h264bsd_decoder.o
 .comment       0x000000000000002d       0x2e /home/wh/.HoneyGUI-SDK/realgui/3rd/h264bsd/src/h264bsd_dpb.o
 .comment       0x000000000000002d       0x2e /home/wh/.HoneyGUI-SDK/realgui/3rd/h264bsd/src/h264bsd_image.o
 .comment       0x000000000000002d       0x2e /home/wh/.HoneyGUI-SDK/realgui/3rd/h264bsd/src/h264bsd_inter_prediction.o
 .comment       0x000000000000002d       0x2e /home/wh/.HoneyGUI-SDK/realgui/3rd/h264bsd/src/h264bsd_intra_prediction.o
 .comment       0x000000000000002d       0x2e /home/wh/.HoneyGUI-SDK/realgui/3rd/h264bsd/src/h264bsd_macroblock_layer.o
 .comment       0x000000000000002d       0x2e /home/wh/.HoneyGUI-SDK/realgui/3rd/h264bsd/src/h264bsd_nal_unit.o
 .comment       0x000000000000002d       0x2e /home/wh/.HoneyGUI-SDK/realgui/3rd/h264bsd/src/h264bsd_neighbour.o
 .comment       0x000000000000002d       0x2e /home/wh/.HoneyGUI-SDK/realgui/3rd/h264bsd/src/h264bsd_pic_order_cnt.o
 .comment       0x000000000000002d       0x2e /home/wh/.HoneyGUI-SDK/realgui/3rd/h264bsd/src/h264bsd_pic_param_set.o
 .comment       0x000000000000002d       0x2e /home/wh/.HoneyGUI-SDK/realgui/3rd/h264bsd/src/h264bsd_reconstruct.o
 .comment       0x000000000000002d       0x2e /home/wh/.HoneyGUI-SDK/realgui/3rd/h264bsd/src/h264bsd_sei.o
 .comment       0x000000000000002d       0x2e /home/wh/.HoneyGUI-SDK/realgui/3rd/h264bsd/src/h264bsd_seq_param_set.o
 .comment       0x000000000000002d       0x2e /home/wh/.HoneyGUI-SDK/realgui/3rd/h264bsd/src/h264bsd_slice_data.o
 .comment       0x000000000000002d       0x2e /home/wh/.HoneyGUI-SDK/realgui/3rd/h264bsd/src/h264bsd_slice_group_map.o
 .comment       0x000000000000002d       0x2e /home/wh/.HoneyGUI-SDK/realgui/3rd/h264bsd/src/h264bsd_slice_header.o
 .comment       0x000000000000002d       0x2e /home/wh/.HoneyGUI-SDK/realgui/3rd/h264bsd/src/h264bsd_storage.o
 .comment       0x000000000000002d       0x2e /home/wh/.HoneyGUI-SDK/realgui/3rd/h264bsd/src/h264bsd_stream.o
 .comment       0x000000000000002d       0x2e /home/wh/.HoneyGUI-SDK/realgui/3rd/h264bsd/src/h264bsd_transform.o
 .comment       0x000000000000002d       0x2e /home/wh/.HoneyGUI-SDK/realgui/3rd/h264bsd/src/h264bsd_util.o
 .comment       0x000000000000002d       0x2e /home/wh/.HoneyGUI-SDK/realgui/3rd/h264bsd/src/h264bsd_vlc.o
 .comment       0x000000000000002d       0x2e /home/wh/.HoneyGUI-SDK/realgui/3rd/h264bsd/src/h264bsd_vui.o
 .comment       0x000000000000002d       0x2e /home/wh/.HoneyGUI-SDK/realgui/3rd/h264bsd/port/h264bsd_port.o
 .comment       0x000000000000002d       0x2e /home/wh/.HoneyGUI-SDK/realgui/3rd/tjpgd/tjpgd.o
 .comment       0x000000000000002d       0x2e /home/wh/.HoneyGUI-SDK/realgui/3rd/ezXML/ezxml.o
 .comment       0x000000000000002d       0x2e /home/wh/.HoneyGUI-SDK/realgui/3rd/stb/stb_image.o
 .comment       0x000000000000002d       0x2e /home/wh/.HoneyGUI-SDK/realgui/widget/gui_view/gui_view.o
 .comment       0x000000000000002d       0x2e /home/wh/.HoneyGUI-SDK/realgui/widget/gui_view/gui_view_animate.o
 .comment       0x000000000000002d       0x2e /home/wh/.HoneyGUI-SDK/realgui/widget/gui_view/gui_view_blur.o
 .comment       0x000000000000002d       0x2e /home/wh/.HoneyGUI-SDK/realgui/widget/gui_view/gui_view_cube.o
 .comment       0x000000000000002d       0x2e /home/wh/.HoneyGUI-SDK/realgui/widget/gui_view/gui_view_descriptor.o
 .comment       0x000000000000002d       0x2e /home/wh/.HoneyGUI-SDK/realgui/widget/gui_view/gui_view_reduction.o
 .comment       0x000000000000002d       0x2e /home/wh/.HoneyGUI-SDK/realgui/widget/gui_view/gui_view_rotate.o
 .comment       0x000000000000002d       0x2e /home/wh/.HoneyGUI-SDK/realgui/widget/gui_view/gui_view_translation.o
 .comment       0x000000000000002d       0x2e /home/wh/.HoneyGUI-SDK/realgui/widget/gui_text/gui_scroll_text.o
 .comment       0x000000000000002d       0x2e /home/wh/.HoneyGUI-SDK/realgui/widget/gui_text/gui_text.o
 .comment       0x000000000000002d       0x2e /home/wh/.HoneyGUI-SDK/realgui/widget/gui_lite_geometry/gui_lite_geometry_arc.o
 .comment       0x000000000000002d       0x2e /home/wh/.HoneyGUI-SDK/realgui/widget/gui_lite_geometry/gui_lite_geometry_circle.o
 .comment       0x000000000000002d       0x2e /home/wh/.HoneyGUI-SDK/realgui/widget/gui_lite_geometry/gui_lite_geometry_round_rect.o
 .comment       0x000000000000002d       0x2e /home/wh/.HoneyGUI-SDK/realgui/widget/gui_lite_geometry/lite_geometry.o
 .comment       0x000000000000002d       0x2e /home/wh/.HoneyGUI-SDK/realgui/widget/gui_lite_geometry/lite_geometry_math.o
 .comment       0x000000000000002d       0x2e /home/wh/.HoneyGUI-SDK/realgui/widget/gui_list/gui_list.o
 .comment       0x000000000000002d       0x2e /home/wh/.HoneyGUI-SDK/realgui/widget/gui_list/gui_list_rotate_curl.o
 .comment       0x000000000000002d       0x2e /home/wh/.HoneyGUI-SDK/realgui/widget/gui_list/gui_list_rotate_helix.o
 .comment       0x000000000000002d       0x2e /home/wh/.HoneyGUI-SDK/realgui/widget/gui_qbcode/gui_barcode_gen.o
 .comment       0x000000000000002d       0x2e /home/wh/.HoneyGUI-SDK/realgui/widget/gui_qbcode/gui_qbcode.o
 .comment       0x000000000000002d       0x2e /home/wh/.HoneyGUI-SDK/realgui/widget/gui_qbcode/gui_qrcode_gen.o
 .comment       0x000000000000002d       0x2e /home/wh/.HoneyGUI-SDK/realgui/widget/gui_menu_cellular/gui_menu_cellular.o
 .comment       0x000000000000002d       0x2e /home/wh/.HoneyGUI-SDK/realgui/widget/gui_gray/gui_gray.o
 .comment       0x000000000000002d       0x2e /home/wh/.HoneyGUI-SDK/realgui/widget/gui_obj/gui_obj.o
 .comment       0x000000000000002d       0x2e /home/wh/.HoneyGUI-SDK/realgui/widget/gui_obj/gui_obj_event.o
 .comment       0x000000000000002d       0x2e /home/wh/.HoneyGUI-SDK/realgui/widget/gui_obj/gui_obj_suppress.o
 .comment       0x000000000000002d       0x2e /home/wh/.HoneyGUI-SDK/realgui/widget/gui_obj/gui_obj_timer.o
 .comment       0x000000000000002d       0x2e /home/wh/.HoneyGUI-SDK/realgui/widget/gui_obj/gui_obj_tree.o
 .comment       0x000000000000002d       0x2e /home/wh/.HoneyGUI-SDK/realgui/widget/gui_soccer/gui_soccer.o
 .comment       0x000000000000002d       0x2e /home/wh/.HoneyGUI-SDK/realgui/widget/gui_glass/gui_glass.o
 .comment       0x000000000000002d       0x2e /home/wh/.HoneyGUI-SDK/realgui/widget/gui_img/gui_img.o
 .comment       0x000000000000002d       0x2e /home/wh/.HoneyGUI-SDK/realgui/widget/gui_img/gui_img_api.o
 .comment       0x000000000000002d       0x2e /home/wh/.HoneyGUI-SDK/realgui/widget/gui_video/gui_video.o
 .comment       0x000000000000002d       0x2e /home/wh/.HoneyGUI-SDK/realgui/widget/gui_win/gui_win.o
 .comment       0x000000000000002d       0x2e /home/wh/.HoneyGUI-SDK/realgui/widget/gui_canvas/gui_canvas.o
 .comment       0x000000000000002d       0x2e /home/wh/.HoneyGUI-SDK/realgui/widget/gui_canvas/gui_canvas_arc.o
 .comment       0x000000000000002d       0x2e /home/wh/.HoneyGUI-SDK/realgui/widget/gui_canvas/gui_canvas_img.o
 .comment       0x000000000000002d       0x2e /home/wh/.HoneyGUI-SDK/realgui/widget/gui_canvas/gui_canvas_rect.o
 .comment       0x000000000000002d       0x2e /home/wh/.HoneyGUI-SDK/realgui/widget/gui_canvas/gui_canvas_round_rect.o
 .comment       0x000000000000002d       0x2e /home/wh/.HoneyGUI-SDK/realgui/engine/acc_api.o
 .comment       0x000000000000002d       0x2e /home/wh/.HoneyGUI-SDK/realgui/engine/draw_font.o
 .comment       0x000000000000002d       0x2e /home/wh/.HoneyGUI-SDK/realgui/engine/draw_img.o
 .comment       0x000000000000002d       0x2e /home/wh/.HoneyGUI-SDK/realgui/engine/engine_gray.o
 .comment       0x000000000000002d       0x2e /home/wh/.HoneyGUI-SDK/realgui/engine/gui_matrix.o
 .comment       0x000000000000002d       0x2e /home/wh/.HoneyGUI-SDK/realgui/engine/gui_post_process.o
 .comment       0x000000000000002d       0x2e /home/wh/.HoneyGUI-SDK/realgui/engine/font/font_custom.o
 .comment       0x000000000000002d       0x2e /home/wh/.HoneyGUI-SDK/realgui/engine/font/font_mem.o
 .comment       0x000000000000002d       0x2e /home/wh/.HoneyGUI-SDK/realgui/engine/font/font_mem_img.o
 .comment       0x000000000000002d       0x2e /home/wh/.HoneyGUI-SDK/realgui/engine/font/font_mem_matrix.o
 .comment       0x000000000000002d       0x2e /home/wh/.HoneyGUI-SDK/realgui/engine/font/font_rendering_utils.o
 .comment       0x000000000000002d       0x2e /home/wh/.HoneyGUI-SDK/realgui/engine/font/font_stb.o
 .comment       0x000000000000002d       0x2e /home/wh/.HoneyGUI-SDK/realgui/engine/font/font_ttf.o
 .comment       0x000000000000002d       0x2e /home/wh/.HoneyGUI-SDK/realgui/engine/sw/a8_2_a8.o
 .comment       0x000000000000002d       0x2e /home/wh/.HoneyGUI-SDK/realgui/engine/sw/a8_2_rgb565.o
 .comment       0x000000000000002d       0x2e /home/wh/.HoneyGUI-SDK/realgui/engine/sw/acc_sw.o
 .comment       0x000000000000002d       0x2e /home/wh/.HoneyGUI-SDK/realgui/engine/sw/acc_sw_arm2d_blur.o
 .comment       0x000000000000002d       0x2e /home/wh/.HoneyGUI-SDK/realgui/engine/sw/acc_sw_raster.o
 .comment       0x000000000000002d       0x2e /home/wh/.HoneyGUI-SDK/realgui/engine/sw/argb8565_2_rgb565.o
 .comment       0x000000000000002d       0x2e /home/wh/.HoneyGUI-SDK/realgui/engine/sw/rgb565_2_rgb565.o
 .comment       0x000000000000002d       0x2e /home/wh/.HoneyGUI-SDK/realgui/engine/sw/idu/acc_sw_idu.o
 .comment       0x000000000000002d       0x2e /home/wh/.HoneyGUI-SDK/realgui/engine/sw/rle/acc_sw_rle.o
 .comment       0x000000000000002d       0x2e /home/wh/.HoneyGUI-SDK/realgui/engine/sw/rle/acc_sw_rle_bypass.o
 .comment       0x000000000000002d       0x2e /home/wh/.HoneyGUI-SDK/realgui/engine/sw/rle/acc_sw_rle_cover.o
 .comment       0x000000000000002d       0x2e /home/wh/.HoneyGUI-SDK/realgui/engine/sw/rle/acc_sw_rle_filter.o
 .comment       0x000000000000002d       0x2e /home/wh/.HoneyGUI-SDK/realgui/dc/gui_fb.o
 .comment       0x000000000000002d       0x2e /home/wh/.HoneyGUI-SDK/realgui/misc/tlsf/tlsf.o
 .comment       0x000000000000002d       0x2e /home/wh/.HoneyGUI-SDK/example/widget/image/example_gui_img.o
 .comment       0x000000000000002d       0x2e /usr/lib/gcc/x86_64-linux-gnu/11/crtendS.o

.gnu.build.attributes
 *(.gnu.build.attributes .gnu.build.attributes.*)

.debug
 *(.debug)

.line
 *(.line)

.debug_srcinfo
 *(.debug_srcinfo)

.debug_sfnames
 *(.debug_sfnames)

.debug_aranges  0x0000000000000000     0x3b20
 *(.debug_aranges)
 .debug_aranges
                0x0000000000000000       0x30 build/main.o
 .debug_aranges
                0x0000000000000030       0x30 build/port/realgui_port/gui_port_acc.o
 .debug_aranges
                0x0000000000000060       0x30 build/port/realgui_port/gui_port_dc.o
 .debug_aranges
                0x0000000000000090       0x30 build/port/realgui_port/gui_port_filesystem.o
 .debug_aranges
                0x00000000000000c0       0x30 build/port/realgui_port/gui_port_ftl.o
 .debug_aranges
                0x00000000000000f0       0x30 build/port/realgui_port/gui_port_indev.o
 .debug_aranges
                0x0000000000000120       0x30 build/port/realgui_port/gui_port_os.o
 .debug_aranges
                0x0000000000000150       0x30 build/port/realgui_port/gui_queue.o
 .debug_aranges
                0x0000000000000180       0x30 build/port/realgui_port/sdl_driver.o
 .debug_aranges
                0x00000000000001b0       0x30 /home/wh/.HoneyGUI-SDK/realgui/input/kb_algo.o
 .debug_aranges
                0x00000000000001e0       0x30 /home/wh/.HoneyGUI-SDK/realgui/input/tp_algo.o
 .debug_aranges
                0x0000000000000210       0x30 /home/wh/.HoneyGUI-SDK/realgui/input/wheel_algo.o
 .debug_aranges
                0x0000000000000240       0x30 /home/wh/.HoneyGUI-SDK/realgui/server/gui_api_acc.o
 .debug_aranges
                0x0000000000000270       0x30 /home/wh/.HoneyGUI-SDK/realgui/server/gui_api_color.o
 .debug_aranges
                0x00000000000002a0       0x30 /home/wh/.HoneyGUI-SDK/realgui/server/gui_api_dc.o
 .debug_aranges
                0x00000000000002d0       0x30 /home/wh/.HoneyGUI-SDK/realgui/server/gui_api_fs.o
 .debug_aranges
                0x0000000000000300       0x30 /home/wh/.HoneyGUI-SDK/realgui/server/gui_api_ftl.o
 .debug_aranges
                0x0000000000000330       0x30 /home/wh/.HoneyGUI-SDK/realgui/server/gui_api_indev.o
 .debug_aranges
                0x0000000000000360       0x30 /home/wh/.HoneyGUI-SDK/realgui/server/gui_api_os.o
 .debug_aranges
                0x0000000000000390       0x30 /home/wh/.HoneyGUI-SDK/realgui/server/gui_components_init.o
 .debug_aranges
                0x00000000000003c0       0x30 /home/wh/.HoneyGUI-SDK/realgui/server/gui_message.o
 .debug_aranges
                0x00000000000003f0       0x30 /home/wh/.HoneyGUI-SDK/realgui/server/gui_pm.o
 .debug_aranges
                0x0000000000000420       0x30 /home/wh/.HoneyGUI-SDK/realgui/server/gui_server.o
 .debug_aranges
                0x0000000000000450       0x30 /home/wh/.HoneyGUI-SDK/realgui/3rd/cJSON/cJSON.o
 .debug_aranges
                0x0000000000000480       0x30 /home/wh/.HoneyGUI-SDK/realgui/3rd/nanovg/base/nanovg_port.o
 .debug_aranges
                0x00000000000004b0       0x30 /home/wh/.HoneyGUI-SDK/realgui/3rd/nanovg/base/nanovg.o
 .debug_aranges
                0x00000000000004e0       0x40 /home/wh/.HoneyGUI-SDK/realgui/3rd/nanovg/agge/math.o
 .debug_aranges
                0x0000000000000520      0x240 /home/wh/.HoneyGUI-SDK/realgui/3rd/nanovg/agge/stroke.o
 .debug_aranges
                0x0000000000000760      0x1e0 /home/wh/.HoneyGUI-SDK/realgui/3rd/nanovg/agge/stroke_features.o
 .debug_aranges
                0x0000000000000940      0x210 /home/wh/.HoneyGUI-SDK/realgui/3rd/nanovg/agge/vector_rasterizer.o
 .debug_aranges
                0x0000000000000b50     0x1c20 /home/wh/.HoneyGUI-SDK/realgui/3rd/nanovg/agge/nanovg_agge.o
 .debug_aranges
                0x0000000000002770       0x30 /home/wh/.HoneyGUI-SDK/realgui/3rd/nanovg/agge/nanovg_vertex.o
 .debug_aranges
                0x00000000000027a0       0x30 /home/wh/.HoneyGUI-SDK/realgui/3rd/gifdec/gifdec.o
 .debug_aranges
                0x00000000000027d0       0x30 /home/wh/.HoneyGUI-SDK/realgui/3rd/letter_shell/shell.o
 .debug_aranges
                0x0000000000002800       0x30 /home/wh/.HoneyGUI-SDK/realgui/3rd/letter_shell/shell_companion.o
 .debug_aranges
                0x0000000000002830       0x30 /home/wh/.HoneyGUI-SDK/realgui/3rd/letter_shell/shell_ext.o
 .debug_aranges
                0x0000000000002860       0x30 /home/wh/.HoneyGUI-SDK/realgui/3rd/letter_shell/shell_fs.o
 .debug_aranges
                0x0000000000002890       0x30 /home/wh/.HoneyGUI-SDK/realgui/3rd/letter_shell/shell_port.o
 .debug_aranges
                0x00000000000028c0       0x30 /home/wh/.HoneyGUI-SDK/realgui/3rd/h264bsd/src/gui_h264bsd.o
 .debug_aranges
                0x00000000000028f0       0x30 /home/wh/.HoneyGUI-SDK/realgui/3rd/h264bsd/src/h264bsd_byte_stream.o
 .debug_aranges
                0x0000000000002920       0x30 /home/wh/.HoneyGUI-SDK/realgui/3rd/h264bsd/src/h264bsd_cavlc.o
 .debug_aranges
                0x0000000000002950       0x30 /home/wh/.HoneyGUI-SDK/realgui/3rd/h264bsd/src/h264bsd_conceal.o
 .debug_aranges
                0x0000000000002980       0x30 /home/wh/.HoneyGUI-SDK/realgui/3rd/h264bsd/src/h264bsd_deblocking.o
 .debug_aranges
                0x00000000000029b0       0x30 /home/wh/.HoneyGUI-SDK/realgui/3rd/h264bsd/src/h264bsd_decoder.o
 .debug_aranges
                0x00000000000029e0       0x30 /home/wh/.HoneyGUI-SDK/realgui/3rd/h264bsd/src/h264bsd_dpb.o
 .debug_aranges
                0x0000000000002a10       0x30 /home/wh/.HoneyGUI-SDK/realgui/3rd/h264bsd/src/h264bsd_image.o
 .debug_aranges
                0x0000000000002a40       0x30 /home/wh/.HoneyGUI-SDK/realgui/3rd/h264bsd/src/h264bsd_inter_prediction.o
 .debug_aranges
                0x0000000000002a70       0x30 /home/wh/.HoneyGUI-SDK/realgui/3rd/h264bsd/src/h264bsd_intra_prediction.o
 .debug_aranges
                0x0000000000002aa0       0x30 /home/wh/.HoneyGUI-SDK/realgui/3rd/h264bsd/src/h264bsd_macroblock_layer.o
 .debug_aranges
                0x0000000000002ad0       0x30 /home/wh/.HoneyGUI-SDK/realgui/3rd/h264bsd/src/h264bsd_nal_unit.o
 .debug_aranges
                0x0000000000002b00       0x30 /home/wh/.HoneyGUI-SDK/realgui/3rd/h264bsd/src/h264bsd_neighbour.o
 .debug_aranges
                0x0000000000002b30       0x30 /home/wh/.HoneyGUI-SDK/realgui/3rd/h264bsd/src/h264bsd_pic_order_cnt.o
 .debug_aranges
                0x0000000000002b60       0x30 /home/wh/.HoneyGUI-SDK/realgui/3rd/h264bsd/src/h264bsd_pic_param_set.o
 .debug_aranges
                0x0000000000002b90       0x30 /home/wh/.HoneyGUI-SDK/realgui/3rd/h264bsd/src/h264bsd_reconstruct.o
 .debug_aranges
                0x0000000000002bc0       0x30 /home/wh/.HoneyGUI-SDK/realgui/3rd/h264bsd/src/h264bsd_sei.o
 .debug_aranges
                0x0000000000002bf0       0x30 /home/wh/.HoneyGUI-SDK/realgui/3rd/h264bsd/src/h264bsd_seq_param_set.o
 .debug_aranges
                0x0000000000002c20       0x30 /home/wh/.HoneyGUI-SDK/realgui/3rd/h264bsd/src/h264bsd_slice_data.o
 .debug_aranges
                0x0000000000002c50       0x30 /home/wh/.HoneyGUI-SDK/realgui/3rd/h264bsd/src/h264bsd_slice_group_map.o
 .debug_aranges
                0x0000000000002c80       0x30 /home/wh/.HoneyGUI-SDK/realgui/3rd/h264bsd/src/h264bsd_slice_header.o
 .debug_aranges
                0x0000000000002cb0       0x30 /home/wh/.HoneyGUI-SDK/realgui/3rd/h264bsd/src/h264bsd_storage.o
 .debug_aranges
                0x0000000000002ce0       0x30 /home/wh/.HoneyGUI-SDK/realgui/3rd/h264bsd/src/h264bsd_stream.o
 .debug_aranges
                0x0000000000002d10       0x30 /home/wh/.HoneyGUI-SDK/realgui/3rd/h264bsd/src/h264bsd_transform.o
 .debug_aranges
                0x0000000000002d40       0x30 /home/wh/.HoneyGUI-SDK/realgui/3rd/h264bsd/src/h264bsd_util.o
 .debug_aranges
                0x0000000000002d70       0x30 /home/wh/.HoneyGUI-SDK/realgui/3rd/h264bsd/src/h264bsd_vlc.o
 .debug_aranges
                0x0000000000002da0       0x30 /home/wh/.HoneyGUI-SDK/realgui/3rd/h264bsd/src/h264bsd_vui.o
 .debug_aranges
                0x0000000000002dd0       0x30 /home/wh/.HoneyGUI-SDK/realgui/3rd/h264bsd/port/h264bsd_port.o
 .debug_aranges
                0x0000000000002e00       0x30 /home/wh/.HoneyGUI-SDK/realgui/3rd/tjpgd/tjpgd.o
 .debug_aranges
                0x0000000000002e30       0x30 /home/wh/.HoneyGUI-SDK/realgui/3rd/ezXML/ezxml.o
 .debug_aranges
                0x0000000000002e60       0x30 /home/wh/.HoneyGUI-SDK/realgui/3rd/stb/stb_image.o
 .debug_aranges
                0x0000000000002e90       0x30 /home/wh/.HoneyGUI-SDK/realgui/widget/gui_view/gui_view.o
 .debug_aranges
                0x0000000000002ec0       0x30 /home/wh/.HoneyGUI-SDK/realgui/widget/gui_view/gui_view_animate.o
 .debug_aranges
                0x0000000000002ef0       0x30 /home/wh/.HoneyGUI-SDK/realgui/widget/gui_view/gui_view_blur.o
 .debug_aranges
                0x0000000000002f20       0x30 /home/wh/.HoneyGUI-SDK/realgui/widget/gui_view/gui_view_cube.o
 .debug_aranges
                0x0000000000002f50       0x30 /home/wh/.HoneyGUI-SDK/realgui/widget/gui_view/gui_view_descriptor.o
 .debug_aranges
                0x0000000000002f80       0x30 /home/wh/.HoneyGUI-SDK/realgui/widget/gui_view/gui_view_reduction.o
 .debug_aranges
                0x0000000000002fb0       0x30 /home/wh/.HoneyGUI-SDK/realgui/widget/gui_view/gui_view_rotate.o
 .debug_aranges
                0x0000000000002fe0       0x30 /home/wh/.HoneyGUI-SDK/realgui/widget/gui_view/gui_view_translation.o
 .debug_aranges
                0x0000000000003010       0x30 /home/wh/.HoneyGUI-SDK/realgui/widget/gui_text/gui_scroll_text.o
 .debug_aranges
                0x0000000000003040       0x30 /home/wh/.HoneyGUI-SDK/realgui/widget/gui_text/gui_text.o
 .debug_aranges
                0x0000000000003070       0x30 /home/wh/.HoneyGUI-SDK/realgui/widget/gui_lite_geometry/gui_lite_geometry_arc.o
 .debug_aranges
                0x00000000000030a0       0x30 /home/wh/.HoneyGUI-SDK/realgui/widget/gui_lite_geometry/gui_lite_geometry_circle.o
 .debug_aranges
                0x00000000000030d0       0x30 /home/wh/.HoneyGUI-SDK/realgui/widget/gui_lite_geometry/gui_lite_geometry_round_rect.o
 .debug_aranges
                0x0000000000003100       0x30 /home/wh/.HoneyGUI-SDK/realgui/widget/gui_lite_geometry/lite_geometry.o
 .debug_aranges
                0x0000000000003130       0x30 /home/wh/.HoneyGUI-SDK/realgui/widget/gui_lite_geometry/lite_geometry_math.o
 .debug_aranges
                0x0000000000003160       0x30 /home/wh/.HoneyGUI-SDK/realgui/widget/gui_list/gui_list.o
 .debug_aranges
                0x0000000000003190       0x30 /home/wh/.HoneyGUI-SDK/realgui/widget/gui_list/gui_list_rotate_curl.o
 .debug_aranges
                0x00000000000031c0       0x30 /home/wh/.HoneyGUI-SDK/realgui/widget/gui_list/gui_list_rotate_helix.o
 .debug_aranges
                0x00000000000031f0       0x30 /home/wh/.HoneyGUI-SDK/realgui/widget/gui_qbcode/gui_barcode_gen.o
 .debug_aranges
                0x0000000000003220       0x30 /home/wh/.HoneyGUI-SDK/realgui/widget/gui_qbcode/gui_qbcode.o
 .debug_aranges
                0x0000000000003250       0x30 /home/wh/.HoneyGUI-SDK/realgui/widget/gui_qbcode/gui_qrcode_gen.o
 .debug_aranges
                0x0000000000003280       0x30 /home/wh/.HoneyGUI-SDK/realgui/widget/gui_menu_cellular/gui_menu_cellular.o
 .debug_aranges
                0x00000000000032b0       0x30 /home/wh/.HoneyGUI-SDK/realgui/widget/gui_gray/gui_gray.o
 .debug_aranges
                0x00000000000032e0       0x30 /home/wh/.HoneyGUI-SDK/realgui/widget/gui_obj/gui_obj.o
 .debug_aranges
                0x0000000000003310       0x30 /home/wh/.HoneyGUI-SDK/realgui/widget/gui_obj/gui_obj_event.o
 .debug_aranges
                0x0000000000003340       0x30 /home/wh/.HoneyGUI-SDK/realgui/widget/gui_obj/gui_obj_suppress.o
 .debug_aranges
                0x0000000000003370       0x30 /home/wh/.HoneyGUI-SDK/realgui/widget/gui_obj/gui_obj_timer.o
 .debug_aranges
                0x00000000000033a0       0x30 /home/wh/.HoneyGUI-SDK/realgui/widget/gui_obj/gui_obj_tree.o
 .debug_aranges
                0x00000000000033d0       0x30 /home/wh/.HoneyGUI-SDK/realgui/widget/gui_soccer/gui_soccer.o
 .debug_aranges
                0x0000000000003400       0x30 /home/wh/.HoneyGUI-SDK/realgui/widget/gui_glass/gui_glass.o
 .debug_aranges
                0x0000000000003430       0x30 /home/wh/.HoneyGUI-SDK/realgui/widget/gui_img/gui_img.o
 .debug_aranges
                0x0000000000003460       0x30 /home/wh/.HoneyGUI-SDK/realgui/widget/gui_img/gui_img_api.o
 .debug_aranges
                0x0000000000003490       0x30 /home/wh/.HoneyGUI-SDK/realgui/widget/gui_video/gui_video.o
 .debug_aranges
                0x00000000000034c0       0x30 /home/wh/.HoneyGUI-SDK/realgui/widget/gui_win/gui_win.o
 .debug_aranges
                0x00000000000034f0       0x30 /home/wh/.HoneyGUI-SDK/realgui/widget/gui_canvas/gui_canvas.o
 .debug_aranges
                0x0000000000003520       0x30 /home/wh/.HoneyGUI-SDK/realgui/widget/gui_canvas/gui_canvas_arc.o
 .debug_aranges
                0x0000000000003550       0x30 /home/wh/.HoneyGUI-SDK/realgui/widget/gui_canvas/gui_canvas_img.o
 .debug_aranges
                0x0000000000003580       0x30 /home/wh/.HoneyGUI-SDK/realgui/widget/gui_canvas/gui_canvas_rect.o
 .debug_aranges
                0x00000000000035b0       0x30 /home/wh/.HoneyGUI-SDK/realgui/widget/gui_canvas/gui_canvas_round_rect.o
 .debug_aranges
                0x00000000000035e0       0x30 /home/wh/.HoneyGUI-SDK/realgui/engine/acc_api.o
 .debug_aranges
                0x0000000000003610       0x30 /home/wh/.HoneyGUI-SDK/realgui/engine/draw_font.o
 .debug_aranges
                0x0000000000003640       0x30 /home/wh/.HoneyGUI-SDK/realgui/engine/draw_img.o
 .debug_aranges
                0x0000000000003670       0x30 /home/wh/.HoneyGUI-SDK/realgui/engine/engine_gray.o
 .debug_aranges
                0x00000000000036a0       0x30 /home/wh/.HoneyGUI-SDK/realgui/engine/gui_matrix.o
 .debug_aranges
                0x00000000000036d0       0x30 /home/wh/.HoneyGUI-SDK/realgui/engine/gui_post_process.o
 .debug_aranges
                0x0000000000003700       0x30 /home/wh/.HoneyGUI-SDK/realgui/engine/font/font_custom.o
 .debug_aranges
                0x0000000000003730       0x30 /home/wh/.HoneyGUI-SDK/realgui/engine/font/font_mem.o
 .debug_aranges
                0x0000000000003760       0x30 /home/wh/.HoneyGUI-SDK/realgui/engine/font/font_mem_img.o
 .debug_aranges
                0x0000000000003790       0x30 /home/wh/.HoneyGUI-SDK/realgui/engine/font/font_mem_matrix.o
 .debug_aranges
                0x00000000000037c0       0x30 /home/wh/.HoneyGUI-SDK/realgui/engine/font/font_rendering_utils.o
 .debug_aranges
                0x00000000000037f0       0x30 /home/wh/.HoneyGUI-SDK/realgui/engine/font/font_stb.o
 .debug_aranges
                0x0000000000003820       0x30 /home/wh/.HoneyGUI-SDK/realgui/engine/font/font_ttf.o
 .debug_aranges
                0x0000000000003850       0x30 /home/wh/.HoneyGUI-SDK/realgui/engine/sw/a8_2_a8.o
 .debug_aranges
                0x0000000000003880       0x30 /home/wh/.HoneyGUI-SDK/realgui/engine/sw/a8_2_rgb565.o
 .debug_aranges
                0x00000000000038b0       0x30 /home/wh/.HoneyGUI-SDK/realgui/engine/sw/acc_sw.o
 .debug_aranges
                0x00000000000038e0       0x30 /home/wh/.HoneyGUI-SDK/realgui/engine/sw/acc_sw_arm2d_blur.o
 .debug_aranges
                0x0000000000003910       0x30 /home/wh/.HoneyGUI-SDK/realgui/engine/sw/acc_sw_raster.o
 .debug_aranges
                0x0000000000003940       0x30 /home/wh/.HoneyGUI-SDK/realgui/engine/sw/argb8565_2_rgb565.o
 .debug_aranges
                0x0000000000003970       0x30 /home/wh/.HoneyGUI-SDK/realgui/engine/sw/rgb565_2_rgb565.o
 .debug_aranges
                0x00000000000039a0       0x30 /home/wh/.HoneyGUI-SDK/realgui/engine/sw/idu/acc_sw_idu.o
 .debug_aranges
                0x00000000000039d0       0x30 /home/wh/.HoneyGUI-SDK/realgui/engine/sw/rle/acc_sw_rle.o
 .debug_aranges
                0x0000000000003a00       0x30 /home/wh/.HoneyGUI-SDK/realgui/engine/sw/rle/acc_sw_rle_bypass.o
 .debug_aranges
                0x0000000000003a30       0x30 /home/wh/.HoneyGUI-SDK/realgui/engine/sw/rle/acc_sw_rle_cover.o
 .debug_aranges
                0x0000000000003a60       0x30 /home/wh/.HoneyGUI-SDK/realgui/engine/sw/rle/acc_sw_rle_filter.o
 .debug_aranges
                0x0000000000003a90       0x30 /home/wh/.HoneyGUI-SDK/realgui/dc/gui_fb.o
 .debug_aranges
                0x0000000000003ac0       0x30 /home/wh/.HoneyGUI-SDK/realgui/misc/tlsf/tlsf.o
 .debug_aranges
                0x0000000000003af0       0x30 /home/wh/.HoneyGUI-SDK/example/widget/image/example_gui_img.o

.debug_pubnames
 *(.debug_pubnames)

.debug_info     0x0000000000000000    0xf0964
 *(.debug_info .gnu.linkonce.wi.*)
 .debug_info    0x0000000000000000      0x1a2 build/main.o
 .debug_info    0x00000000000001a2      0x875 build/port/realgui_port/gui_port_acc.o
 .debug_info    0x0000000000000a17     0x1de4 build/port/realgui_port/gui_port_dc.o
 .debug_info    0x00000000000027fb      0x95b build/port/realgui_port/gui_port_filesystem.o
 .debug_info    0x0000000000003156      0x2e0 build/port/realgui_port/gui_port_ftl.o
 .debug_info    0x0000000000003436     0x1d43 build/port/realgui_port/gui_port_indev.o
 .debug_info    0x0000000000005179     0x1466 build/port/realgui_port/gui_port_os.o
 .debug_info    0x00000000000065df      0x408 build/port/realgui_port/gui_queue.o
 .debug_info    0x00000000000069e7     0x2d78 build/port/realgui_port/sdl_driver.o
 .debug_info    0x000000000000975f      0x76e /home/wh/.HoneyGUI-SDK/realgui/input/kb_algo.o
 .debug_info    0x0000000000009ecd      0xc86 /home/wh/.HoneyGUI-SDK/realgui/input/tp_algo.o
 .debug_info    0x000000000000ab53      0x409 /home/wh/.HoneyGUI-SDK/realgui/input/wheel_algo.o
 .debug_info    0x000000000000af5c      0x82e /home/wh/.HoneyGUI-SDK/realgui/server/gui_api_acc.o
 .debug_info    0x000000000000b78a      0xe85 /home/wh/.HoneyGUI-SDK/realgui/server/gui_api_color.o
 .debug_info    0x000000000000c60f      0x5f2 /home/wh/.HoneyGUI-SDK/realgui/server/gui_api_dc.o
 .debug_info    0x000000000000cc01      0xda0 /home/wh/.HoneyGUI-SDK/realgui/server/gui_api_fs.o
 .debug_info    0x000000000000d9a1      0x29b /home/wh/.HoneyGUI-SDK/realgui/server/gui_api_ftl.o
 .debug_info    0x000000000000dc3c      0x527 /home/wh/.HoneyGUI-SDK/realgui/server/gui_api_indev.o
 .debug_info    0x000000000000e163      0xfe5 /home/wh/.HoneyGUI-SDK/realgui/server/gui_api_os.o
 .debug_info    0x000000000000f148       0xf7 /home/wh/.HoneyGUI-SDK/realgui/server/gui_components_init.o
 .debug_info    0x000000000000f23f      0xa71 /home/wh/.HoneyGUI-SDK/realgui/server/gui_message.o
 .debug_info    0x000000000000fcb0       0xc2 /home/wh/.HoneyGUI-SDK/realgui/server/gui_pm.o
 .debug_info    0x000000000000fd72      0xed7 /home/wh/.HoneyGUI-SDK/realgui/server/gui_server.o
 .debug_info    0x0000000000010c49     0x2d4f /home/wh/.HoneyGUI-SDK/realgui/3rd/cJSON/cJSON.o
 .debug_info    0x0000000000013998      0x23f /home/wh/.HoneyGUI-SDK/realgui/3rd/nanovg/base/nanovg_port.o
 .debug_info    0x0000000000013bd7     0x4d6c /home/wh/.HoneyGUI-SDK/realgui/3rd/nanovg/base/nanovg.o
 .debug_info    0x0000000000018943     0x1b62 /home/wh/.HoneyGUI-SDK/realgui/3rd/nanovg/agge/math.o
 .debug_info    0x000000000001a4a5     0x1aa2 /home/wh/.HoneyGUI-SDK/realgui/3rd/nanovg/agge/stroke.o
 .debug_info    0x000000000001bf47     0x3ca2 /home/wh/.HoneyGUI-SDK/realgui/3rd/nanovg/agge/stroke_features.o
 .debug_info    0x000000000001fbe9     0x2519 /home/wh/.HoneyGUI-SDK/realgui/3rd/nanovg/agge/vector_rasterizer.o
 .debug_info    0x0000000000022102    0x291f8 /home/wh/.HoneyGUI-SDK/realgui/3rd/nanovg/agge/nanovg_agge.o
 .debug_info    0x000000000004b2fa      0x3c7 /home/wh/.HoneyGUI-SDK/realgui/3rd/nanovg/agge/nanovg_vertex.o
 .debug_info    0x000000000004b6c1     0x168f /home/wh/.HoneyGUI-SDK/realgui/3rd/gifdec/gifdec.o
 .debug_info    0x000000000004cd50     0x2440 /home/wh/.HoneyGUI-SDK/realgui/3rd/letter_shell/shell.o
 .debug_info    0x000000000004f190      0x72d /home/wh/.HoneyGUI-SDK/realgui/3rd/letter_shell/shell_companion.o
 .debug_info    0x000000000004f8bd      0xc18 /home/wh/.HoneyGUI-SDK/realgui/3rd/letter_shell/shell_ext.o
 .debug_info    0x00000000000504d5      0x8fa /home/wh/.HoneyGUI-SDK/realgui/3rd/letter_shell/shell_fs.o
 .debug_info    0x0000000000050dcf      0x6bd /home/wh/.HoneyGUI-SDK/realgui/3rd/letter_shell/shell_port.o
 .debug_info    0x000000000005148c     0x1892 /home/wh/.HoneyGUI-SDK/realgui/3rd/h264bsd/src/gui_h264bsd.o
 .debug_info    0x0000000000052d1e      0x201 /home/wh/.HoneyGUI-SDK/realgui/3rd/h264bsd/src/h264bsd_byte_stream.o
 .debug_info    0x0000000000052f1f      0x803 /home/wh/.HoneyGUI-SDK/realgui/3rd/h264bsd/src/h264bsd_cavlc.o
 .debug_info    0x0000000000053722     0x195f /home/wh/.HoneyGUI-SDK/realgui/3rd/h264bsd/src/h264bsd_conceal.o
 .debug_info    0x0000000000055081     0x12cc /home/wh/.HoneyGUI-SDK/realgui/3rd/h264bsd/src/h264bsd_deblocking.o
 .debug_info    0x000000000005634d     0x279a /home/wh/.HoneyGUI-SDK/realgui/3rd/h264bsd/src/h264bsd_decoder.o
 .debug_info    0x0000000000058ae7      0xfab /home/wh/.HoneyGUI-SDK/realgui/3rd/h264bsd/src/h264bsd_dpb.o
 .debug_info    0x0000000000059a92      0x438 /home/wh/.HoneyGUI-SDK/realgui/3rd/h264bsd/src/h264bsd_image.o
 .debug_info    0x0000000000059eca     0x10bc /home/wh/.HoneyGUI-SDK/realgui/3rd/h264bsd/src/h264bsd_inter_prediction.o
 .debug_info    0x000000000005af86     0x1756 /home/wh/.HoneyGUI-SDK/realgui/3rd/h264bsd/src/h264bsd_intra_prediction.o
 .debug_info    0x000000000005c6dc     0x1410 /home/wh/.HoneyGUI-SDK/realgui/3rd/h264bsd/src/h264bsd_macroblock_layer.o
 .debug_info    0x000000000005daec      0x203 /home/wh/.HoneyGUI-SDK/realgui/3rd/h264bsd/src/h264bsd_nal_unit.o
 .debug_info    0x000000000005dcef      0x60f /home/wh/.HoneyGUI-SDK/realgui/3rd/h264bsd/src/h264bsd_neighbour.o
 .debug_info    0x000000000005e2fe      0x944 /home/wh/.HoneyGUI-SDK/realgui/3rd/h264bsd/src/h264bsd_pic_order_cnt.o
 .debug_info    0x000000000005ec42      0x3b0 /home/wh/.HoneyGUI-SDK/realgui/3rd/h264bsd/src/h264bsd_pic_param_set.o
 .debug_info    0x000000000005eff2     0x1852 /home/wh/.HoneyGUI-SDK/realgui/3rd/h264bsd/src/h264bsd_reconstruct.o
 .debug_info    0x0000000000060844     0x19b5 /home/wh/.HoneyGUI-SDK/realgui/3rd/h264bsd/src/h264bsd_sei.o
 .debug_info    0x00000000000621f9      0x795 /home/wh/.HoneyGUI-SDK/realgui/3rd/h264bsd/src/h264bsd_seq_param_set.o
 .debug_info    0x000000000006298e     0x1824 /home/wh/.HoneyGUI-SDK/realgui/3rd/h264bsd/src/h264bsd_slice_data.o
 .debug_info    0x00000000000641b2      0x6eb /home/wh/.HoneyGUI-SDK/realgui/3rd/h264bsd/src/h264bsd_slice_group_map.o
 .debug_info    0x000000000006489d     0x12fd /home/wh/.HoneyGUI-SDK/realgui/3rd/h264bsd/src/h264bsd_slice_header.o
 .debug_info    0x0000000000065b9a     0x1ac8 /home/wh/.HoneyGUI-SDK/realgui/3rd/h264bsd/src/h264bsd_storage.o
 .debug_info    0x0000000000067662      0x29d /home/wh/.HoneyGUI-SDK/realgui/3rd/h264bsd/src/h264bsd_stream.o
 .debug_info    0x00000000000678ff      0x3e1 /home/wh/.HoneyGUI-SDK/realgui/3rd/h264bsd/src/h264bsd_transform.o
 .debug_info    0x0000000000067ce0      0x426 /home/wh/.HoneyGUI-SDK/realgui/3rd/h264bsd/src/h264bsd_util.o
 .debug_info    0x0000000000068106      0x366 /home/wh/.HoneyGUI-SDK/realgui/3rd/h264bsd/src/h264bsd_vlc.o
 .debug_info    0x000000000006846c      0x5bd /home/wh/.HoneyGUI-SDK/realgui/3rd/h264bsd/src/h264bsd_vui.o
 .debug_info    0x0000000000068a29      0x2ef /home/wh/.HoneyGUI-SDK/realgui/3rd/h264bsd/port/h264bsd_port.o
 .debug_info    0x0000000000068d18      0xf21 /home/wh/.HoneyGUI-SDK/realgui/3rd/tjpgd/tjpgd.o
 .debug_info    0x0000000000069c39     0x19c8 /home/wh/.HoneyGUI-SDK/realgui/3rd/ezXML/ezxml.o
 .debug_info    0x000000000006b601     0xce01 /home/wh/.HoneyGUI-SDK/realgui/3rd/stb/stb_image.o
 .debug_info    0x0000000000078402     0x1f30 /home/wh/.HoneyGUI-SDK/realgui/widget/gui_view/gui_view.o
 .debug_info    0x000000000007a332     0x14bc /home/wh/.HoneyGUI-SDK/realgui/widget/gui_view/gui_view_animate.o
 .debug_info    0x000000000007b7ee      0xe0f /home/wh/.HoneyGUI-SDK/realgui/widget/gui_view/gui_view_blur.o
 .debug_info    0x000000000007c5fd     0x10df /home/wh/.HoneyGUI-SDK/realgui/widget/gui_view/gui_view_cube.o
 .debug_info    0x000000000007d6dc      0xca9 /home/wh/.HoneyGUI-SDK/realgui/widget/gui_view/gui_view_descriptor.o
 .debug_info    0x000000000007e385      0xb7a /home/wh/.HoneyGUI-SDK/realgui/widget/gui_view/gui_view_reduction.o
 .debug_info    0x000000000007eeff     0x10a7 /home/wh/.HoneyGUI-SDK/realgui/widget/gui_view/gui_view_rotate.o
 .debug_info    0x000000000007ffa6      0xb79 /home/wh/.HoneyGUI-SDK/realgui/widget/gui_view/gui_view_translation.o
 .debug_info    0x0000000000080b1f     0x2304 /home/wh/.HoneyGUI-SDK/realgui/widget/gui_text/gui_scroll_text.o
 .debug_info    0x0000000000082e23     0x29d2 /home/wh/.HoneyGUI-SDK/realgui/widget/gui_text/gui_text.o
 .debug_info    0x00000000000857f5     0x1f37 /home/wh/.HoneyGUI-SDK/realgui/widget/gui_lite_geometry/gui_lite_geometry_arc.o
 .debug_info    0x000000000008772c     0x1e3f /home/wh/.HoneyGUI-SDK/realgui/widget/gui_lite_geometry/gui_lite_geometry_circle.o
 .debug_info    0x000000000008956b     0x1a83 /home/wh/.HoneyGUI-SDK/realgui/widget/gui_lite_geometry/gui_lite_geometry_round_rect.o
 .debug_info    0x000000000008afee     0x353d /home/wh/.HoneyGUI-SDK/realgui/widget/gui_lite_geometry/lite_geometry.o
 .debug_info    0x000000000008e52b      0x3f0 /home/wh/.HoneyGUI-SDK/realgui/widget/gui_lite_geometry/lite_geometry_math.o
 .debug_info    0x000000000008e91b     0x32a4 /home/wh/.HoneyGUI-SDK/realgui/widget/gui_list/gui_list.o
 .debug_info    0x0000000000091bbf     0x1649 /home/wh/.HoneyGUI-SDK/realgui/widget/gui_list/gui_list_rotate_curl.o
 .debug_info    0x0000000000093208     0x1649 /home/wh/.HoneyGUI-SDK/realgui/widget/gui_list/gui_list_rotate_helix.o
 .debug_info    0x0000000000094851     0x1127 /home/wh/.HoneyGUI-SDK/realgui/widget/gui_qbcode/gui_barcode_gen.o
 .debug_info    0x0000000000095978     0x2131 /home/wh/.HoneyGUI-SDK/realgui/widget/gui_qbcode/gui_qbcode.o
 .debug_info    0x0000000000097aa9     0x21a4 /home/wh/.HoneyGUI-SDK/realgui/widget/gui_qbcode/gui_qrcode_gen.o
 .debug_info    0x0000000000099c4d     0x1b20 /home/wh/.HoneyGUI-SDK/realgui/widget/gui_menu_cellular/gui_menu_cellular.o
 .debug_info    0x000000000009b76d     0x1592 /home/wh/.HoneyGUI-SDK/realgui/widget/gui_gray/gui_gray.o
 .debug_info    0x000000000009ccff     0x1466 /home/wh/.HoneyGUI-SDK/realgui/widget/gui_obj/gui_obj.o
 .debug_info    0x000000000009e165      0xd94 /home/wh/.HoneyGUI-SDK/realgui/widget/gui_obj/gui_obj_event.o
 .debug_info    0x000000000009eef9      0xbe4 /home/wh/.HoneyGUI-SDK/realgui/widget/gui_obj/gui_obj_suppress.o
 .debug_info    0x000000000009fadd      0x954 /home/wh/.HoneyGUI-SDK/realgui/widget/gui_obj/gui_obj_timer.o
 .debug_info    0x00000000000a0431     0x111c /home/wh/.HoneyGUI-SDK/realgui/widget/gui_obj/gui_obj_tree.o
 .debug_info    0x00000000000a154d     0x26fb /home/wh/.HoneyGUI-SDK/realgui/widget/gui_soccer/gui_soccer.o
 .debug_info    0x00000000000a3c48     0x2717 /home/wh/.HoneyGUI-SDK/realgui/widget/gui_glass/gui_glass.o
 .debug_info    0x00000000000a635f     0x295e /home/wh/.HoneyGUI-SDK/realgui/widget/gui_img/gui_img.o
 .debug_info    0x00000000000a8cbd      0xe9c /home/wh/.HoneyGUI-SDK/realgui/widget/gui_img/gui_img_api.o
 .debug_info    0x00000000000a9b59     0x2d16 /home/wh/.HoneyGUI-SDK/realgui/widget/gui_video/gui_video.o
 .debug_info    0x00000000000ac86f     0x156e /home/wh/.HoneyGUI-SDK/realgui/widget/gui_win/gui_win.o
 .debug_info    0x00000000000adddd     0x1478 /home/wh/.HoneyGUI-SDK/realgui/widget/gui_canvas/gui_canvas.o
 .debug_info    0x00000000000af255     0x2745 /home/wh/.HoneyGUI-SDK/realgui/widget/gui_canvas/gui_canvas_arc.o
 .debug_info    0x00000000000b199a     0x1b8b /home/wh/.HoneyGUI-SDK/realgui/widget/gui_canvas/gui_canvas_img.o
 .debug_info    0x00000000000b3525     0x17dd /home/wh/.HoneyGUI-SDK/realgui/widget/gui_canvas/gui_canvas_rect.o
 .debug_info    0x00000000000b4d02     0x209a /home/wh/.HoneyGUI-SDK/realgui/widget/gui_canvas/gui_canvas_round_rect.o
 .debug_info    0x00000000000b6d9c     0xadc5 /home/wh/.HoneyGUI-SDK/realgui/engine/acc_api.o
 .debug_info    0x00000000000c1b61     0x1647 /home/wh/.HoneyGUI-SDK/realgui/engine/draw_font.o
 .debug_info    0x00000000000c31a8     0x1196 /home/wh/.HoneyGUI-SDK/realgui/engine/draw_img.o
 .debug_info    0x00000000000c433e      0x823 /home/wh/.HoneyGUI-SDK/realgui/engine/engine_gray.o
 .debug_info    0x00000000000c4b61     0x11be /home/wh/.HoneyGUI-SDK/realgui/engine/gui_matrix.o
 .debug_info    0x00000000000c5d1f      0xb76 /home/wh/.HoneyGUI-SDK/realgui/engine/gui_post_process.o
 .debug_info    0x00000000000c6895     0x147f /home/wh/.HoneyGUI-SDK/realgui/engine/font/font_custom.o
 .debug_info    0x00000000000c7d14     0x2ec8 /home/wh/.HoneyGUI-SDK/realgui/engine/font/font_mem.o
 .debug_info    0x00000000000cabdc     0x1ad4 /home/wh/.HoneyGUI-SDK/realgui/engine/font/font_mem_img.o
 .debug_info    0x00000000000cc6b0     0x310d /home/wh/.HoneyGUI-SDK/realgui/engine/font/font_mem_matrix.o
 .debug_info    0x00000000000cf7bd     0x22c3 /home/wh/.HoneyGUI-SDK/realgui/engine/font/font_rendering_utils.o
 .debug_info    0x00000000000d1a80     0x97fb /home/wh/.HoneyGUI-SDK/realgui/engine/font/font_stb.o
 .debug_info    0x00000000000db27b     0x317c /home/wh/.HoneyGUI-SDK/realgui/engine/font/font_ttf.o
 .debug_info    0x00000000000de3f7     0x10c9 /home/wh/.HoneyGUI-SDK/realgui/engine/sw/a8_2_a8.o
 .debug_info    0x00000000000df4c0     0x242f /home/wh/.HoneyGUI-SDK/realgui/engine/sw/a8_2_rgb565.o
 .debug_info    0x00000000000e18ef      0x94f /home/wh/.HoneyGUI-SDK/realgui/engine/sw/acc_sw.o
 .debug_info    0x00000000000e223e      0xe4c /home/wh/.HoneyGUI-SDK/realgui/engine/sw/acc_sw_arm2d_blur.o
 .debug_info    0x00000000000e308a     0x175d /home/wh/.HoneyGUI-SDK/realgui/engine/sw/acc_sw_raster.o
 .debug_info    0x00000000000e47e7     0x1409 /home/wh/.HoneyGUI-SDK/realgui/engine/sw/argb8565_2_rgb565.o
 .debug_info    0x00000000000e5bf0     0x2945 /home/wh/.HoneyGUI-SDK/realgui/engine/sw/rgb565_2_rgb565.o
 .debug_info    0x00000000000e8535     0x137d /home/wh/.HoneyGUI-SDK/realgui/engine/sw/idu/acc_sw_idu.o
 .debug_info    0x00000000000e98b2     0x11f5 /home/wh/.HoneyGUI-SDK/realgui/engine/sw/rle/acc_sw_rle.o
 .debug_info    0x00000000000eaaa7      0x981 /home/wh/.HoneyGUI-SDK/realgui/engine/sw/rle/acc_sw_rle_bypass.o
 .debug_info    0x00000000000eb428      0x8de /home/wh/.HoneyGUI-SDK/realgui/engine/sw/rle/acc_sw_rle_cover.o
 .debug_info    0x00000000000ebd06      0x981 /home/wh/.HoneyGUI-SDK/realgui/engine/sw/rle/acc_sw_rle_filter.o
 .debug_info    0x00000000000ec687     0x1457 /home/wh/.HoneyGUI-SDK/realgui/dc/gui_fb.o
 .debug_info    0x00000000000edade     0x1da6 /home/wh/.HoneyGUI-SDK/realgui/misc/tlsf/tlsf.o
 .debug_info    0x00000000000ef884     0x10e0 /home/wh/.HoneyGUI-SDK/example/widget/image/example_gui_img.o

.debug_abbrev   0x0000000000000000    0x1452a
 *(.debug_abbrev)
 .debug_abbrev  0x0000000000000000       0xdf build/main.o
 .debug_abbrev  0x00000000000000df      0x175 build/port/realgui_port/gui_port_acc.o
 .debug_abbrev  0x0000000000000254      0x1eb build/port/realgui_port/gui_port_dc.o
 .debug_abbrev  0x000000000000043f      0x1fa build/port/realgui_port/gui_port_filesystem.o
 .debug_abbrev  0x0000000000000639      0x15a build/port/realgui_port/gui_port_ftl.o
 .debug_abbrev  0x0000000000000793      0x1ed build/port/realgui_port/gui_port_indev.o
 .debug_abbrev  0x0000000000000980      0x2b2 build/port/realgui_port/gui_port_os.o
 .debug_abbrev  0x0000000000000c32      0x15d build/port/realgui_port/gui_queue.o
 .debug_abbrev  0x0000000000000d8f      0x2cf build/port/realgui_port/sdl_driver.o
 .debug_abbrev  0x000000000000105e      0x1cd /home/wh/.HoneyGUI-SDK/realgui/input/kb_algo.o
 .debug_abbrev  0x000000000000122b      0x265 /home/wh/.HoneyGUI-SDK/realgui/input/tp_algo.o
 .debug_abbrev  0x0000000000001490      0x15b /home/wh/.HoneyGUI-SDK/realgui/input/wheel_algo.o
 .debug_abbrev  0x00000000000015eb      0x17a /home/wh/.HoneyGUI-SDK/realgui/server/gui_api_acc.o
 .debug_abbrev  0x0000000000001765      0x2bb /home/wh/.HoneyGUI-SDK/realgui/server/gui_api_color.o
 .debug_abbrev  0x0000000000001a20      0x1a8 /home/wh/.HoneyGUI-SDK/realgui/server/gui_api_dc.o
 .debug_abbrev  0x0000000000001bc8      0x236 /home/wh/.HoneyGUI-SDK/realgui/server/gui_api_fs.o
 .debug_abbrev  0x0000000000001dfe       0xe8 /home/wh/.HoneyGUI-SDK/realgui/server/gui_api_ftl.o
 .debug_abbrev  0x0000000000001ee6      0x158 /home/wh/.HoneyGUI-SDK/realgui/server/gui_api_indev.o
 .debug_abbrev  0x000000000000203e      0x2da /home/wh/.HoneyGUI-SDK/realgui/server/gui_api_os.o
 .debug_abbrev  0x0000000000002318       0xac /home/wh/.HoneyGUI-SDK/realgui/server/gui_components_init.o
 .debug_abbrev  0x00000000000023c4      0x212 /home/wh/.HoneyGUI-SDK/realgui/server/gui_message.o
 .debug_abbrev  0x00000000000025d6       0x57 /home/wh/.HoneyGUI-SDK/realgui/server/gui_pm.o
 .debug_abbrev  0x000000000000262d      0x1ed /home/wh/.HoneyGUI-SDK/realgui/server/gui_server.o
 .debug_abbrev  0x000000000000281a      0x342 /home/wh/.HoneyGUI-SDK/realgui/3rd/cJSON/cJSON.o
 .debug_abbrev  0x0000000000002b5c       0xeb /home/wh/.HoneyGUI-SDK/realgui/3rd/nanovg/base/nanovg_port.o
 .debug_abbrev  0x0000000000002c47      0x428 /home/wh/.HoneyGUI-SDK/realgui/3rd/nanovg/base/nanovg.o
 .debug_abbrev  0x000000000000306f      0x24e /home/wh/.HoneyGUI-SDK/realgui/3rd/nanovg/agge/math.o
 .debug_abbrev  0x00000000000032bd      0x4b3 /home/wh/.HoneyGUI-SDK/realgui/3rd/nanovg/agge/stroke.o
 .debug_abbrev  0x0000000000003770      0x57d /home/wh/.HoneyGUI-SDK/realgui/3rd/nanovg/agge/stroke_features.o
 .debug_abbrev  0x0000000000003ced      0x4d6 /home/wh/.HoneyGUI-SDK/realgui/3rd/nanovg/agge/vector_rasterizer.o
 .debug_abbrev  0x00000000000041c3      0xa44 /home/wh/.HoneyGUI-SDK/realgui/3rd/nanovg/agge/nanovg_agge.o
 .debug_abbrev  0x0000000000004c07      0x218 /home/wh/.HoneyGUI-SDK/realgui/3rd/nanovg/agge/nanovg_vertex.o
 .debug_abbrev  0x0000000000004e1f      0x32e /home/wh/.HoneyGUI-SDK/realgui/3rd/gifdec/gifdec.o
 .debug_abbrev  0x000000000000514d      0x3aa /home/wh/.HoneyGUI-SDK/realgui/3rd/letter_shell/shell.o
 .debug_abbrev  0x00000000000054f7      0x1f3 /home/wh/.HoneyGUI-SDK/realgui/3rd/letter_shell/shell_companion.o
 .debug_abbrev  0x00000000000056ea      0x27d /home/wh/.HoneyGUI-SDK/realgui/3rd/letter_shell/shell_ext.o
 .debug_abbrev  0x0000000000005967      0x240 /home/wh/.HoneyGUI-SDK/realgui/3rd/letter_shell/shell_fs.o
 .debug_abbrev  0x0000000000005ba7      0x1d2 /home/wh/.HoneyGUI-SDK/realgui/3rd/letter_shell/shell_port.o
 .debug_abbrev  0x0000000000005d79      0x1a2 /home/wh/.HoneyGUI-SDK/realgui/3rd/h264bsd/src/gui_h264bsd.o
 .debug_abbrev  0x0000000000005f1b       0xd3 /home/wh/.HoneyGUI-SDK/realgui/3rd/h264bsd/src/h264bsd_byte_stream.o
 .debug_abbrev  0x0000000000005fee      0x151 /home/wh/.HoneyGUI-SDK/realgui/3rd/h264bsd/src/h264bsd_cavlc.o
 .debug_abbrev  0x000000000000613f      0x1ec /home/wh/.HoneyGUI-SDK/realgui/3rd/h264bsd/src/h264bsd_conceal.o
 .debug_abbrev  0x000000000000632b      0x26d /home/wh/.HoneyGUI-SDK/realgui/3rd/h264bsd/src/h264bsd_deblocking.o
 .debug_abbrev  0x0000000000006598      0x287 /home/wh/.HoneyGUI-SDK/realgui/3rd/h264bsd/src/h264bsd_decoder.o
 .debug_abbrev  0x000000000000681f      0x29f /home/wh/.HoneyGUI-SDK/realgui/3rd/h264bsd/src/h264bsd_dpb.o
 .debug_abbrev  0x0000000000006abe      0x141 /home/wh/.HoneyGUI-SDK/realgui/3rd/h264bsd/src/h264bsd_image.o
 .debug_abbrev  0x0000000000006bff      0x1f9 /home/wh/.HoneyGUI-SDK/realgui/3rd/h264bsd/src/h264bsd_inter_prediction.o
 .debug_abbrev  0x0000000000006df8      0x1f6 /home/wh/.HoneyGUI-SDK/realgui/3rd/h264bsd/src/h264bsd_intra_prediction.o
 .debug_abbrev  0x0000000000006fee      0x24a /home/wh/.HoneyGUI-SDK/realgui/3rd/h264bsd/src/h264bsd_macroblock_layer.o
 .debug_abbrev  0x0000000000007238       0xeb /home/wh/.HoneyGUI-SDK/realgui/3rd/h264bsd/src/h264bsd_nal_unit.o
 .debug_abbrev  0x0000000000007323      0x184 /home/wh/.HoneyGUI-SDK/realgui/3rd/h264bsd/src/h264bsd_neighbour.o
 .debug_abbrev  0x00000000000074a7      0x110 /home/wh/.HoneyGUI-SDK/realgui/3rd/h264bsd/src/h264bsd_pic_order_cnt.o
 .debug_abbrev  0x00000000000075b7      0x100 /home/wh/.HoneyGUI-SDK/realgui/3rd/h264bsd/src/h264bsd_pic_param_set.o
 .debug_abbrev  0x00000000000076b7      0x1f6 /home/wh/.HoneyGUI-SDK/realgui/3rd/h264bsd/src/h264bsd_reconstruct.o
 .debug_abbrev  0x00000000000078ad      0x15e /home/wh/.HoneyGUI-SDK/realgui/3rd/h264bsd/src/h264bsd_sei.o
 .debug_abbrev  0x0000000000007a0b      0x18f /home/wh/.HoneyGUI-SDK/realgui/3rd/h264bsd/src/h264bsd_seq_param_set.o
 .debug_abbrev  0x0000000000007b9a      0x1d0 /home/wh/.HoneyGUI-SDK/realgui/3rd/h264bsd/src/h264bsd_slice_data.o
 .debug_abbrev  0x0000000000007d6a      0x186 /home/wh/.HoneyGUI-SDK/realgui/3rd/h264bsd/src/h264bsd_slice_group_map.o
 .debug_abbrev  0x0000000000007ef0      0x1bd /home/wh/.HoneyGUI-SDK/realgui/3rd/h264bsd/src/h264bsd_slice_header.o
 .debug_abbrev  0x00000000000080ad      0x238 /home/wh/.HoneyGUI-SDK/realgui/3rd/h264bsd/src/h264bsd_storage.o
 .debug_abbrev  0x00000000000082e5       0xe7 /home/wh/.HoneyGUI-SDK/realgui/3rd/h264bsd/src/h264bsd_stream.o
 .debug_abbrev  0x00000000000083cc      0x124 /home/wh/.HoneyGUI-SDK/realgui/3rd/h264bsd/src/h264bsd_transform.o
 .debug_abbrev  0x00000000000084f0      0x1b5 /home/wh/.HoneyGUI-SDK/realgui/3rd/h264bsd/src/h264bsd_util.o
 .debug_abbrev  0x00000000000086a5      0x144 /home/wh/.HoneyGUI-SDK/realgui/3rd/h264bsd/src/h264bsd_vlc.o
 .debug_abbrev  0x00000000000087e9      0x151 /home/wh/.HoneyGUI-SDK/realgui/3rd/h264bsd/src/h264bsd_vui.o
 .debug_abbrev  0x000000000000893a       0xeb /home/wh/.HoneyGUI-SDK/realgui/3rd/h264bsd/port/h264bsd_port.o
 .debug_abbrev  0x0000000000008a25      0x22e /home/wh/.HoneyGUI-SDK/realgui/3rd/tjpgd/tjpgd.o
 .debug_abbrev  0x0000000000008c53      0x321 /home/wh/.HoneyGUI-SDK/realgui/3rd/ezXML/ezxml.o
 .debug_abbrev  0x0000000000008f74      0x596 /home/wh/.HoneyGUI-SDK/realgui/3rd/stb/stb_image.o
 .debug_abbrev  0x000000000000950a      0x32f /home/wh/.HoneyGUI-SDK/realgui/widget/gui_view/gui_view.o
 .debug_abbrev  0x0000000000009839      0x26f /home/wh/.HoneyGUI-SDK/realgui/widget/gui_view/gui_view_animate.o
 .debug_abbrev  0x0000000000009aa8      0x1d0 /home/wh/.HoneyGUI-SDK/realgui/widget/gui_view/gui_view_blur.o
 .debug_abbrev  0x0000000000009c78      0x188 /home/wh/.HoneyGUI-SDK/realgui/widget/gui_view/gui_view_cube.o
 .debug_abbrev  0x0000000000009e00      0x201 /home/wh/.HoneyGUI-SDK/realgui/widget/gui_view/gui_view_descriptor.o
 .debug_abbrev  0x000000000000a001      0x163 /home/wh/.HoneyGUI-SDK/realgui/widget/gui_view/gui_view_reduction.o
 .debug_abbrev  0x000000000000a164      0x188 /home/wh/.HoneyGUI-SDK/realgui/widget/gui_view/gui_view_rotate.o
 .debug_abbrev  0x000000000000a2ec      0x16c /home/wh/.HoneyGUI-SDK/realgui/widget/gui_view/gui_view_translation.o
 .debug_abbrev  0x000000000000a458      0x367 /home/wh/.HoneyGUI-SDK/realgui/widget/gui_text/gui_scroll_text.o
 .debug_abbrev  0x000000000000a7bf      0x35f /home/wh/.HoneyGUI-SDK/realgui/widget/gui_text/gui_text.o
 .debug_abbrev  0x000000000000ab1e      0x320 /home/wh/.HoneyGUI-SDK/realgui/widget/gui_lite_geometry/gui_lite_geometry_arc.o
 .debug_abbrev  0x000000000000ae3e      0x32b /home/wh/.HoneyGUI-SDK/realgui/widget/gui_lite_geometry/gui_lite_geometry_circle.o
 .debug_abbrev  0x000000000000b169      0x34b /home/wh/.HoneyGUI-SDK/realgui/widget/gui_lite_geometry/gui_lite_geometry_round_rect.o
 .debug_abbrev  0x000000000000b4b4      0x338 /home/wh/.HoneyGUI-SDK/realgui/widget/gui_lite_geometry/lite_geometry.o
 .debug_abbrev  0x000000000000b7ec      0x193 /home/wh/.HoneyGUI-SDK/realgui/widget/gui_lite_geometry/lite_geometry_math.o
 .debug_abbrev  0x000000000000b97f      0x393 /home/wh/.HoneyGUI-SDK/realgui/widget/gui_list/gui_list.o
 .debug_abbrev  0x000000000000bd12      0x1fe /home/wh/.HoneyGUI-SDK/realgui/widget/gui_list/gui_list_rotate_curl.o
 .debug_abbrev  0x000000000000bf10      0x1fe /home/wh/.HoneyGUI-SDK/realgui/widget/gui_list/gui_list_rotate_helix.o
 .debug_abbrev  0x000000000000c10e      0x23d /home/wh/.HoneyGUI-SDK/realgui/widget/gui_qbcode/gui_barcode_gen.o
 .debug_abbrev  0x000000000000c34b      0x331 /home/wh/.HoneyGUI-SDK/realgui/widget/gui_qbcode/gui_qbcode.o
 .debug_abbrev  0x000000000000c67c      0x26c /home/wh/.HoneyGUI-SDK/realgui/widget/gui_qbcode/gui_qrcode_gen.o
 .debug_abbrev  0x000000000000c8e8      0x2d2 /home/wh/.HoneyGUI-SDK/realgui/widget/gui_menu_cellular/gui_menu_cellular.o
 .debug_abbrev  0x000000000000cbba      0x28c /home/wh/.HoneyGUI-SDK/realgui/widget/gui_gray/gui_gray.o
 .debug_abbrev  0x000000000000ce46      0x33b /home/wh/.HoneyGUI-SDK/realgui/widget/gui_obj/gui_obj.o
 .debug_abbrev  0x000000000000d181      0x206 /home/wh/.HoneyGUI-SDK/realgui/widget/gui_obj/gui_obj_event.o
 .debug_abbrev  0x000000000000d387      0x1cc /home/wh/.HoneyGUI-SDK/realgui/widget/gui_obj/gui_obj_suppress.o
 .debug_abbrev  0x000000000000d553      0x18b /home/wh/.HoneyGUI-SDK/realgui/widget/gui_obj/gui_obj_timer.o
 .debug_abbrev  0x000000000000d6de      0x2c6 /home/wh/.HoneyGUI-SDK/realgui/widget/gui_obj/gui_obj_tree.o
 .debug_abbrev  0x000000000000d9a4      0x3f5 /home/wh/.HoneyGUI-SDK/realgui/widget/gui_soccer/gui_soccer.o
 .debug_abbrev  0x000000000000dd99      0x35b /home/wh/.HoneyGUI-SDK/realgui/widget/gui_glass/gui_glass.o
 .debug_abbrev  0x000000000000e0f4      0x37d /home/wh/.HoneyGUI-SDK/realgui/widget/gui_img/gui_img.o
 .debug_abbrev  0x000000000000e471      0x225 /home/wh/.HoneyGUI-SDK/realgui/widget/gui_img/gui_img_api.o
 .debug_abbrev  0x000000000000e696      0x40b /home/wh/.HoneyGUI-SDK/realgui/widget/gui_video/gui_video.o
 .debug_abbrev  0x000000000000eaa1      0x2bb /home/wh/.HoneyGUI-SDK/realgui/widget/gui_win/gui_win.o
 .debug_abbrev  0x000000000000ed5c      0x2d5 /home/wh/.HoneyGUI-SDK/realgui/widget/gui_canvas/gui_canvas.o
 .debug_abbrev  0x000000000000f031      0x32d /home/wh/.HoneyGUI-SDK/realgui/widget/gui_canvas/gui_canvas_arc.o
 .debug_abbrev  0x000000000000f35e      0x329 /home/wh/.HoneyGUI-SDK/realgui/widget/gui_canvas/gui_canvas_img.o
 .debug_abbrev  0x000000000000f687      0x2ee /home/wh/.HoneyGUI-SDK/realgui/widget/gui_canvas/gui_canvas_rect.o
 .debug_abbrev  0x000000000000f975      0x344 /home/wh/.HoneyGUI-SDK/realgui/widget/gui_canvas/gui_canvas_round_rect.o
 .debug_abbrev  0x000000000000fcb9      0x535 /home/wh/.HoneyGUI-SDK/realgui/engine/acc_api.o
 .debug_abbrev  0x00000000000101ee      0x26c /home/wh/.HoneyGUI-SDK/realgui/engine/draw_font.o
 .debug_abbrev  0x000000000001045a      0x2f9 /home/wh/.HoneyGUI-SDK/realgui/engine/draw_img.o
 .debug_abbrev  0x0000000000010753      0x1a8 /home/wh/.HoneyGUI-SDK/realgui/engine/engine_gray.o
 .debug_abbrev  0x00000000000108fb      0x288 /home/wh/.HoneyGUI-SDK/realgui/engine/gui_matrix.o
 .debug_abbrev  0x0000000000010b83      0x211 /home/wh/.HoneyGUI-SDK/realgui/engine/gui_post_process.o
 .debug_abbrev  0x0000000000010d94      0x1c7 /home/wh/.HoneyGUI-SDK/realgui/engine/font/font_custom.o
 .debug_abbrev  0x0000000000010f5b      0x335 /home/wh/.HoneyGUI-SDK/realgui/engine/font/font_mem.o
 .debug_abbrev  0x0000000000011290      0x25e /home/wh/.HoneyGUI-SDK/realgui/engine/font/font_mem_img.o
 .debug_abbrev  0x00000000000114ee      0x35a /home/wh/.HoneyGUI-SDK/realgui/engine/font/font_mem_matrix.o
 .debug_abbrev  0x0000000000011848      0x264 /home/wh/.HoneyGUI-SDK/realgui/engine/font/font_rendering_utils.o
 .debug_abbrev  0x0000000000011aac      0x425 /home/wh/.HoneyGUI-SDK/realgui/engine/font/font_stb.o
 .debug_abbrev  0x0000000000011ed1      0x355 /home/wh/.HoneyGUI-SDK/realgui/engine/font/font_ttf.o
 .debug_abbrev  0x0000000000012226      0x205 /home/wh/.HoneyGUI-SDK/realgui/engine/sw/a8_2_a8.o
 .debug_abbrev  0x000000000001242b      0x236 /home/wh/.HoneyGUI-SDK/realgui/engine/sw/a8_2_rgb565.o
 .debug_abbrev  0x0000000000012661      0x1df /home/wh/.HoneyGUI-SDK/realgui/engine/sw/acc_sw.o
 .debug_abbrev  0x0000000000012840      0x2e8 /home/wh/.HoneyGUI-SDK/realgui/engine/sw/acc_sw_arm2d_blur.o
 .debug_abbrev  0x0000000000012b28      0x2ac /home/wh/.HoneyGUI-SDK/realgui/engine/sw/acc_sw_raster.o
 .debug_abbrev  0x0000000000012dd4      0x23c /home/wh/.HoneyGUI-SDK/realgui/engine/sw/argb8565_2_rgb565.o
 .debug_abbrev  0x0000000000013010      0x2a1 /home/wh/.HoneyGUI-SDK/realgui/engine/sw/rgb565_2_rgb565.o
 .debug_abbrev  0x00000000000132b1      0x226 /home/wh/.HoneyGUI-SDK/realgui/engine/sw/idu/acc_sw_idu.o
 .debug_abbrev  0x00000000000134d7      0x277 /home/wh/.HoneyGUI-SDK/realgui/engine/sw/rle/acc_sw_rle.o
 .debug_abbrev  0x000000000001374e      0x1cd /home/wh/.HoneyGUI-SDK/realgui/engine/sw/rle/acc_sw_rle_bypass.o
 .debug_abbrev  0x000000000001391b      0x1c4 /home/wh/.HoneyGUI-SDK/realgui/engine/sw/rle/acc_sw_rle_cover.o
 .debug_abbrev  0x0000000000013adf      0x1cd /home/wh/.HoneyGUI-SDK/realgui/engine/sw/rle/acc_sw_rle_filter.o
 .debug_abbrev  0x0000000000013cac      0x31d /home/wh/.HoneyGUI-SDK/realgui/dc/gui_fb.o
 .debug_abbrev  0x0000000000013fc9      0x2e5 /home/wh/.HoneyGUI-SDK/realgui/misc/tlsf/tlsf.o
 .debug_abbrev  0x00000000000142ae      0x27c /home/wh/.HoneyGUI-SDK/example/widget/image/example_gui_img.o

.debug_line     0x0000000000000000    0x69538
 *(.debug_line .debug_line.* .debug_line_end)
 .debug_line    0x0000000000000000      0x12e build/main.o
 .debug_line    0x000000000000012e      0x148 build/port/realgui_port/gui_port_acc.o
 .debug_line    0x0000000000000276      0x296 build/port/realgui_port/gui_port_dc.o
 .debug_line    0x000000000000050c      0x2cf build/port/realgui_port/gui_port_filesystem.o
 .debug_line    0x00000000000007db      0x151 build/port/realgui_port/gui_port_ftl.o
 .debug_line    0x000000000000092c      0x20b build/port/realgui_port/gui_port_indev.o
 .debug_line    0x0000000000000b37      0x450 build/port/realgui_port/gui_port_os.o
 .debug_line    0x0000000000000f87      0x1d4 build/port/realgui_port/gui_queue.o
 .debug_line    0x000000000000115b      0x4ba build/port/realgui_port/sdl_driver.o
 .debug_line    0x0000000000001615      0x263 /home/wh/.HoneyGUI-SDK/realgui/input/kb_algo.o
 .debug_line    0x0000000000001878      0x6e3 /home/wh/.HoneyGUI-SDK/realgui/input/tp_algo.o
 .debug_line    0x0000000000001f5b      0x1e4 /home/wh/.HoneyGUI-SDK/realgui/input/wheel_algo.o
 .debug_line    0x000000000000213f      0x124 /home/wh/.HoneyGUI-SDK/realgui/server/gui_api_acc.o
 .debug_line    0x0000000000002263      0x4cc /home/wh/.HoneyGUI-SDK/realgui/server/gui_api_color.o
 .debug_line    0x000000000000272f      0x1dc /home/wh/.HoneyGUI-SDK/realgui/server/gui_api_dc.o
 .debug_line    0x000000000000290b      0x3d4 /home/wh/.HoneyGUI-SDK/realgui/server/gui_api_fs.o
 .debug_line    0x0000000000002cdf      0x11f /home/wh/.HoneyGUI-SDK/realgui/server/gui_api_ftl.o
 .debug_line    0x0000000000002dfe      0x179 /home/wh/.HoneyGUI-SDK/realgui/server/gui_api_indev.o
 .debug_line    0x0000000000002f77      0x5a5 /home/wh/.HoneyGUI-SDK/realgui/server/gui_api_os.o
 .debug_line    0x000000000000351c       0xbe /home/wh/.HoneyGUI-SDK/realgui/server/gui_components_init.o
 .debug_line    0x00000000000035da      0x282 /home/wh/.HoneyGUI-SDK/realgui/server/gui_message.o
 .debug_line    0x000000000000385c       0x6a /home/wh/.HoneyGUI-SDK/realgui/server/gui_pm.o
 .debug_line    0x00000000000038c6      0x2a5 /home/wh/.HoneyGUI-SDK/realgui/server/gui_server.o
 .debug_line    0x0000000000003b6b     0x20b5 /home/wh/.HoneyGUI-SDK/realgui/3rd/cJSON/cJSON.o
 .debug_line    0x0000000000005c20      0x10c /home/wh/.HoneyGUI-SDK/realgui/3rd/nanovg/base/nanovg_port.o
 .debug_line    0x0000000000005d2c     0x2249 /home/wh/.HoneyGUI-SDK/realgui/3rd/nanovg/base/nanovg.o
 .debug_line    0x0000000000007f75      0x1c3 /home/wh/.HoneyGUI-SDK/realgui/3rd/nanovg/agge/math.o
 .debug_line    0x0000000000008138      0xa61 /home/wh/.HoneyGUI-SDK/realgui/3rd/nanovg/agge/stroke.o
 .debug_line    0x0000000000008b99      0xd61 /home/wh/.HoneyGUI-SDK/realgui/3rd/nanovg/agge/stroke_features.o
 .debug_line    0x00000000000098fa      0xff4 /home/wh/.HoneyGUI-SDK/realgui/3rd/nanovg/agge/vector_rasterizer.o
 .debug_line    0x000000000000a8ee     0xda61 /home/wh/.HoneyGUI-SDK/realgui/3rd/nanovg/agge/nanovg_agge.o
 .debug_line    0x000000000001834f      0x16f /home/wh/.HoneyGUI-SDK/realgui/3rd/nanovg/agge/nanovg_vertex.o
 .debug_line    0x00000000000184be      0xbd3 /home/wh/.HoneyGUI-SDK/realgui/3rd/gifdec/gifdec.o
 .debug_line    0x0000000000019091     0x1320 /home/wh/.HoneyGUI-SDK/realgui/3rd/letter_shell/shell.o
 .debug_line    0x000000000001a3b1      0x160 /home/wh/.HoneyGUI-SDK/realgui/3rd/letter_shell/shell_companion.o
 .debug_line    0x000000000001a511      0x4da /home/wh/.HoneyGUI-SDK/realgui/3rd/letter_shell/shell_ext.o
 .debug_line    0x000000000001a9eb      0x132 /home/wh/.HoneyGUI-SDK/realgui/3rd/letter_shell/shell_fs.o
 .debug_line    0x000000000001ab1d       0x97 /home/wh/.HoneyGUI-SDK/realgui/3rd/letter_shell/shell_port.o
 .debug_line    0x000000000001abb4        0x0 /home/wh/.HoneyGUI-SDK/realgui/3rd/h264bsd/src/YUV2RGB.o
 .debug_line    0x000000000001abb4      0x3ed /home/wh/.HoneyGUI-SDK/realgui/3rd/h264bsd/src/gui_h264bsd.o
 .debug_line    0x000000000001afa1        0x0 /home/wh/.HoneyGUI-SDK/realgui/3rd/h264bsd/src/h264bsdTest.o
 .debug_line    0x000000000001afa1      0x25e /home/wh/.HoneyGUI-SDK/realgui/3rd/h264bsd/src/h264bsd_byte_stream.o
 .debug_line    0x000000000001b1ff      0x65a /home/wh/.HoneyGUI-SDK/realgui/3rd/h264bsd/src/h264bsd_cavlc.o
 .debug_line    0x000000000001b859     0x1052 /home/wh/.HoneyGUI-SDK/realgui/3rd/h264bsd/src/h264bsd_conceal.o
 .debug_line    0x000000000001c8ab     0x2b86 /home/wh/.HoneyGUI-SDK/realgui/3rd/h264bsd/src/h264bsd_deblocking.o
 .debug_line    0x000000000001f431      0xee0 /home/wh/.HoneyGUI-SDK/realgui/3rd/h264bsd/src/h264bsd_decoder.o
 .debug_line    0x0000000000020311      0xee9 /home/wh/.HoneyGUI-SDK/realgui/3rd/h264bsd/src/h264bsd_dpb.o
 .debug_line    0x00000000000211fa      0x5e6 /home/wh/.HoneyGUI-SDK/realgui/3rd/h264bsd/src/h264bsd_image.o
 .debug_line    0x00000000000217e0      0x8e0 /home/wh/.HoneyGUI-SDK/realgui/3rd/h264bsd/src/h264bsd_inter_prediction.o
 .debug_line    0x00000000000220c0     0x1ee0 /home/wh/.HoneyGUI-SDK/realgui/3rd/h264bsd/src/h264bsd_intra_prediction.o
 .debug_line    0x0000000000023fa0      0xa82 /home/wh/.HoneyGUI-SDK/realgui/3rd/h264bsd/src/h264bsd_macroblock_layer.o
 .debug_line    0x0000000000024a22      0x152 /home/wh/.HoneyGUI-SDK/realgui/3rd/h264bsd/src/h264bsd_nal_unit.o
 .debug_line    0x0000000000024b74      0x20a /home/wh/.HoneyGUI-SDK/realgui/3rd/h264bsd/src/h264bsd_neighbour.o
 .debug_line    0x0000000000024d7e      0x393 /home/wh/.HoneyGUI-SDK/realgui/3rd/h264bsd/src/h264bsd_pic_order_cnt.o
 .debug_line    0x0000000000025111      0x480 /home/wh/.HoneyGUI-SDK/realgui/3rd/h264bsd/src/h264bsd_pic_param_set.o
 .debug_line    0x0000000000025591     0x3208 /home/wh/.HoneyGUI-SDK/realgui/3rd/h264bsd/src/h264bsd_reconstruct.o
 .debug_line    0x0000000000028799      0xcbe /home/wh/.HoneyGUI-SDK/realgui/3rd/h264bsd/src/h264bsd_sei.o
 .debug_line    0x0000000000029457      0x60a /home/wh/.HoneyGUI-SDK/realgui/3rd/h264bsd/src/h264bsd_seq_param_set.o
 .debug_line    0x0000000000029a61      0x42e /home/wh/.HoneyGUI-SDK/realgui/3rd/h264bsd/src/h264bsd_slice_data.o
 .debug_line    0x0000000000029e8f      0x4fd /home/wh/.HoneyGUI-SDK/realgui/3rd/h264bsd/src/h264bsd_slice_group_map.o
 .debug_line    0x000000000002a38c      0xb42 /home/wh/.HoneyGUI-SDK/realgui/3rd/h264bsd/src/h264bsd_slice_header.o
 .debug_line    0x000000000002aece      0x932 /home/wh/.HoneyGUI-SDK/realgui/3rd/h264bsd/src/h264bsd_storage.o
 .debug_line    0x000000000002b800      0x1ba /home/wh/.HoneyGUI-SDK/realgui/3rd/h264bsd/src/h264bsd_stream.o
 .debug_line    0x000000000002b9ba      0x918 /home/wh/.HoneyGUI-SDK/realgui/3rd/h264bsd/src/h264bsd_transform.o
 .debug_line    0x000000000002c2d2      0x203 /home/wh/.HoneyGUI-SDK/realgui/3rd/h264bsd/src/h264bsd_util.o
 .debug_line    0x000000000002c4d5      0x255 /home/wh/.HoneyGUI-SDK/realgui/3rd/h264bsd/src/h264bsd_vlc.o
 .debug_line    0x000000000002c72a      0x4d0 /home/wh/.HoneyGUI-SDK/realgui/3rd/h264bsd/src/h264bsd_vui.o
 .debug_line    0x000000000002cbfa      0x125 /home/wh/.HoneyGUI-SDK/realgui/3rd/h264bsd/port/h264bsd_port.o
 .debug_line    0x000000000002cd1f     0x11cd /home/wh/.HoneyGUI-SDK/realgui/3rd/tjpgd/tjpgd.o
 .debug_line    0x000000000002deec     0x298c /home/wh/.HoneyGUI-SDK/realgui/3rd/ezXML/ezxml.o
 .debug_line    0x0000000000030878     0x76a5 /home/wh/.HoneyGUI-SDK/realgui/3rd/stb/stb_image.o
 .debug_line    0x0000000000037f1d      0xb42 /home/wh/.HoneyGUI-SDK/realgui/widget/gui_view/gui_view.o
 .debug_line    0x0000000000038a5f      0x683 /home/wh/.HoneyGUI-SDK/realgui/widget/gui_view/gui_view_animate.o
 .debug_line    0x00000000000390e2      0x3be /home/wh/.HoneyGUI-SDK/realgui/widget/gui_view/gui_view_blur.o
 .debug_line    0x00000000000394a0      0x350 /home/wh/.HoneyGUI-SDK/realgui/widget/gui_view/gui_view_cube.o
 .debug_line    0x00000000000397f0      0x25f /home/wh/.HoneyGUI-SDK/realgui/widget/gui_view/gui_view_descriptor.o
 .debug_line    0x0000000000039a4f      0x257 /home/wh/.HoneyGUI-SDK/realgui/widget/gui_view/gui_view_reduction.o
 .debug_line    0x0000000000039ca6      0x320 /home/wh/.HoneyGUI-SDK/realgui/widget/gui_view/gui_view_rotate.o
 .debug_line    0x0000000000039fc6      0x2f9 /home/wh/.HoneyGUI-SDK/realgui/widget/gui_view/gui_view_translation.o
 .debug_line    0x000000000003a2bf      0xa30 /home/wh/.HoneyGUI-SDK/realgui/widget/gui_text/gui_scroll_text.o
 .debug_line    0x000000000003acef      0x9dd /home/wh/.HoneyGUI-SDK/realgui/widget/gui_text/gui_text.o
 .debug_line    0x000000000003b6cc      0x850 /home/wh/.HoneyGUI-SDK/realgui/widget/gui_lite_geometry/gui_lite_geometry_arc.o
 .debug_line    0x000000000003bf1c      0x852 /home/wh/.HoneyGUI-SDK/realgui/widget/gui_lite_geometry/gui_lite_geometry_circle.o
 .debug_line    0x000000000003c76e      0x91b /home/wh/.HoneyGUI-SDK/realgui/widget/gui_lite_geometry/gui_lite_geometry_round_rect.o
 .debug_line    0x000000000003d089     0x20ce /home/wh/.HoneyGUI-SDK/realgui/widget/gui_lite_geometry/lite_geometry.o
 .debug_line    0x000000000003f157      0x378 /home/wh/.HoneyGUI-SDK/realgui/widget/gui_lite_geometry/lite_geometry_math.o
 .debug_line    0x000000000003f4cf     0x1710 /home/wh/.HoneyGUI-SDK/realgui/widget/gui_list/gui_list.o
 .debug_line    0x0000000000040bdf      0x35f /home/wh/.HoneyGUI-SDK/realgui/widget/gui_list/gui_list_rotate_curl.o
 .debug_line    0x0000000000040f3e      0x35c /home/wh/.HoneyGUI-SDK/realgui/widget/gui_list/gui_list_rotate_helix.o
 .debug_line    0x000000000004129a     0x1017 /home/wh/.HoneyGUI-SDK/realgui/widget/gui_qbcode/gui_barcode_gen.o
 .debug_line    0x00000000000422b1      0xa8c /home/wh/.HoneyGUI-SDK/realgui/widget/gui_qbcode/gui_qbcode.o
 .debug_line    0x0000000000042d3d     0x1347 /home/wh/.HoneyGUI-SDK/realgui/widget/gui_qbcode/gui_qrcode_gen.o
 .debug_line    0x0000000000044084      0x877 /home/wh/.HoneyGUI-SDK/realgui/widget/gui_menu_cellular/gui_menu_cellular.o
 .debug_line    0x00000000000448fb      0x4fc /home/wh/.HoneyGUI-SDK/realgui/widget/gui_gray/gui_gray.o
 .debug_line    0x0000000000044df7      0x893 /home/wh/.HoneyGUI-SDK/realgui/widget/gui_obj/gui_obj.o
 .debug_line    0x000000000004568a      0x5bf /home/wh/.HoneyGUI-SDK/realgui/widget/gui_obj/gui_obj_event.o
 .debug_line    0x0000000000045c49      0x37a /home/wh/.HoneyGUI-SDK/realgui/widget/gui_obj/gui_obj_suppress.o
 .debug_line    0x0000000000045fc3      0x273 /home/wh/.HoneyGUI-SDK/realgui/widget/gui_obj/gui_obj_timer.o
 .debug_line    0x0000000000046236      0x5fe /home/wh/.HoneyGUI-SDK/realgui/widget/gui_obj/gui_obj_tree.o
 .debug_line    0x0000000000046834     0x130e /home/wh/.HoneyGUI-SDK/realgui/widget/gui_soccer/gui_soccer.o
 .debug_line    0x0000000000047b42      0xf0e /home/wh/.HoneyGUI-SDK/realgui/widget/gui_glass/gui_glass.o
 .debug_line    0x0000000000048a50      0x9eb /home/wh/.HoneyGUI-SDK/realgui/widget/gui_img/gui_img.o
 .debug_line    0x000000000004943b      0x4ae /home/wh/.HoneyGUI-SDK/realgui/widget/gui_img/gui_img_api.o
 .debug_line    0x00000000000498e9     0x108a /home/wh/.HoneyGUI-SDK/realgui/widget/gui_video/gui_video.o
 .debug_line    0x000000000004a973      0x4d6 /home/wh/.HoneyGUI-SDK/realgui/widget/gui_win/gui_win.o
 .debug_line    0x000000000004ae49      0x5de /home/wh/.HoneyGUI-SDK/realgui/widget/gui_canvas/gui_canvas.o
 .debug_line    0x000000000004b427     0x13ba /home/wh/.HoneyGUI-SDK/realgui/widget/gui_canvas/gui_canvas_arc.o
 .debug_line    0x000000000004c7e1      0x68e /home/wh/.HoneyGUI-SDK/realgui/widget/gui_canvas/gui_canvas_img.o
 .debug_line    0x000000000004ce6f      0x4e3 /home/wh/.HoneyGUI-SDK/realgui/widget/gui_canvas/gui_canvas_rect.o
 .debug_line    0x000000000004d352      0xe32 /home/wh/.HoneyGUI-SDK/realgui/widget/gui_canvas/gui_canvas_round_rect.o
 .debug_line    0x000000000004e184     0x4f3a /home/wh/.HoneyGUI-SDK/realgui/engine/acc_api.o
 .debug_line    0x00000000000530be      0xe4c /home/wh/.HoneyGUI-SDK/realgui/engine/draw_font.o
 .debug_line    0x0000000000053f0a      0x5e3 /home/wh/.HoneyGUI-SDK/realgui/engine/draw_img.o
 .debug_line    0x00000000000544ed      0x449 /home/wh/.HoneyGUI-SDK/realgui/engine/engine_gray.o
 .debug_line    0x0000000000054936      0xbbb /home/wh/.HoneyGUI-SDK/realgui/engine/gui_matrix.o
 .debug_line    0x00000000000554f1      0x2e3 /home/wh/.HoneyGUI-SDK/realgui/engine/gui_post_process.o
 .debug_line    0x00000000000557d4      0x2e8 /home/wh/.HoneyGUI-SDK/realgui/engine/font/font_custom.o
 .debug_line    0x0000000000055abc     0x1f48 /home/wh/.HoneyGUI-SDK/realgui/engine/font/font_mem.o
 .debug_line    0x0000000000057a04      0x55f /home/wh/.HoneyGUI-SDK/realgui/engine/font/font_mem_img.o
 .debug_line    0x0000000000057f63     0x15da /home/wh/.HoneyGUI-SDK/realgui/engine/font/font_mem_matrix.o
 .debug_line    0x000000000005953d     0x1648 /home/wh/.HoneyGUI-SDK/realgui/engine/font/font_rendering_utils.o
 .debug_line    0x000000000005ab85     0x5e46 /home/wh/.HoneyGUI-SDK/realgui/engine/font/font_stb.o
 .debug_line    0x00000000000609cb     0x265f /home/wh/.HoneyGUI-SDK/realgui/engine/font/font_ttf.o
 .debug_line    0x000000000006302a      0x48c /home/wh/.HoneyGUI-SDK/realgui/engine/sw/a8_2_a8.o
 .debug_line    0x00000000000634b6      0x899 /home/wh/.HoneyGUI-SDK/realgui/engine/sw/a8_2_rgb565.o
 .debug_line    0x0000000000063d4f      0x26d /home/wh/.HoneyGUI-SDK/realgui/engine/sw/acc_sw.o
 .debug_line    0x0000000000063fbc      0x74f /home/wh/.HoneyGUI-SDK/realgui/engine/sw/acc_sw_arm2d_blur.o
 .debug_line    0x000000000006470b      0x798 /home/wh/.HoneyGUI-SDK/realgui/engine/sw/acc_sw_raster.o
 .debug_line    0x0000000000064ea3      0x457 /home/wh/.HoneyGUI-SDK/realgui/engine/sw/argb8565_2_rgb565.o
 .debug_line    0x00000000000652fa      0xb53 /home/wh/.HoneyGUI-SDK/realgui/engine/sw/rgb565_2_rgb565.o
 .debug_line    0x0000000000065e4d     0x1169 /home/wh/.HoneyGUI-SDK/realgui/engine/sw/idu/acc_sw_idu.o
 .debug_line    0x0000000000066fb6      0x694 /home/wh/.HoneyGUI-SDK/realgui/engine/sw/rle/acc_sw_rle.o
 .debug_line    0x000000000006764a      0x30c /home/wh/.HoneyGUI-SDK/realgui/engine/sw/rle/acc_sw_rle_bypass.o
 .debug_line    0x0000000000067956      0x254 /home/wh/.HoneyGUI-SDK/realgui/engine/sw/rle/acc_sw_rle_cover.o
 .debug_line    0x0000000000067baa      0x31a /home/wh/.HoneyGUI-SDK/realgui/engine/sw/rle/acc_sw_rle_filter.o
 .debug_line    0x0000000000067ec4      0x879 /home/wh/.HoneyGUI-SDK/realgui/dc/gui_fb.o
 .debug_line    0x000000000006873d      0xa5c /home/wh/.HoneyGUI-SDK/realgui/misc/tlsf/tlsf.o
 .debug_line    0x0000000000069199      0x39f /home/wh/.HoneyGUI-SDK/example/widget/image/example_gui_img.o

.debug_frame
 *(.debug_frame)

.debug_str      0x0000000000000000    0x428ed
 *(.debug_str)
 .debug_str     0x0000000000000000      0x169 build/main.o
                                        0x1c0 (size before relaxing)
 .debug_str     0x0000000000000169      0x401 build/port/realgui_port/gui_port_acc.o
                                        0x64a (size before relaxing)
 .debug_str     0x000000000000056a     0x1c59 build/port/realgui_port/gui_port_dc.o
                                       0x2107 (size before relaxing)
 .debug_str     0x00000000000021c3      0x235 build/port/realgui_port/gui_port_filesystem.o
                                        0x490 (size before relaxing)
 .debug_str     0x00000000000023f8       0x90 build/port/realgui_port/gui_port_ftl.o
                                        0x24c (size before relaxing)
 .debug_str     0x0000000000002488      0x278 build/port/realgui_port/gui_port_indev.o
                                       0x2100 (size before relaxing)
 .debug_str     0x0000000000002700      0x72a build/port/realgui_port/gui_port_os.o
                                        0xad9 (size before relaxing)
 .debug_str     0x0000000000002e2a       0x4c build/port/realgui_port/gui_queue.o
                                        0x29d (size before relaxing)
 .debug_str     0x0000000000002e76      0xf3b build/port/realgui_port/sdl_driver.o
                                       0x3112 (size before relaxing)
 .debug_str     0x0000000000003db1      0x2b2 /home/wh/.HoneyGUI-SDK/realgui/input/kb_algo.o
                                        0x6fe (size before relaxing)
 .debug_str     0x0000000000004063      0x3b0 /home/wh/.HoneyGUI-SDK/realgui/input/tp_algo.o
                                        0x9d8 (size before relaxing)
 .debug_str     0x0000000000004413       0x5e /home/wh/.HoneyGUI-SDK/realgui/input/wheel_algo.o
                                        0x4d9 (size before relaxing)
 .debug_str     0x0000000000004471       0x40 /home/wh/.HoneyGUI-SDK/realgui/server/gui_api_acc.o
                                        0x642 (size before relaxing)
 .debug_str     0x00000000000044b1      0x170 /home/wh/.HoneyGUI-SDK/realgui/server/gui_api_color.o
                                        0x68a (size before relaxing)
 .debug_str     0x0000000000004621       0x8f /home/wh/.HoneyGUI-SDK/realgui/server/gui_api_dc.o
                                        0x548 (size before relaxing)
 .debug_str     0x00000000000046b0      0x16d /home/wh/.HoneyGUI-SDK/realgui/server/gui_api_fs.o
                                        0x659 (size before relaxing)
 .debug_str     0x000000000000481d       0x5d /home/wh/.HoneyGUI-SDK/realgui/server/gui_api_ftl.o
                                        0x25b (size before relaxing)
 .debug_str     0x000000000000487a       0x4e /home/wh/.HoneyGUI-SDK/realgui/server/gui_api_indev.o
                                        0x4da (size before relaxing)
 .debug_str     0x00000000000048c8      0x240 /home/wh/.HoneyGUI-SDK/realgui/server/gui_api_os.o
                                        0x6d5 (size before relaxing)
 .debug_str     0x0000000000004b08       0x8f /home/wh/.HoneyGUI-SDK/realgui/server/gui_components_init.o
                                        0x1b8 (size before relaxing)
 .debug_str     0x0000000000004b97      0x95c /home/wh/.HoneyGUI-SDK/realgui/server/gui_message.o
                                        0xcd6 (size before relaxing)
 .debug_str     0x00000000000054f3       0x5b /home/wh/.HoneyGUI-SDK/realgui/server/gui_pm.o
                                        0x1fa (size before relaxing)
 .debug_str     0x000000000000554e       0x8b /home/wh/.HoneyGUI-SDK/realgui/server/gui_server.o
                                       0x10c8 (size before relaxing)
 .debug_str     0x00000000000055d9      0xc4b /home/wh/.HoneyGUI-SDK/realgui/3rd/cJSON/cJSON.o
                                        0xf98 (size before relaxing)
 .debug_str     0x0000000000006224       0x9e /home/wh/.HoneyGUI-SDK/realgui/3rd/nanovg/base/nanovg_port.o
                                        0x269 (size before relaxing)
 .debug_str     0x00000000000062c2      0xf72 /home/wh/.HoneyGUI-SDK/realgui/3rd/nanovg/base/nanovg.o
                                       0x1399 (size before relaxing)
 .debug_str     0x0000000000007234      0xbdb /home/wh/.HoneyGUI-SDK/realgui/3rd/nanovg/agge/math.o
                                        0xd56 (size before relaxing)
 .debug_str     0x0000000000007e0f      0xf78 /home/wh/.HoneyGUI-SDK/realgui/3rd/nanovg/agge/stroke.o
                                       0x11fd (size before relaxing)
 .debug_str     0x0000000000008d87      0x700 /home/wh/.HoneyGUI-SDK/realgui/3rd/nanovg/agge/stroke_features.o
                                       0x201b (size before relaxing)
 .debug_str     0x0000000000009487      0xe44 /home/wh/.HoneyGUI-SDK/realgui/3rd/nanovg/agge/vector_rasterizer.o
                                       0x119a (size before relaxing)
 .debug_str     0x000000000000a2cb    0x2455b /home/wh/.HoneyGUI-SDK/realgui/3rd/nanovg/agge/nanovg_agge.o
                                      0x2757f (size before relaxing)
 .debug_str     0x000000000002e826       0x98 /home/wh/.HoneyGUI-SDK/realgui/3rd/nanovg/agge/nanovg_vertex.o
                                        0x373 (size before relaxing)
 .debug_str     0x000000000002e8be      0x320 /home/wh/.HoneyGUI-SDK/realgui/3rd/gifdec/gifdec.o
                                        0x832 (size before relaxing)
 .debug_str     0x000000000002ebde      0xb8c /home/wh/.HoneyGUI-SDK/realgui/3rd/letter_shell/shell.o
                                        0xe5e (size before relaxing)
 .debug_str     0x000000000002f76a       0x8a /home/wh/.HoneyGUI-SDK/realgui/3rd/letter_shell/shell_companion.o
                                        0x46e (size before relaxing)
 .debug_str     0x000000000002f7f4      0x139 /home/wh/.HoneyGUI-SDK/realgui/3rd/letter_shell/shell_ext.o
                                        0x581 (size before relaxing)
 .debug_str     0x000000000002f92d       0xe4 /home/wh/.HoneyGUI-SDK/realgui/3rd/letter_shell/shell_fs.o
                                        0x502 (size before relaxing)
 .debug_str     0x000000000002fa11       0x83 /home/wh/.HoneyGUI-SDK/realgui/3rd/letter_shell/shell_port.o
                                        0x45e (size before relaxing)
 .debug_str     0x000000000002fa94       0x39 /home/wh/.HoneyGUI-SDK/realgui/3rd/h264bsd/src/YUV2RGB.o
                                        0x143 (size before relaxing)
 .debug_str     0x000000000002facd     0x133b /home/wh/.HoneyGUI-SDK/realgui/3rd/h264bsd/src/gui_h264bsd.o
                                       0x1543 (size before relaxing)
 .debug_str     0x0000000000030e08       0x3d /home/wh/.HoneyGUI-SDK/realgui/3rd/h264bsd/src/h264bsdTest.o
                                        0x147 (size before relaxing)
 .debug_str     0x0000000000030e45       0xbf /home/wh/.HoneyGUI-SDK/realgui/3rd/h264bsd/src/h264bsd_byte_stream.o
                                        0x2b3 (size before relaxing)
 .debug_str     0x0000000000030f04      0x308 /home/wh/.HoneyGUI-SDK/realgui/3rd/h264bsd/src/h264bsd_cavlc.o
                                        0x513 (size before relaxing)
 .debug_str     0x000000000003120c      0x105 /home/wh/.HoneyGUI-SDK/realgui/3rd/h264bsd/src/h264bsd_conceal.o
                                       0x13ca (size before relaxing)
 .debug_str     0x0000000000031311      0x2ab /home/wh/.HoneyGUI-SDK/realgui/3rd/h264bsd/src/h264bsd_deblocking.o
                                        0x702 (size before relaxing)
 .debug_str     0x00000000000315bc      0x639 /home/wh/.HoneyGUI-SDK/realgui/3rd/h264bsd/src/h264bsd_decoder.o
                                       0x1a38 (size before relaxing)
 .debug_str     0x0000000000031bf5      0x1c3 /home/wh/.HoneyGUI-SDK/realgui/3rd/h264bsd/src/h264bsd_dpb.o
                                        0x786 (size before relaxing)
 .debug_str     0x0000000000031db8       0xa0 /home/wh/.HoneyGUI-SDK/realgui/3rd/h264bsd/src/h264bsd_image.o
                                        0x2a4 (size before relaxing)
 .debug_str     0x0000000000031e58      0x244 /home/wh/.HoneyGUI-SDK/realgui/3rd/h264bsd/src/h264bsd_inter_prediction.o
                                        0x930 (size before relaxing)
 .debug_str     0x000000000003209c      0x4bd /home/wh/.HoneyGUI-SDK/realgui/3rd/h264bsd/src/h264bsd_intra_prediction.o
                                        0xab3 (size before relaxing)
 .debug_str     0x0000000000032559      0x27c /home/wh/.HoneyGUI-SDK/realgui/3rd/h264bsd/src/h264bsd_macroblock_layer.o
                                        0xbf6 (size before relaxing)
 .debug_str     0x00000000000327d5       0x4b /home/wh/.HoneyGUI-SDK/realgui/3rd/h264bsd/src/h264bsd_nal_unit.o
                                        0x33f (size before relaxing)
 .debug_str     0x0000000000032820       0x95 /home/wh/.HoneyGUI-SDK/realgui/3rd/h264bsd/src/h264bsd_neighbour.o
                                        0x578 (size before relaxing)
 .debug_str     0x00000000000328b5       0xca /home/wh/.HoneyGUI-SDK/realgui/3rd/h264bsd/src/h264bsd_pic_order_cnt.o
                                        0xbb4 (size before relaxing)
 .debug_str     0x000000000003297f       0x83 /home/wh/.HoneyGUI-SDK/realgui/3rd/h264bsd/src/h264bsd_pic_param_set.o
                                        0x462 (size before relaxing)
 .debug_str     0x0000000000032a02      0x2e2 /home/wh/.HoneyGUI-SDK/realgui/3rd/h264bsd/src/h264bsd_reconstruct.o
                                        0x518 (size before relaxing)
 .debug_str     0x0000000000032ce4      0xcf9 /home/wh/.HoneyGUI-SDK/realgui/3rd/h264bsd/src/h264bsd_sei.o
                                       0x1620 (size before relaxing)
 .debug_str     0x00000000000339dd       0xb5 /home/wh/.HoneyGUI-SDK/realgui/3rd/h264bsd/src/h264bsd_seq_param_set.o
                                        0x8a4 (size before relaxing)
 .debug_str     0x0000000000033a92       0xa2 /home/wh/.HoneyGUI-SDK/realgui/3rd/h264bsd/src/h264bsd_slice_data.o
                                       0x1428 (size before relaxing)
 .debug_str     0x0000000000033b34      0x180 /home/wh/.HoneyGUI-SDK/realgui/3rd/h264bsd/src/h264bsd_slice_group_map.o
                                        0x4a6 (size before relaxing)
 .debug_str     0x0000000000033cb4      0x176 /home/wh/.HoneyGUI-SDK/realgui/3rd/h264bsd/src/h264bsd_slice_header.o
                                        0xeaf (size before relaxing)
 .debug_str     0x0000000000033e2a       0x51 /home/wh/.HoneyGUI-SDK/realgui/3rd/h264bsd/src/h264bsd_storage.o
                                       0x154e (size before relaxing)
 .debug_str     0x0000000000033e7b       0x46 /home/wh/.HoneyGUI-SDK/realgui/3rd/h264bsd/src/h264bsd_stream.o
                                        0x294 (size before relaxing)
 .debug_str     0x0000000000033ec1       0x7a /home/wh/.HoneyGUI-SDK/realgui/3rd/h264bsd/src/h264bsd_transform.o
                                        0x274 (size before relaxing)
 .debug_str     0x0000000000033f3b       0x9d /home/wh/.HoneyGUI-SDK/realgui/3rd/h264bsd/src/h264bsd_util.o
                                        0x379 (size before relaxing)
 .debug_str     0x0000000000033fd8       0x8d /home/wh/.HoneyGUI-SDK/realgui/3rd/h264bsd/src/h264bsd_vlc.o
                                        0x35b (size before relaxing)
 .debug_str     0x0000000000034065       0x6f /home/wh/.HoneyGUI-SDK/realgui/3rd/h264bsd/src/h264bsd_vui.o
                                        0x787 (size before relaxing)
 .debug_str     0x00000000000340d4       0xa0 /home/wh/.HoneyGUI-SDK/realgui/3rd/h264bsd/port/h264bsd_port.o
                                        0x2af (size before relaxing)
 .debug_str     0x0000000000034174      0x19d /home/wh/.HoneyGUI-SDK/realgui/3rd/tjpgd/tjpgd.o
                                        0x3c9 (size before relaxing)
 .debug_str     0x0000000000034311      0x2fc /home/wh/.HoneyGUI-SDK/realgui/3rd/ezXML/ezxml.o
                                        0x809 (size before relaxing)
 .debug_str     0x000000000003460d     0x1b9a /home/wh/.HoneyGUI-SDK/realgui/3rd/stb/stb_image.o
                                       0x2583 (size before relaxing)
 .debug_str     0x00000000000361a7      0xccf /home/wh/.HoneyGUI-SDK/realgui/widget/gui_view/gui_view.o
                                       0x1d3d (size before relaxing)
 .debug_str     0x0000000000036e76      0x2dc /home/wh/.HoneyGUI-SDK/realgui/widget/gui_view/gui_view_animate.o
                                       0x15c2 (size before relaxing)
 .debug_str     0x0000000000037152       0x7d /home/wh/.HoneyGUI-SDK/realgui/widget/gui_view/gui_view_blur.o
                                       0x1424 (size before relaxing)
 .debug_str     0x00000000000371cf       0xf6 /home/wh/.HoneyGUI-SDK/realgui/widget/gui_view/gui_view_cube.o
                                       0x160a (size before relaxing)
 .debug_str     0x00000000000372c5       0xd0 /home/wh/.HoneyGUI-SDK/realgui/widget/gui_view/gui_view_descriptor.o
                                       0x13a3 (size before relaxing)
 .debug_str     0x0000000000037395       0x44 /home/wh/.HoneyGUI-SDK/realgui/widget/gui_view/gui_view_reduction.o
                                       0x12e9 (size before relaxing)
 .debug_str     0x00000000000373d9       0x41 /home/wh/.HoneyGUI-SDK/realgui/widget/gui_view/gui_view_rotate.o
                                       0x15f0 (size before relaxing)
 .debug_str     0x000000000003741a       0x46 /home/wh/.HoneyGUI-SDK/realgui/widget/gui_view/gui_view_translation.o
                                       0x12ff (size before relaxing)
 .debug_str     0x0000000000037460      0x955 /home/wh/.HoneyGUI-SDK/realgui/widget/gui_text/gui_scroll_text.o
                                       0x19cc (size before relaxing)
 .debug_str     0x0000000000037db5      0x569 /home/wh/.HoneyGUI-SDK/realgui/widget/gui_text/gui_text.o
                                       0x1d9e (size before relaxing)
 .debug_str     0x000000000003831e      0x409 /home/wh/.HoneyGUI-SDK/realgui/widget/gui_lite_geometry/gui_lite_geometry_arc.o
                                       0x16b2 (size before relaxing)
 .debug_str     0x0000000000038727      0x29a /home/wh/.HoneyGUI-SDK/realgui/widget/gui_lite_geometry/gui_lite_geometry_circle.o
                                       0x16f5 (size before relaxing)
 .debug_str     0x00000000000389c1      0x2d1 /home/wh/.HoneyGUI-SDK/realgui/widget/gui_lite_geometry/gui_lite_geometry_round_rect.o
                                       0x13e6 (size before relaxing)
 .debug_str     0x0000000000038c92      0x9b1 /home/wh/.HoneyGUI-SDK/realgui/widget/gui_lite_geometry/lite_geometry.o
                                        0xe31 (size before relaxing)
 .debug_str     0x0000000000039643       0xa8 /home/wh/.HoneyGUI-SDK/realgui/widget/gui_lite_geometry/lite_geometry_math.o
                                        0x304 (size before relaxing)
 .debug_str     0x00000000000396eb      0x645 /home/wh/.HoneyGUI-SDK/realgui/widget/gui_list/gui_list.o
                                       0x2356 (size before relaxing)
 .debug_str     0x0000000000039d30       0x46 /home/wh/.HoneyGUI-SDK/realgui/widget/gui_list/gui_list_rotate_curl.o
                                       0x11a0 (size before relaxing)
 .debug_str     0x0000000000039d76       0x47 /home/wh/.HoneyGUI-SDK/realgui/widget/gui_list/gui_list_rotate_helix.o
                                       0x11a2 (size before relaxing)
 .debug_str     0x0000000000039dbd      0x3d2 /home/wh/.HoneyGUI-SDK/realgui/widget/gui_qbcode/gui_barcode_gen.o
                                        0x68b (size before relaxing)
 .debug_str     0x000000000003a18f      0x322 /home/wh/.HoneyGUI-SDK/realgui/widget/gui_qbcode/gui_qbcode.o
                                       0x1512 (size before relaxing)
 .debug_str     0x000000000003a4b1      0x9ca /home/wh/.HoneyGUI-SDK/realgui/widget/gui_qbcode/gui_qrcode_gen.o
                                        0xd76 (size before relaxing)
 .debug_str     0x000000000003ae7b      0x24f /home/wh/.HoneyGUI-SDK/realgui/widget/gui_menu_cellular/gui_menu_cellular.o
                                       0x15d9 (size before relaxing)
 .debug_str     0x000000000003b0ca      0x169 /home/wh/.HoneyGUI-SDK/realgui/widget/gui_gray/gui_gray.o
                                       0x1254 (size before relaxing)
 .debug_str     0x000000000003b233      0x174 /home/wh/.HoneyGUI-SDK/realgui/widget/gui_obj/gui_obj.o
                                        0xdb5 (size before relaxing)
 .debug_str     0x000000000003b3a7       0xaa /home/wh/.HoneyGUI-SDK/realgui/widget/gui_obj/gui_obj_event.o
                                        0xe0a (size before relaxing)
 .debug_str     0x000000000003b451       0x8f /home/wh/.HoneyGUI-SDK/realgui/widget/gui_obj/gui_obj_suppress.o
                                        0xd82 (size before relaxing)
 .debug_str     0x000000000003b4e0       0x67 /home/wh/.HoneyGUI-SDK/realgui/widget/gui_obj/gui_obj_timer.o
                                        0xb6f (size before relaxing)
 .debug_str     0x000000000003b547      0x1d1 /home/wh/.HoneyGUI-SDK/realgui/widget/gui_obj/gui_obj_tree.o
                                        0xe28 (size before relaxing)
 .debug_str     0x000000000003b718      0x436 /home/wh/.HoneyGUI-SDK/realgui/widget/gui_soccer/gui_soccer.o
                                       0x17cf (size before relaxing)
 .debug_str     0x000000000003bb4e      0x3e9 /home/wh/.HoneyGUI-SDK/realgui/widget/gui_glass/gui_glass.o
                                       0x168b (size before relaxing)
 .debug_str     0x000000000003bf37      0x2db /home/wh/.HoneyGUI-SDK/realgui/widget/gui_img/gui_img.o
                                       0x18bd (size before relaxing)
 .debug_str     0x000000000003c212       0xd0 /home/wh/.HoneyGUI-SDK/realgui/widget/gui_img/gui_img_api.o
                                        0xe91 (size before relaxing)
 .debug_str     0x000000000003c2e2      0x55b /home/wh/.HoneyGUI-SDK/realgui/widget/gui_video/gui_video.o
                                       0x1931 (size before relaxing)
 .debug_str     0x000000000003c83d      0x1ec /home/wh/.HoneyGUI-SDK/realgui/widget/gui_win/gui_win.o
                                        0xf2e (size before relaxing)
 .debug_str     0x000000000003ca29      0x17c /home/wh/.HoneyGUI-SDK/realgui/widget/gui_canvas/gui_canvas.o
                                       0x116b (size before relaxing)
 .debug_str     0x000000000003cba5      0x32b /home/wh/.HoneyGUI-SDK/realgui/widget/gui_canvas/gui_canvas_arc.o
                                       0x16e2 (size before relaxing)
 .debug_str     0x000000000003ced0      0x20a /home/wh/.HoneyGUI-SDK/realgui/widget/gui_canvas/gui_canvas_img.o
                                       0x13a6 (size before relaxing)
 .debug_str     0x000000000003d0da      0x19b /home/wh/.HoneyGUI-SDK/realgui/widget/gui_canvas/gui_canvas_rect.o
                                       0x1491 (size before relaxing)
 .debug_str     0x000000000003d275      0x24d /home/wh/.HoneyGUI-SDK/realgui/widget/gui_canvas/gui_canvas_round_rect.o
                                       0x16cb (size before relaxing)
 .debug_str     0x000000000003d4c2      0x2bb /home/wh/.HoneyGUI-SDK/realgui/engine/acc_api.o
                                       0x1d0d (size before relaxing)
 .debug_str     0x000000000003d77d      0x608 /home/wh/.HoneyGUI-SDK/realgui/engine/draw_font.o
                                        0x9cc (size before relaxing)
 .debug_str     0x000000000003dd85       0xaf /home/wh/.HoneyGUI-SDK/realgui/engine/draw_img.o
                                        0x9b3 (size before relaxing)
 .debug_str     0x000000000003de34       0x6b /home/wh/.HoneyGUI-SDK/realgui/engine/engine_gray.o
                                        0x601 (size before relaxing)
 .debug_str     0x000000000003de9f      0x165 /home/wh/.HoneyGUI-SDK/realgui/engine/gui_matrix.o
                                        0x4ec (size before relaxing)
 .debug_str     0x000000000003e004       0xba /home/wh/.HoneyGUI-SDK/realgui/engine/gui_post_process.o
                                        0x7e6 (size before relaxing)
 .debug_str     0x000000000003e0be      0x129 /home/wh/.HoneyGUI-SDK/realgui/engine/font/font_custom.o
                                       0x128d (size before relaxing)
 .debug_str     0x000000000003e1e7      0x3ff /home/wh/.HoneyGUI-SDK/realgui/engine/font/font_mem.o
                                       0x1b33 (size before relaxing)
 .debug_str     0x000000000003e5e6       0xc9 /home/wh/.HoneyGUI-SDK/realgui/engine/font/font_mem_img.o
                                       0x14dc (size before relaxing)
 .debug_str     0x000000000003e6af      0x16b /home/wh/.HoneyGUI-SDK/realgui/engine/font/font_mem_matrix.o
                                       0x197b (size before relaxing)
 .debug_str     0x000000000003e81a      0x56c /home/wh/.HoneyGUI-SDK/realgui/engine/font/font_rendering_utils.o
                                        0x987 (size before relaxing)
 .debug_str     0x000000000003ed86     0x1a9d /home/wh/.HoneyGUI-SDK/realgui/engine/font/font_stb.o
                                       0x31ff (size before relaxing)
 .debug_str     0x0000000000040823      0x445 /home/wh/.HoneyGUI-SDK/realgui/engine/font/font_ttf.o
                                       0x1b8b (size before relaxing)
 .debug_str     0x0000000000040c68       0xe2 /home/wh/.HoneyGUI-SDK/realgui/engine/sw/a8_2_a8.o
                                        0x777 (size before relaxing)
 .debug_str     0x0000000000040d4a      0x1cc /home/wh/.HoneyGUI-SDK/realgui/engine/sw/a8_2_rgb565.o
                                        0x89e (size before relaxing)
 .debug_str     0x0000000000040f16       0x85 /home/wh/.HoneyGUI-SDK/realgui/engine/sw/acc_sw.o
                                        0x6e2 (size before relaxing)
 .debug_str     0x0000000000040f9b      0x401 /home/wh/.HoneyGUI-SDK/realgui/engine/sw/acc_sw_arm2d_blur.o
                                        0x955 (size before relaxing)
 .debug_str     0x000000000004139c      0x35d /home/wh/.HoneyGUI-SDK/realgui/engine/sw/acc_sw_raster.o
                                        0xc0b (size before relaxing)
 .debug_str     0x00000000000416f9       0xd6 /home/wh/.HoneyGUI-SDK/realgui/engine/sw/argb8565_2_rgb565.o
                                        0x74a (size before relaxing)
 .debug_str     0x00000000000417cf      0x1cd /home/wh/.HoneyGUI-SDK/realgui/engine/sw/rgb565_2_rgb565.o
                                        0x9b5 (size before relaxing)
 .debug_str     0x000000000004199c      0x40b /home/wh/.HoneyGUI-SDK/realgui/engine/sw/idu/acc_sw_idu.o
                                        0x6f8 (size before relaxing)
 .debug_str     0x0000000000041da7      0x16c /home/wh/.HoneyGUI-SDK/realgui/engine/sw/rle/acc_sw_rle.o
                                        0xa68 (size before relaxing)
 .debug_str     0x0000000000041f13       0xa1 /home/wh/.HoneyGUI-SDK/realgui/engine/sw/rle/acc_sw_rle_bypass.o
                                        0x752 (size before relaxing)
 .debug_str     0x0000000000041fb4       0x78 /home/wh/.HoneyGUI-SDK/realgui/engine/sw/rle/acc_sw_rle_cover.o
                                        0x70f (size before relaxing)
 .debug_str     0x000000000004202c       0x58 /home/wh/.HoneyGUI-SDK/realgui/engine/sw/rle/acc_sw_rle_filter.o
                                        0x752 (size before relaxing)
 .debug_str     0x0000000000042084      0x193 /home/wh/.HoneyGUI-SDK/realgui/dc/gui_fb.o
                                       0x10c2 (size before relaxing)
 .debug_str     0x0000000000042217      0x5e9 /home/wh/.HoneyGUI-SDK/realgui/misc/tlsf/tlsf.o
                                        0x920 (size before relaxing)
 .debug_str     0x0000000000042800       0xed /home/wh/.HoneyGUI-SDK/example/widget/image/example_gui_img.o
                                        0xeb8 (size before relaxing)

.debug_loc      0x0000000000000000    0x4241c
 *(.debug_loc)
 .debug_loc     0x0000000000000000       0x4c build/main.o
 .debug_loc     0x000000000000004c       0x60 build/port/realgui_port/gui_port_acc.o
 .debug_loc     0x00000000000000ac       0xc0 build/port/realgui_port/gui_port_dc.o
 .debug_loc     0x000000000000016c      0x240 build/port/realgui_port/gui_port_filesystem.o
 .debug_loc     0x00000000000003ac      0x180 build/port/realgui_port/gui_port_ftl.o
 .debug_loc     0x000000000000052c      0x180 build/port/realgui_port/gui_port_indev.o
 .debug_loc     0x00000000000006ac      0x518 build/port/realgui_port/gui_port_os.o
 .debug_loc     0x0000000000000bc4      0x360 build/port/realgui_port/gui_queue.o
 .debug_loc     0x0000000000000f24      0x120 build/port/realgui_port/sdl_driver.o
 .debug_loc     0x0000000000001044      0x2a0 /home/wh/.HoneyGUI-SDK/realgui/input/kb_algo.o
 .debug_loc     0x00000000000012e4      0x840 /home/wh/.HoneyGUI-SDK/realgui/input/tp_algo.o
 .debug_loc     0x0000000000001b24       0xc0 /home/wh/.HoneyGUI-SDK/realgui/input/wheel_algo.o
 .debug_loc     0x0000000000001be4       0xc0 /home/wh/.HoneyGUI-SDK/realgui/server/gui_api_acc.o
 .debug_loc     0x0000000000001ca4      0x360 /home/wh/.HoneyGUI-SDK/realgui/server/gui_api_color.o
 .debug_loc     0x0000000000002004      0x300 /home/wh/.HoneyGUI-SDK/realgui/server/gui_api_dc.o
 .debug_loc     0x0000000000002304      0x600 /home/wh/.HoneyGUI-SDK/realgui/server/gui_api_fs.o
 .debug_loc     0x0000000000002904      0x180 /home/wh/.HoneyGUI-SDK/realgui/server/gui_api_ftl.o
 .debug_loc     0x0000000000002a84      0x240 /home/wh/.HoneyGUI-SDK/realgui/server/gui_api_indev.o
 .debug_loc     0x0000000000002cc4      0xb40 /home/wh/.HoneyGUI-SDK/realgui/server/gui_api_os.o
 .debug_loc     0x0000000000003804       0x60 /home/wh/.HoneyGUI-SDK/realgui/server/gui_components_init.o
 .debug_loc     0x0000000000003864      0x240 /home/wh/.HoneyGUI-SDK/realgui/server/gui_message.o
 .debug_loc     0x0000000000003aa4       0x60 /home/wh/.HoneyGUI-SDK/realgui/server/gui_pm.o
 .debug_loc     0x0000000000003b04      0x10c /home/wh/.HoneyGUI-SDK/realgui/server/gui_server.o
 .debug_loc     0x0000000000003c10     0x2a00 /home/wh/.HoneyGUI-SDK/realgui/3rd/cJSON/cJSON.o
 .debug_loc     0x0000000000006610      0x240 /home/wh/.HoneyGUI-SDK/realgui/3rd/nanovg/base/nanovg_port.o
 .debug_loc     0x0000000000006850     0x3420 /home/wh/.HoneyGUI-SDK/realgui/3rd/nanovg/base/nanovg.o
 .debug_loc     0x0000000000009c70      0x2a0 /home/wh/.HoneyGUI-SDK/realgui/3rd/nanovg/agge/math.o
 .debug_loc     0x0000000000009f10      0xfc0 /home/wh/.HoneyGUI-SDK/realgui/3rd/nanovg/agge/stroke.o
 .debug_loc     0x000000000000aed0      0xde0 /home/wh/.HoneyGUI-SDK/realgui/3rd/nanovg/agge/stroke_features.o
 .debug_loc     0x000000000000bcb0     0x1080 /home/wh/.HoneyGUI-SDK/realgui/3rd/nanovg/agge/vector_rasterizer.o
 .debug_loc     0x000000000000cd30     0xaf20 /home/wh/.HoneyGUI-SDK/realgui/3rd/nanovg/agge/nanovg_agge.o
 .debug_loc     0x0000000000017c50      0x180 /home/wh/.HoneyGUI-SDK/realgui/3rd/nanovg/agge/nanovg_vertex.o
 .debug_loc     0x0000000000017dd0      0xc00 /home/wh/.HoneyGUI-SDK/realgui/3rd/gifdec/gifdec.o
 .debug_loc     0x00000000000189d0     0x166c /home/wh/.HoneyGUI-SDK/realgui/3rd/letter_shell/shell.o
 .debug_loc     0x000000000001a03c      0x120 /home/wh/.HoneyGUI-SDK/realgui/3rd/letter_shell/shell_companion.o
 .debug_loc     0x000000000001a15c      0x300 /home/wh/.HoneyGUI-SDK/realgui/3rd/letter_shell/shell_ext.o
 .debug_loc     0x000000000001a45c      0x120 /home/wh/.HoneyGUI-SDK/realgui/3rd/letter_shell/shell_fs.o
 .debug_loc     0x000000000001a57c      0x120 /home/wh/.HoneyGUI-SDK/realgui/3rd/letter_shell/shell_port.o
 .debug_loc     0x000000000001a69c      0x180 /home/wh/.HoneyGUI-SDK/realgui/3rd/h264bsd/src/gui_h264bsd.o
 .debug_loc     0x000000000001a81c       0x60 /home/wh/.HoneyGUI-SDK/realgui/3rd/h264bsd/src/h264bsd_byte_stream.o
 .debug_loc     0x000000000001a87c      0x1e0 /home/wh/.HoneyGUI-SDK/realgui/3rd/h264bsd/src/h264bsd_cavlc.o
 .debug_loc     0x000000000001aa5c      0x120 /home/wh/.HoneyGUI-SDK/realgui/3rd/h264bsd/src/h264bsd_conceal.o
 .debug_loc     0x000000000001ab7c      0x720 /home/wh/.HoneyGUI-SDK/realgui/3rd/h264bsd/src/h264bsd_deblocking.o
 .debug_loc     0x000000000001b29c      0x8a0 /home/wh/.HoneyGUI-SDK/realgui/3rd/h264bsd/src/h264bsd_decoder.o
 .debug_loc     0x000000000001bb3c      0x900 /home/wh/.HoneyGUI-SDK/realgui/3rd/h264bsd/src/h264bsd_dpb.o
 .debug_loc     0x000000000001c43c       0xc0 /home/wh/.HoneyGUI-SDK/realgui/3rd/h264bsd/src/h264bsd_image.o
 .debug_loc     0x000000000001c4fc      0x360 /home/wh/.HoneyGUI-SDK/realgui/3rd/h264bsd/src/h264bsd_inter_prediction.o
 .debug_loc     0x000000000001c85c      0xa20 /home/wh/.HoneyGUI-SDK/realgui/3rd/h264bsd/src/h264bsd_intra_prediction.o
 .debug_loc     0x000000000001d27c      0x4e0 /home/wh/.HoneyGUI-SDK/realgui/3rd/h264bsd/src/h264bsd_macroblock_layer.o
 .debug_loc     0x000000000001d75c       0x60 /home/wh/.HoneyGUI-SDK/realgui/3rd/h264bsd/src/h264bsd_nal_unit.o
 .debug_loc     0x000000000001d7bc      0x2a0 /home/wh/.HoneyGUI-SDK/realgui/3rd/h264bsd/src/h264bsd_neighbour.o
 .debug_loc     0x000000000001da5c       0x60 /home/wh/.HoneyGUI-SDK/realgui/3rd/h264bsd/src/h264bsd_pic_order_cnt.o
 .debug_loc     0x000000000001dabc       0x60 /home/wh/.HoneyGUI-SDK/realgui/3rd/h264bsd/src/h264bsd_pic_param_set.o
 .debug_loc     0x000000000001db1c      0x600 /home/wh/.HoneyGUI-SDK/realgui/3rd/h264bsd/src/h264bsd_reconstruct.o
 .debug_loc     0x000000000001e11c      0x780 /home/wh/.HoneyGUI-SDK/realgui/3rd/h264bsd/src/h264bsd_sei.o
 .debug_loc     0x000000000001e89c      0x120 /home/wh/.HoneyGUI-SDK/realgui/3rd/h264bsd/src/h264bsd_seq_param_set.o
 .debug_loc     0x000000000001e9bc      0x120 /home/wh/.HoneyGUI-SDK/realgui/3rd/h264bsd/src/h264bsd_slice_data.o
 .debug_loc     0x000000000001eadc      0x2a0 /home/wh/.HoneyGUI-SDK/realgui/3rd/h264bsd/src/h264bsd_slice_group_map.o
 .debug_loc     0x000000000001ed7c      0x480 /home/wh/.HoneyGUI-SDK/realgui/3rd/h264bsd/src/h264bsd_slice_header.o
 .debug_loc     0x000000000001f1fc      0x420 /home/wh/.HoneyGUI-SDK/realgui/3rd/h264bsd/src/h264bsd_storage.o
 .debug_loc     0x000000000001f61c      0x180 /home/wh/.HoneyGUI-SDK/realgui/3rd/h264bsd/src/h264bsd_stream.o
 .debug_loc     0x000000000001f79c      0x120 /home/wh/.HoneyGUI-SDK/realgui/3rd/h264bsd/src/h264bsd_transform.o
 .debug_loc     0x000000000001f8bc      0x1e0 /home/wh/.HoneyGUI-SDK/realgui/3rd/h264bsd/src/h264bsd_util.o
 .debug_loc     0x000000000001fa9c      0x180 /home/wh/.HoneyGUI-SDK/realgui/3rd/h264bsd/src/h264bsd_vlc.o
 .debug_loc     0x000000000001fc1c       0xc0 /home/wh/.HoneyGUI-SDK/realgui/3rd/h264bsd/src/h264bsd_vui.o
 .debug_loc     0x000000000001fcdc      0x360 /home/wh/.HoneyGUI-SDK/realgui/3rd/h264bsd/port/h264bsd_port.o
 .debug_loc     0x000000000002003c      0x420 /home/wh/.HoneyGUI-SDK/realgui/3rd/tjpgd/tjpgd.o
 .debug_loc     0x000000000002045c      0xde0 /home/wh/.HoneyGUI-SDK/realgui/3rd/ezXML/ezxml.o
 .debug_loc     0x000000000002123c     0x3780 /home/wh/.HoneyGUI-SDK/realgui/3rd/stb/stb_image.o
 .debug_loc     0x00000000000249bc      0x960 /home/wh/.HoneyGUI-SDK/realgui/widget/gui_view/gui_view.o
 .debug_loc     0x000000000002531c      0x660 /home/wh/.HoneyGUI-SDK/realgui/widget/gui_view/gui_view_animate.o
 .debug_loc     0x000000000002597c       0xc0 /home/wh/.HoneyGUI-SDK/realgui/widget/gui_view/gui_view_blur.o
 .debug_loc     0x0000000000025a3c       0x60 /home/wh/.HoneyGUI-SDK/realgui/widget/gui_view/gui_view_cube.o
 .debug_loc     0x0000000000025a9c      0x120 /home/wh/.HoneyGUI-SDK/realgui/widget/gui_view/gui_view_descriptor.o
 .debug_loc     0x0000000000025bbc       0x60 /home/wh/.HoneyGUI-SDK/realgui/widget/gui_view/gui_view_reduction.o
 .debug_loc     0x0000000000025c1c       0x60 /home/wh/.HoneyGUI-SDK/realgui/widget/gui_view/gui_view_rotate.o
 .debug_loc     0x0000000000025c7c       0x60 /home/wh/.HoneyGUI-SDK/realgui/widget/gui_view/gui_view_translation.o
 .debug_loc     0x0000000000025cdc      0x9c0 /home/wh/.HoneyGUI-SDK/realgui/widget/gui_text/gui_scroll_text.o
 .debug_loc     0x000000000002669c      0xf00 /home/wh/.HoneyGUI-SDK/realgui/widget/gui_text/gui_text.o
 .debug_loc     0x000000000002759c      0x960 /home/wh/.HoneyGUI-SDK/realgui/widget/gui_lite_geometry/gui_lite_geometry_arc.o
 .debug_loc     0x0000000000027efc      0x7e0 /home/wh/.HoneyGUI-SDK/realgui/widget/gui_lite_geometry/gui_lite_geometry_circle.o
 .debug_loc     0x00000000000286dc      0x6c0 /home/wh/.HoneyGUI-SDK/realgui/widget/gui_lite_geometry/gui_lite_geometry_round_rect.o
 .debug_loc     0x0000000000028d9c     0x1140 /home/wh/.HoneyGUI-SDK/realgui/widget/gui_lite_geometry/lite_geometry.o
 .debug_loc     0x0000000000029edc      0x240 /home/wh/.HoneyGUI-SDK/realgui/widget/gui_lite_geometry/lite_geometry_math.o
 .debug_loc     0x000000000002a11c      0xf00 /home/wh/.HoneyGUI-SDK/realgui/widget/gui_list/gui_list.o
 .debug_loc     0x000000000002b01c       0x60 /home/wh/.HoneyGUI-SDK/realgui/widget/gui_list/gui_list_rotate_curl.o
 .debug_loc     0x000000000002b07c       0x60 /home/wh/.HoneyGUI-SDK/realgui/widget/gui_list/gui_list_rotate_helix.o
 .debug_loc     0x000000000002b0dc      0x7e0 /home/wh/.HoneyGUI-SDK/realgui/widget/gui_qbcode/gui_barcode_gen.o
 .debug_loc     0x000000000002b8bc      0x540 /home/wh/.HoneyGUI-SDK/realgui/widget/gui_qbcode/gui_qbcode.o
 .debug_loc     0x000000000002bdfc     0x1020 /home/wh/.HoneyGUI-SDK/realgui/widget/gui_qbcode/gui_qrcode_gen.o
 .debug_loc     0x000000000002ce1c      0x3c0 /home/wh/.HoneyGUI-SDK/realgui/widget/gui_menu_cellular/gui_menu_cellular.o
 .debug_loc     0x000000000002d1dc      0x420 /home/wh/.HoneyGUI-SDK/realgui/widget/gui_gray/gui_gray.o
 .debug_loc     0x000000000002d5fc      0x840 /home/wh/.HoneyGUI-SDK/realgui/widget/gui_obj/gui_obj.o
 .debug_loc     0x000000000002de3c      0x1e0 /home/wh/.HoneyGUI-SDK/realgui/widget/gui_obj/gui_obj_event.o
 .debug_loc     0x000000000002e01c      0x120 /home/wh/.HoneyGUI-SDK/realgui/widget/gui_obj/gui_obj_suppress.o
 .debug_loc     0x000000000002e13c      0x1e0 /home/wh/.HoneyGUI-SDK/realgui/widget/gui_obj/gui_obj_timer.o
 .debug_loc     0x000000000002e31c      0x780 /home/wh/.HoneyGUI-SDK/realgui/widget/gui_obj/gui_obj_tree.o
 .debug_loc     0x000000000002ea9c      0xc60 /home/wh/.HoneyGUI-SDK/realgui/widget/gui_soccer/gui_soccer.o
 .debug_loc     0x000000000002f6fc      0xa20 /home/wh/.HoneyGUI-SDK/realgui/widget/gui_glass/gui_glass.o
 .debug_loc     0x000000000003011c      0xf00 /home/wh/.HoneyGUI-SDK/realgui/widget/gui_img/gui_img.o
 .debug_loc     0x000000000003101c      0x120 /home/wh/.HoneyGUI-SDK/realgui/widget/gui_img/gui_img_api.o
 .debug_loc     0x000000000003113c      0xc60 /home/wh/.HoneyGUI-SDK/realgui/widget/gui_video/gui_video.o
 .debug_loc     0x0000000000031d9c      0xb40 /home/wh/.HoneyGUI-SDK/realgui/widget/gui_win/gui_win.o
 .debug_loc     0x00000000000328dc      0x420 /home/wh/.HoneyGUI-SDK/realgui/widget/gui_canvas/gui_canvas.o
 .debug_loc     0x0000000000032cfc      0x720 /home/wh/.HoneyGUI-SDK/realgui/widget/gui_canvas/gui_canvas_arc.o
 .debug_loc     0x000000000003341c      0x480 /home/wh/.HoneyGUI-SDK/realgui/widget/gui_canvas/gui_canvas_img.o
 .debug_loc     0x000000000003389c      0x540 /home/wh/.HoneyGUI-SDK/realgui/widget/gui_canvas/gui_canvas_rect.o
 .debug_loc     0x0000000000033ddc      0x8a0 /home/wh/.HoneyGUI-SDK/realgui/widget/gui_canvas/gui_canvas_round_rect.o
 .debug_loc     0x000000000003467c     0x2640 /home/wh/.HoneyGUI-SDK/realgui/engine/acc_api.o
 .debug_loc     0x0000000000036cbc      0xde0 /home/wh/.HoneyGUI-SDK/realgui/engine/draw_font.o
 .debug_loc     0x0000000000037a9c      0x2a0 /home/wh/.HoneyGUI-SDK/realgui/engine/draw_img.o
 .debug_loc     0x0000000000037d3c       0xc0 /home/wh/.HoneyGUI-SDK/realgui/engine/engine_gray.o
 .debug_loc     0x0000000000037dfc      0x8a0 /home/wh/.HoneyGUI-SDK/realgui/engine/gui_matrix.o
 .debug_loc     0x000000000003869c      0x180 /home/wh/.HoneyGUI-SDK/realgui/engine/gui_post_process.o
 .debug_loc     0x000000000003881c      0x1e0 /home/wh/.HoneyGUI-SDK/realgui/engine/font/font_custom.o
 .debug_loc     0x00000000000389fc      0x660 /home/wh/.HoneyGUI-SDK/realgui/engine/font/font_mem.o
 .debug_loc     0x000000000003905c      0x120 /home/wh/.HoneyGUI-SDK/realgui/engine/font/font_mem_img.o
 .debug_loc     0x000000000003917c      0x420 /home/wh/.HoneyGUI-SDK/realgui/engine/font/font_mem_matrix.o
 .debug_loc     0x000000000003959c      0xe40 /home/wh/.HoneyGUI-SDK/realgui/engine/font/font_rendering_utils.o
 .debug_loc     0x000000000003a3dc     0x36c0 /home/wh/.HoneyGUI-SDK/realgui/engine/font/font_stb.o
 .debug_loc     0x000000000003da9c      0x660 /home/wh/.HoneyGUI-SDK/realgui/engine/font/font_ttf.o
 .debug_loc     0x000000000003e0fc      0x300 /home/wh/.HoneyGUI-SDK/realgui/engine/sw/a8_2_a8.o
 .debug_loc     0x000000000003e3fc      0x540 /home/wh/.HoneyGUI-SDK/realgui/engine/sw/a8_2_rgb565.o
 .debug_loc     0x000000000003e93c      0x1e0 /home/wh/.HoneyGUI-SDK/realgui/engine/sw/acc_sw.o
 .debug_loc     0x000000000003eb1c      0x420 /home/wh/.HoneyGUI-SDK/realgui/engine/sw/acc_sw_arm2d_blur.o
 .debug_loc     0x000000000003ef3c      0x300 /home/wh/.HoneyGUI-SDK/realgui/engine/sw/acc_sw_raster.o
 .debug_loc     0x000000000003f23c      0x360 /home/wh/.HoneyGUI-SDK/realgui/engine/sw/argb8565_2_rgb565.o
 .debug_loc     0x000000000003f59c      0x600 /home/wh/.HoneyGUI-SDK/realgui/engine/sw/rgb565_2_rgb565.o
 .debug_loc     0x000000000003fb9c      0x4e0 /home/wh/.HoneyGUI-SDK/realgui/engine/sw/idu/acc_sw_idu.o
 .debug_loc     0x000000000004007c      0x3c0 /home/wh/.HoneyGUI-SDK/realgui/engine/sw/rle/acc_sw_rle.o
 .debug_loc     0x000000000004043c       0xc0 /home/wh/.HoneyGUI-SDK/realgui/engine/sw/rle/acc_sw_rle_bypass.o
 .debug_loc     0x00000000000404fc       0x60 /home/wh/.HoneyGUI-SDK/realgui/engine/sw/rle/acc_sw_rle_cover.o
 .debug_loc     0x000000000004055c       0xc0 /home/wh/.HoneyGUI-SDK/realgui/engine/sw/rle/acc_sw_rle_filter.o
 .debug_loc     0x000000000004061c      0x4e0 /home/wh/.HoneyGUI-SDK/realgui/dc/gui_fb.o
 .debug_loc     0x0000000000040afc     0x1800 /home/wh/.HoneyGUI-SDK/realgui/misc/tlsf/tlsf.o
 .debug_loc     0x00000000000422fc      0x120 /home/wh/.HoneyGUI-SDK/example/widget/image/example_gui_img.o

.debug_macinfo
 *(.debug_macinfo)

.debug_weaknames
 *(.debug_weaknames)

.debug_funcnames
 *(.debug_funcnames)

.debug_typenames
 *(.debug_typenames)

.debug_varnames
 *(.debug_varnames)

.debug_pubtypes
 *(.debug_pubtypes)

.debug_ranges   0x0000000000000000     0x3e30
 *(.debug_ranges)
 .debug_ranges  0x0000000000000000       0xf0 /home/wh/.HoneyGUI-SDK/realgui/3rd/cJSON/cJSON.o
 .debug_ranges  0x00000000000000f0       0x90 /home/wh/.HoneyGUI-SDK/realgui/3rd/nanovg/base/nanovg.o
 .debug_ranges  0x0000000000000180       0x30 /home/wh/.HoneyGUI-SDK/realgui/3rd/nanovg/agge/math.o
 .debug_ranges  0x00000000000001b0      0x290 /home/wh/.HoneyGUI-SDK/realgui/3rd/nanovg/agge/stroke.o
 .debug_ranges  0x0000000000000440      0x200 /home/wh/.HoneyGUI-SDK/realgui/3rd/nanovg/agge/stroke_features.o
 .debug_ranges  0x0000000000000640      0x2c0 /home/wh/.HoneyGUI-SDK/realgui/3rd/nanovg/agge/vector_rasterizer.o
 .debug_ranges  0x0000000000000900     0x2e50 /home/wh/.HoneyGUI-SDK/realgui/3rd/nanovg/agge/nanovg_agge.o
 .debug_ranges  0x0000000000003750       0x60 /home/wh/.HoneyGUI-SDK/realgui/3rd/letter_shell/shell.o
 .debug_ranges  0x00000000000037b0       0x50 /home/wh/.HoneyGUI-SDK/realgui/3rd/h264bsd/src/h264bsd_inter_prediction.o
 .debug_ranges  0x0000000000003800       0x90 /home/wh/.HoneyGUI-SDK/realgui/3rd/stb/stb_image.o
 .debug_ranges  0x0000000000003890      0x100 /home/wh/.HoneyGUI-SDK/realgui/widget/gui_lite_geometry/lite_geometry.o
 .debug_ranges  0x0000000000003990       0x60 /home/wh/.HoneyGUI-SDK/realgui/widget/gui_list/gui_list.o
 .debug_ranges  0x00000000000039f0       0x30 /home/wh/.HoneyGUI-SDK/realgui/widget/gui_obj/gui_obj_tree.o
 .debug_ranges  0x0000000000003a20       0x30 /home/wh/.HoneyGUI-SDK/realgui/widget/gui_canvas/gui_canvas_arc.o
 .debug_ranges  0x0000000000003a50       0x60 /home/wh/.HoneyGUI-SDK/realgui/engine/acc_api.o
 .debug_ranges  0x0000000000003ab0       0x30 /home/wh/.HoneyGUI-SDK/realgui/engine/draw_font.o
 .debug_ranges  0x0000000000003ae0       0x30 /home/wh/.HoneyGUI-SDK/realgui/engine/draw_img.o
 .debug_ranges  0x0000000000003b10       0x60 /home/wh/.HoneyGUI-SDK/realgui/engine/gui_post_process.o
 .debug_ranges  0x0000000000003b70      0x120 /home/wh/.HoneyGUI-SDK/realgui/engine/font/font_mem.o
 .debug_ranges  0x0000000000003c90       0x30 /home/wh/.HoneyGUI-SDK/realgui/engine/font/font_mem_matrix.o
 .debug_ranges  0x0000000000003cc0      0x170 /home/wh/.HoneyGUI-SDK/realgui/engine/font/font_stb.o

.debug_addr
 *(.debug_addr)

.debug_line_str
 *(.debug_line_str)

.debug_loclists
 *(.debug_loclists)

.debug_macro
 *(.debug_macro)

.debug_names
 *(.debug_names)

.debug_rnglists
 *(.debug_rnglists)

.debug_str_offsets
 *(.debug_str_offsets)

.debug_sup
 *(.debug_sup)

.gnu.attributes
 *(.gnu.attributes)

/DISCARD/
 *(.note.GNU-stack)
 *(.gnu_debuglink)
 *(.gnu.lto_*)
OUTPUT(gui elf64-x86-64)
